---
triple:          'arm64-apple-darwin'
binary-path:     main
relocations:
  - { offsetInCU: 0x4F, offset: 0x4F, size: 0x8, addend: 0x0, symName: __ZN5boost4asio5errorL15system_categoryE, symObjAddr: 0x516F8, symBinAddr: 0x10000C218, symSize: 0x0 }
  - { offsetInCU: 0x69, offset: 0x69, size: 0x8, addend: 0x0, symName: __ZN5boost4asio5errorL14netdb_categoryE, symObjAddr: 0x51700, symBinAddr: 0x10000C220, symSize: 0x0 }
  - { offsetInCU: 0x83, offset: 0x83, size: 0x8, addend: 0x0, symName: __ZN5boost4asio5errorL17addrinfo_categoryE, symObjAddr: 0x51708, symBinAddr: 0x10000C228, symSize: 0x0 }
  - { offsetInCU: 0x9D, offset: 0x9D, size: 0x8, addend: 0x0, symName: __ZN5boost4asio5errorL13misc_categoryE, symObjAddr: 0x51710, symBinAddr: 0x10000C230, symSize: 0x0 }
  - { offsetInCU: 0xB6, offset: 0xB6, size: 0x8, addend: 0x0, symName: __ZN5boost4asio5errorL12ssl_categoryE, symObjAddr: 0x51718, symBinAddr: 0x10000C238, symSize: 0x0 }
  - { offsetInCU: 0xC3, offset: 0xC3, size: 0x8, addend: 0x0, symName: __ZN5boost4asio5error18get_netdb_categoryEv, symObjAddr: 0x14, symBinAddr: 0x10000212C, symSize: 0xC }
  - { offsetInCU: 0xEC, offset: 0xEC, size: 0x8, addend: 0x0, symName: __ZZN5boost4asio5error18get_netdb_categoryEvE8instance, symObjAddr: 0x5088, symBinAddr: 0x10000C0E0, symSize: 0x0 }
  - { offsetInCU: 0x254, offset: 0x254, size: 0x8, addend: 0x0, symName: __ZN5boost4asio5error21get_addrinfo_categoryEv, symObjAddr: 0x20, symBinAddr: 0x100002138, symSize: 0xC }
  - { offsetInCU: 0x27D, offset: 0x27D, size: 0x8, addend: 0x0, symName: __ZZN5boost4asio5error21get_addrinfo_categoryEvE8instance, symObjAddr: 0x50C0, symBinAddr: 0x10000C118, symSize: 0x0 }
  - { offsetInCU: 0x287, offset: 0x287, size: 0x8, addend: 0x0, symName: __ZN5boost4asio5error17get_misc_categoryEv, symObjAddr: 0x2C, symBinAddr: 0x100002144, symSize: 0xC }
  - { offsetInCU: 0x2B0, offset: 0x2B0, size: 0x8, addend: 0x0, symName: __ZZN5boost4asio5error17get_misc_categoryEvE8instance, symObjAddr: 0x50F8, symBinAddr: 0x10000C150, symSize: 0x0 }
  - { offsetInCU: 0x2BA, offset: 0x2BA, size: 0x8, addend: 0x0, symName: __ZN5boost4asio5error16get_ssl_categoryEv, symObjAddr: 0x304, symBinAddr: 0x10000241C, symSize: 0xC }
  - { offsetInCU: 0x2E3, offset: 0x2E3, size: 0x8, addend: 0x0, symName: __ZZN5boost4asio5error16get_ssl_categoryEvE8instance, symObjAddr: 0x5130, symBinAddr: 0x10000C188, symSize: 0x0 }
  - { offsetInCU: 0x2ED, offset: 0x2ED, size: 0x8, addend: 0x0, symName: __ZN5boost4asio5error19get_system_categoryEv, symObjAddr: 0x0, symBinAddr: 0x100002118, symSize: 0x14 }
  - { offsetInCU: 0x322, offset: 0x322, size: 0x8, addend: 0x0, symName: __ZN5boost4asio3ssl5errorL15stream_categoryE, symObjAddr: 0x51720, symBinAddr: 0x10000C240, symSize: 0x0 }
  - { offsetInCU: 0x32F, offset: 0x32F, size: 0x8, addend: 0x0, symName: __ZN5boost4asio3ssl5error19get_stream_categoryEv, symObjAddr: 0x310, symBinAddr: 0x100002428, symSize: 0xC }
  - { offsetInCU: 0x358, offset: 0x358, size: 0x8, addend: 0x0, symName: __ZZN5boost4asio3ssl5error19get_stream_categoryEvE8instance, symObjAddr: 0x5168, symBinAddr: 0x10000C1C0, symSize: 0x0 }
  - { offsetInCU: 0x3CA, offset: 0x3CA, size: 0x8, addend: 0x0, symName: __ZN5boost4asio3ssl6detail12openssl_initILb1EE9instance_E, symObjAddr: 0x5038, symBinAddr: 0x10000C090, symSize: 0x0 }
  - { offsetInCU: 0x490, offset: 0x490, size: 0x8, addend: 0x0, symName: __ZN5boost4asio6detail10call_stackINS1_14thread_contextENS1_16thread_info_baseEE4top_E, symObjAddr: 0x4FA8, symBinAddr: 0x10000C000, symSize: 0x0 }
  - { offsetInCU: 0x746, offset: 0x746, size: 0x8, addend: 0x0, symName: __ZN5boost4asio6detail30execution_context_service_baseINS0_14config_serviceEE2idE, symObjAddr: 0x4FB8, symBinAddr: 0x10000C010, symSize: 0x0 }
  - { offsetInCU: 0x97E, offset: 0x97E, size: 0x8, addend: 0x0, symName: __ZN5boost4asio6detail30execution_context_service_baseINS1_9schedulerEE2idE, symObjAddr: 0x4FC8, symBinAddr: 0x10000C020, symSize: 0x0 }
  - { offsetInCU: 0x137E, offset: 0x137E, size: 0x8, addend: 0x0, symName: __ZN5boost4asio6detail30execution_context_service_baseINS1_14kqueue_reactorEE2idE, symObjAddr: 0x4FD8, symBinAddr: 0x10000C030, symSize: 0x0 }
  - { offsetInCU: 0x1C72, offset: 0x1C72, size: 0x8, addend: 0x0, symName: __ZN5boost4asio6detail10call_stackINS1_14strand_service11strand_implEhE4top_E, symObjAddr: 0x4FE8, symBinAddr: 0x10000C040, symSize: 0x0 }
  - { offsetInCU: 0x2108, offset: 0x2108, size: 0x8, addend: 0x0, symName: __ZN5boost4asio6detail12service_baseINS1_14strand_serviceEE2idE, symObjAddr: 0x4FF8, symBinAddr: 0x10000C050, symSize: 0x0 }
  - { offsetInCU: 0x211B, offset: 0x211B, size: 0x8, addend: 0x0, symName: __ZN5boost4asio6detail10call_stackINS1_23strand_executor_service11strand_implEhE4top_E, symObjAddr: 0x5008, symBinAddr: 0x10000C060, symSize: 0x0 }
  - { offsetInCU: 0x253B, offset: 0x253B, size: 0x8, addend: 0x0, symName: __ZN5boost4asio6detail17posix_global_implINS0_14system_contextEE9instance_E, symObjAddr: 0x5018, symBinAddr: 0x10000C070, symSize: 0x0 }
  - { offsetInCU: 0x262D, offset: 0x262D, size: 0x8, addend: 0x0, symName: __ZN5boost4asio6detail17posix_global_implINS0_14system_contextEE11static_ptr_E, symObjAddr: 0x51A0, symBinAddr: 0x10000C1F8, symSize: 0x0 }
  - { offsetInCU: 0x3C30, offset: 0x3C30, size: 0x8, addend: 0x0, symName: __ZN5boost6system6detail29system_error_category_messageEi, symObjAddr: 0xDFC, symBinAddr: 0x100002F14, symSize: 0x2C }
  - { offsetInCU: 0x3C5C, offset: 0x3C5C, size: 0x8, addend: 0x0, symName: __ZN5boost6system6detail30generic_error_category_messageEi, symObjAddr: 0xE28, symBinAddr: 0x100002F40, symSize: 0x6C }
  - { offsetInCU: 0x3C96, offset: 0x3C96, size: 0x8, addend: 0x0, symName: __ZN5boost6system6detail29system_error_category_messageEiPcm, symObjAddr: 0xE94, symBinAddr: 0x100002FAC, symSize: 0x34 }
  - { offsetInCU: 0x3CDE, offset: 0x3CDE, size: 0x8, addend: 0x0, symName: __ZN5boost6system6detail30generic_error_category_messageEiPcm, symObjAddr: 0xEC8, symBinAddr: 0x100002FE0, symSize: 0xE8 }
  - { offsetInCU: 0x3FE1, offset: 0x3FE1, size: 0x8, addend: 0x0, symName: __ZN5boost6system15system_categoryEv, symObjAddr: 0x7AC, symBinAddr: 0x1000028C4, symSize: 0xC }
  - { offsetInCU: 0x4003, offset: 0x4003, size: 0x8, addend: 0x0, symName: __ZN5boost6systemeqERKNS0_15error_conditionES3_, symObjAddr: 0x9EC, symBinAddr: 0x100002B04, symSize: 0x10C }
  - { offsetInCU: 0x403D, offset: 0x403D, size: 0x8, addend: 0x0, symName: __ZN5boost6systemeqERKNS0_14error_categoryES3_, symObjAddr: 0xB54, symBinAddr: 0x100002C6C, symSize: 0x6C }
  - { offsetInCU: 0x417B, offset: 0x417B, size: 0x8, addend: 0x0, symName: __ZN5boost5beast6detail12service_baseINS0_9websocket6detail7serviceEE2idE, symObjAddr: 0x5028, symBinAddr: 0x10000C080, symSize: 0x0 }
  - { offsetInCU: 0xB890, offset: 0xB890, size: 0x8, addend: 0x0, symName: __ZNSt3__124__put_character_sequenceB8ue170006IcNS_11char_traitsIcEEEERNS_13basic_ostreamIT_T0_EES7_PKS4_m, symObjAddr: 0x2900, symBinAddr: 0x100004A18, symSize: 0x1EC }
  - { offsetInCU: 0xE4B8, offset: 0xE4B8, size: 0x8, addend: 0x0, symName: __ZNSt3__1lsB8ue170006INS_11char_traitsIcEEEERNS_13basic_ostreamIcT_EES6_PKc, symObjAddr: 0xFC, symBinAddr: 0x100002214, symSize: 0x48 }
  - { offsetInCU: 0xE501, offset: 0xE501, size: 0x8, addend: 0x0, symName: __ZNSt3__14endlB8ue170006IcNS_11char_traitsIcEEEERNS_13basic_ostreamIT_T0_EES7_, symObjAddr: 0x170, symBinAddr: 0x100002288, symSize: 0x58 }
  - { offsetInCU: 0xE543, offset: 0xE543, size: 0x8, addend: 0x0, symName: __ZNSt3__1lsB8ue170006IcNS_11char_traitsIcEENS_9allocatorIcEEEERNS_13basic_ostreamIT_T0_EES9_RKNS_12basic_stringIS6_S7_T1_EE, symObjAddr: 0x374, symBinAddr: 0x10000248C, symSize: 0x4C }
  - { offsetInCU: 0xE59D, offset: 0xE59D, size: 0x8, addend: 0x0, symName: __ZNSt3__112__to_addressB8ue170006IKcEEPT_S3_, symObjAddr: 0x12E8, symBinAddr: 0x100003400, symSize: 0x14 }
  - { offsetInCU: 0xE605, offset: 0xE605, size: 0x8, addend: 0x0, symName: __ZNSt3__118__constexpr_strlenB8ue170006EPKc, symObjAddr: 0x1740, symBinAddr: 0x100003858, symSize: 0x24 }
  - { offsetInCU: 0xE632, offset: 0xE632, size: 0x8, addend: 0x0, symName: __ZNSt3__122__cxx_atomic_fetch_subB8ue170006IlEET_PNS_22__cxx_atomic_base_implIS1_EES1_NS_12memory_orderE, symObjAddr: 0x2174, symBinAddr: 0x10000428C, symSize: 0xD8 }
  - { offsetInCU: 0xE68B, offset: 0xE68B, size: 0x8, addend: 0x0, symName: __ZNSt3__116__pad_and_outputB8ue170006IcNS_11char_traitsIcEEEENS_19ostreambuf_iteratorIT_T0_EES6_PKS4_S8_S8_RNS_8ios_baseES4_, symObjAddr: 0x2B08, symBinAddr: 0x100004C20, symSize: 0x240 }
  - { offsetInCU: 0xE765, offset: 0xE765, size: 0x8, addend: 0x0, symName: __ZNSt3__112__to_addressB8ue170006IcEEPT_S2_, symObjAddr: 0x2F78, symBinAddr: 0x100005090, symSize: 0x14 }
  - { offsetInCU: 0xE79A, offset: 0xE79A, size: 0x8, addend: 0x0, symName: __ZNSt3__19use_facetB8ue170006INS_5ctypeIcEEEERKT_RKNS_6localeE, symObjAddr: 0x31C0, symBinAddr: 0x1000052D8, symSize: 0x2C }
  - { offsetInCU: 0xF693, offset: 0xF693, size: 0x8, addend: 0x0, symName: __ZNSt3__119__libcpp_deallocateB8ue170006EPvmm, symObjAddr: 0x400C, symBinAddr: 0x100006124, symSize: 0x60 }
  - { offsetInCU: 0xF6FE, offset: 0xF6FE, size: 0x8, addend: 0x0, symName: __ZNSt3__124__is_overaligned_for_newB8ue170006Em, symObjAddr: 0x406C, symBinAddr: 0x100006184, symSize: 0x20 }
  - { offsetInCU: 0xF72E, offset: 0xF72E, size: 0x8, addend: 0x0, symName: __ZNSt3__127__do_deallocate_handle_sizeB8ue170006IJSt11align_val_tEEEvPvmDpT_, symObjAddr: 0x408C, symBinAddr: 0x1000061A4, symSize: 0x30 }
  - { offsetInCU: 0xF786, offset: 0xF786, size: 0x8, addend: 0x0, symName: __ZNSt3__127__do_deallocate_handle_sizeB8ue170006IJEEEvPvmDpT_, symObjAddr: 0x40BC, symBinAddr: 0x1000061D4, symSize: 0x28 }
  - { offsetInCU: 0xF7C8, offset: 0xF7C8, size: 0x8, addend: 0x0, symName: __ZNSt3__124__libcpp_operator_deleteB8ue170006IJPvSt11align_val_tEEEvDpT_, symObjAddr: 0x40E4, symBinAddr: 0x1000061FC, symSize: 0x2C }
  - { offsetInCU: 0xF815, offset: 0xF815, size: 0x8, addend: 0x0, symName: __ZNSt3__124__libcpp_operator_deleteB8ue170006IJPvEEEvDpT_, symObjAddr: 0x4110, symBinAddr: 0x100006228, symSize: 0x24 }
  - { offsetInCU: 0xF84C, offset: 0xF84C, size: 0x8, addend: 0x0, symName: __ZNSt3__134__libcpp_atomic_refcount_decrementB8ue170006IlEET_RS1_, symObjAddr: 0x4344, symBinAddr: 0x10000645C, symSize: 0x30 }
  - { offsetInCU: 0xF881, offset: 0xF881, size: 0x8, addend: 0x0, symName: __ZNSt3__134__libcpp_atomic_refcount_incrementB8ue170006IlEET_RS1_, symObjAddr: 0x4430, symBinAddr: 0x100006548, symSize: 0x30 }
  - { offsetInCU: 0x1099C, offset: 0x1099C, size: 0x8, addend: 0x0, symName: __ZN5boost6system6detail17system_cat_holderIvE8instanceE, symObjAddr: 0x5050, symBinAddr: 0x10000C0A8, symSize: 0x0 }
  - { offsetInCU: 0x109F0, offset: 0x109F0, size: 0x8, addend: 0x0, symName: __ZN5boost4asio3ssl6detail17openssl_init_base8instanceEv, symObjAddr: 0x32F4, symBinAddr: 0x10000540C, symSize: 0x108 }
  - { offsetInCU: 0x10A11, offset: 0x10A11, size: 0x8, addend: 0x0, symName: __ZZN5boost4asio3ssl6detail17openssl_init_base8instanceEvE4init, symObjAddr: 0x51A8, symBinAddr: 0x10000C200, symSize: 0x0 }
  - { offsetInCU: 0x13275, offset: 0x13275, size: 0x8, addend: 0x0, symName: __ZN15AlpacaWebSocketC2Ev, symObjAddr: 0x38, symBinAddr: 0x100002150, symSize: 0x90 }
  - { offsetInCU: 0x132A6, offset: 0x132A6, size: 0x8, addend: 0x0, symName: __ZNSt3__112basic_stringIcNS_11char_traitsIcEENS_9allocatorIcEEEC1B8ue170006ILi0EEEPKc, symObjAddr: 0xC8, symBinAddr: 0x1000021E0, symSize: 0x34 }
  - { offsetInCU: 0x132E6, offset: 0x132E6, size: 0x8, addend: 0x0, symName: __ZNSt3__113basic_ostreamIcNS_11char_traitsIcEEElsB8ue170006EPFRS3_S4_E, symObjAddr: 0x144, symBinAddr: 0x10000225C, symSize: 0x2C }
  - { offsetInCU: 0x1331A, offset: 0x1331A, size: 0x8, addend: 0x0, symName: __ZN15AlpacaWebSocketC1Ev, symObjAddr: 0x1C8, symBinAddr: 0x1000022E0, symSize: 0x2C }
  - { offsetInCU: 0x13346, offset: 0x13346, size: 0x8, addend: 0x0, symName: __ZN15AlpacaWebSocketD2Ev, symObjAddr: 0x1F4, symBinAddr: 0x10000230C, symSize: 0x88 }
  - { offsetInCU: 0x13372, offset: 0x13372, size: 0x8, addend: 0x0, symName: __ZN15AlpacaWebSocket10disconnectEv, symObjAddr: 0x27C, symBinAddr: 0x100002394, symSize: 0x50 }
  - { offsetInCU: 0x1339A, offset: 0x1339A, size: 0x8, addend: 0x0, symName: __ZN15AlpacaWebSocketD1Ev, symObjAddr: 0x2D8, symBinAddr: 0x1000023F0, symSize: 0x2C }
  - { offsetInCU: 0x133C6, offset: 0x133C6, size: 0x8, addend: 0x0, symName: __ZN15AlpacaWebSocket7connectERKNSt3__112basic_stringIcNS0_11char_traitsIcEENS0_9allocatorIcEEEE, symObjAddr: 0x31C, symBinAddr: 0x100002434, symSize: 0x58 }
  - { offsetInCU: 0x133FC, offset: 0x133FC, size: 0x8, addend: 0x0, symName: _main, symObjAddr: 0x3C0, symBinAddr: 0x1000024D8, symSize: 0xA8 }
  - { offsetInCU: 0x13425, offset: 0x13425, size: 0x8, addend: 0x0, symName: __ZN5boost4asio6detail7tss_ptrINS1_10call_stackINS1_14thread_contextENS1_16thread_info_baseEE7contextEEC1Ev, symObjAddr: 0x468, symBinAddr: 0x100002580, symSize: 0x2C }
  - { offsetInCU: 0x13451, offset: 0x13451, size: 0x8, addend: 0x0, symName: __ZN5boost4asio6detail7tss_ptrINS1_10call_stackINS1_14thread_contextENS1_16thread_info_baseEE7contextEED1Ev, symObjAddr: 0x494, symBinAddr: 0x1000025AC, symSize: 0x2C }
  - { offsetInCU: 0x13482, offset: 0x13482, size: 0x8, addend: 0x0, symName: __ZN5boost4asio6detail10service_idINS0_14config_serviceEEC1Ev, symObjAddr: 0x4C0, symBinAddr: 0x1000025D8, symSize: 0x2C }
  - { offsetInCU: 0x134AF, offset: 0x134AF, size: 0x8, addend: 0x0, symName: __ZN5boost4asio6detail10service_idINS0_14config_serviceEED1Ev, symObjAddr: 0x4EC, symBinAddr: 0x100002604, symSize: 0x2C }
  - { offsetInCU: 0x134E1, offset: 0x134E1, size: 0x8, addend: 0x0, symName: __ZN5boost4asio6detail10service_idINS1_9schedulerEEC1Ev, symObjAddr: 0x518, symBinAddr: 0x100002630, symSize: 0x2C }
  - { offsetInCU: 0x1350E, offset: 0x1350E, size: 0x8, addend: 0x0, symName: __ZN5boost4asio6detail10service_idINS1_9schedulerEED1Ev, symObjAddr: 0x544, symBinAddr: 0x10000265C, symSize: 0x2C }
  - { offsetInCU: 0x13540, offset: 0x13540, size: 0x8, addend: 0x0, symName: __ZN5boost4asio6detail10service_idINS1_14kqueue_reactorEEC1Ev, symObjAddr: 0x570, symBinAddr: 0x100002688, symSize: 0x2C }
  - { offsetInCU: 0x1356D, offset: 0x1356D, size: 0x8, addend: 0x0, symName: __ZN5boost4asio6detail10service_idINS1_14kqueue_reactorEED1Ev, symObjAddr: 0x59C, symBinAddr: 0x1000026B4, symSize: 0x2C }
  - { offsetInCU: 0x1359A, offset: 0x1359A, size: 0x8, addend: 0x0, symName: __ZN5boost4asio6detail7tss_ptrINS1_10call_stackINS1_14strand_service11strand_implEhE7contextEEC1Ev, symObjAddr: 0x5C8, symBinAddr: 0x1000026E0, symSize: 0x2C }
  - { offsetInCU: 0x135C6, offset: 0x135C6, size: 0x8, addend: 0x0, symName: __ZN5boost4asio6detail7tss_ptrINS1_10call_stackINS1_14strand_service11strand_implEhE7contextEED1Ev, symObjAddr: 0x5F4, symBinAddr: 0x10000270C, symSize: 0x2C }
  - { offsetInCU: 0x135F7, offset: 0x135F7, size: 0x8, addend: 0x0, symName: __ZN5boost4asio6detail10service_idINS1_14strand_serviceEEC1Ev, symObjAddr: 0x620, symBinAddr: 0x100002738, symSize: 0x2C }
  - { offsetInCU: 0x13624, offset: 0x13624, size: 0x8, addend: 0x0, symName: __ZN5boost4asio6detail10service_idINS1_14strand_serviceEED1Ev, symObjAddr: 0x64C, symBinAddr: 0x100002764, symSize: 0x2C }
  - { offsetInCU: 0x13651, offset: 0x13651, size: 0x8, addend: 0x0, symName: __ZN5boost4asio6detail7tss_ptrINS1_10call_stackINS1_23strand_executor_service11strand_implEhE7contextEEC1Ev, symObjAddr: 0x678, symBinAddr: 0x100002790, symSize: 0x2C }
  - { offsetInCU: 0x1367D, offset: 0x1367D, size: 0x8, addend: 0x0, symName: __ZN5boost4asio6detail7tss_ptrINS1_10call_stackINS1_23strand_executor_service11strand_implEhE7contextEED1Ev, symObjAddr: 0x6A4, symBinAddr: 0x1000027BC, symSize: 0x2C }
  - { offsetInCU: 0x136A9, offset: 0x136A9, size: 0x8, addend: 0x0, symName: __ZN5boost4asio6detail17posix_global_implINS0_14system_contextEED1Ev, symObjAddr: 0x6D0, symBinAddr: 0x1000027E8, symSize: 0x2C }
  - { offsetInCU: 0x136D3, offset: 0x136D3, size: 0x8, addend: 0x0, symName: __ZN5boost4asio17execution_context2idC1Ev, symObjAddr: 0x6FC, symBinAddr: 0x100002814, symSize: 0x2C }
  - { offsetInCU: 0x136FD, offset: 0x136FD, size: 0x8, addend: 0x0, symName: __ZN5boost4asio17execution_context2idD1Ev, symObjAddr: 0x728, symBinAddr: 0x100002840, symSize: 0x2C }
  - { offsetInCU: 0x1372A, offset: 0x1372A, size: 0x8, addend: 0x0, symName: __ZN5boost4asio3ssl6detail12openssl_initILb1EEC1Ev, symObjAddr: 0x754, symBinAddr: 0x10000286C, symSize: 0x2C }
  - { offsetInCU: 0x13754, offset: 0x13754, size: 0x8, addend: 0x0, symName: __ZN5boost4asio3ssl6detail12openssl_initILb1EED1Ev, symObjAddr: 0x780, symBinAddr: 0x100002898, symSize: 0x2C }
  - { offsetInCU: 0x1377E, offset: 0x1377E, size: 0x8, addend: 0x0, symName: __ZNK5boost6system6detail21system_error_category4nameEv, symObjAddr: 0x7B8, symBinAddr: 0x1000028D0, symSize: 0x18 }
  - { offsetInCU: 0x137A4, offset: 0x137A4, size: 0x8, addend: 0x0, symName: __ZNK5boost6system6detail21system_error_category23default_error_conditionEi, symObjAddr: 0x7D0, symBinAddr: 0x1000028E8, symSize: 0x4C }
  - { offsetInCU: 0x137DA, offset: 0x137DA, size: 0x8, addend: 0x0, symName: __ZNK5boost6system14error_category10equivalentEiRKNS0_15error_conditionE, symObjAddr: 0x81C, symBinAddr: 0x100002934, symSize: 0x54 }
  - { offsetInCU: 0x1381E, offset: 0x1381E, size: 0x8, addend: 0x0, symName: __ZNK5boost6system14error_category10equivalentERKNS0_10error_codeEi, symObjAddr: 0x870, symBinAddr: 0x100002988, symSize: 0x38 }
  - { offsetInCU: 0x13862, offset: 0x13862, size: 0x8, addend: 0x0, symName: __ZNK5boost6system6detail21system_error_category7messageEi, symObjAddr: 0x8A8, symBinAddr: 0x1000029C0, symSize: 0x30 }
  - { offsetInCU: 0x13898, offset: 0x13898, size: 0x8, addend: 0x0, symName: __ZNK5boost6system6detail21system_error_category7messageEiPcm, symObjAddr: 0x8D8, symBinAddr: 0x1000029F0, symSize: 0x38 }
  - { offsetInCU: 0x138EA, offset: 0x138EA, size: 0x8, addend: 0x0, symName: __ZNK5boost6system14error_category6failedEi, symObjAddr: 0x910, symBinAddr: 0x100002A28, symSize: 0x24 }
  - { offsetInCU: 0x1391E, offset: 0x1391E, size: 0x8, addend: 0x0, symName: __ZN5boost6system6detail17generic_value_tagC1Ei, symObjAddr: 0x934, symBinAddr: 0x100002A4C, symSize: 0x34 }
  - { offsetInCU: 0x13956, offset: 0x13956, size: 0x8, addend: 0x0, symName: __ZN5boost6system15error_conditionC1ENS0_6detail17generic_value_tagE, symObjAddr: 0x968, symBinAddr: 0x100002A80, symSize: 0x3C }
  - { offsetInCU: 0x1398E, offset: 0x1398E, size: 0x8, addend: 0x0, symName: __ZN5boost6system6detail17generic_value_tagC2Ei, symObjAddr: 0x9A4, symBinAddr: 0x100002ABC, symSize: 0x20 }
  - { offsetInCU: 0x139C6, offset: 0x139C6, size: 0x8, addend: 0x0, symName: __ZN5boost6system15error_conditionC2ENS0_6detail17generic_value_tagE, symObjAddr: 0x9C4, symBinAddr: 0x100002ADC, symSize: 0x28 }
  - { offsetInCU: 0x139FE, offset: 0x139FE, size: 0x8, addend: 0x0, symName: __ZNK5boost6system15error_condition6cat_idEv, symObjAddr: 0xAF8, symBinAddr: 0x100002C10, symSize: 0x5C }
  - { offsetInCU: 0x13A24, offset: 0x13A24, size: 0x8, addend: 0x0, symName: __ZNK5boost6system10error_code6equalsEiRKNS0_14error_categoryE, symObjAddr: 0xBC0, symBinAddr: 0x100002CD8, symSize: 0x170 }
  - { offsetInCU: 0x13A6A, offset: 0x13A6A, size: 0x8, addend: 0x0, symName: __ZNK5boost6system10error_code5valueEv, symObjAddr: 0xD30, symBinAddr: 0x100002E48, symSize: 0x9C }
  - { offsetInCU: 0x13AC9, offset: 0x13AC9, size: 0x8, addend: 0x0, symName: __ZNKSt3__110error_code5valueB8ue170006Ev, symObjAddr: 0xDCC, symBinAddr: 0x100002EE4, symSize: 0x18 }
  - { offsetInCU: 0x13AEF, offset: 0x13AEF, size: 0x8, addend: 0x0, symName: __ZNKSt3__110error_code8categoryB8ue170006Ev, symObjAddr: 0xDE4, symBinAddr: 0x100002EFC, symSize: 0x18 }
  - { offsetInCU: 0x13B15, offset: 0x13B15, size: 0x8, addend: 0x0, symName: __ZNK5boost4asio5error6detail14netdb_category4nameEv, symObjAddr: 0xFB0, symBinAddr: 0x1000030C8, symSize: 0x18 }
  - { offsetInCU: 0x13B3B, offset: 0x13B3B, size: 0x8, addend: 0x0, symName: __ZNK5boost6system14error_category23default_error_conditionEi, symObjAddr: 0xFC8, symBinAddr: 0x1000030E0, symSize: 0x38 }
  - { offsetInCU: 0x13B71, offset: 0x13B71, size: 0x8, addend: 0x0, symName: __ZNK5boost4asio5error6detail14netdb_category7messageEi, symObjAddr: 0x1000, symBinAddr: 0x100003118, symSize: 0xDC }
  - { offsetInCU: 0x13BA5, offset: 0x13BA5, size: 0x8, addend: 0x0, symName: __ZNK5boost6system14error_category7messageEiPcm, symObjAddr: 0x10DC, symBinAddr: 0x1000031F4, symSize: 0x158 }
  - { offsetInCU: 0x13BF7, offset: 0x13BF7, size: 0x8, addend: 0x0, symName: __ZN5boost6system15error_conditionC1EiRKNS0_14error_categoryE, symObjAddr: 0x1234, symBinAddr: 0x10000334C, symSize: 0x3C }
  - { offsetInCU: 0x13C3D, offset: 0x13C3D, size: 0x8, addend: 0x0, symName: __ZN5boost6system15error_conditionC2EiRKNS0_14error_categoryE, symObjAddr: 0x1270, symBinAddr: 0x100003388, symSize: 0x2C }
  - { offsetInCU: 0x13C83, offset: 0x13C83, size: 0x8, addend: 0x0, symName: __ZNKSt3__112basic_stringIcNS_11char_traitsIcEENS_9allocatorIcEEE5c_strB8ue170006Ev, symObjAddr: 0x129C, symBinAddr: 0x1000033B4, symSize: 0x24 }
  - { offsetInCU: 0x13CA9, offset: 0x13CA9, size: 0x8, addend: 0x0, symName: __ZNKSt3__112basic_stringIcNS_11char_traitsIcEENS_9allocatorIcEEE4dataB8ue170006Ev, symObjAddr: 0x12C0, symBinAddr: 0x1000033D8, symSize: 0x28 }
  - { offsetInCU: 0x13CCF, offset: 0x13CCF, size: 0x8, addend: 0x0, symName: __ZNKSt3__112basic_stringIcNS_11char_traitsIcEENS_9allocatorIcEEE13__get_pointerB8ue170006Ev, symObjAddr: 0x12FC, symBinAddr: 0x100003414, symSize: 0x54 }
  - { offsetInCU: 0x13CF5, offset: 0x13CF5, size: 0x8, addend: 0x0, symName: __ZNKSt3__112basic_stringIcNS_11char_traitsIcEENS_9allocatorIcEEE9__is_longB8ue170006Ev, symObjAddr: 0x1350, symBinAddr: 0x100003468, symSize: 0x38 }
  - { offsetInCU: 0x13D1B, offset: 0x13D1B, size: 0x8, addend: 0x0, symName: __ZNKSt3__112basic_stringIcNS_11char_traitsIcEENS_9allocatorIcEEE18__get_long_pointerB8ue170006Ev, symObjAddr: 0x1388, symBinAddr: 0x1000034A0, symSize: 0x28 }
  - { offsetInCU: 0x13D41, offset: 0x13D41, size: 0x8, addend: 0x0, symName: __ZNKSt3__112basic_stringIcNS_11char_traitsIcEENS_9allocatorIcEEE19__get_short_pointerB8ue170006Ev, symObjAddr: 0x13B0, symBinAddr: 0x1000034C8, symSize: 0x28 }
  - { offsetInCU: 0x13D67, offset: 0x13D67, size: 0x8, addend: 0x0, symName: __ZNKSt3__117__compressed_pairINS_12basic_stringIcNS_11char_traitsIcEENS_9allocatorIcEEE5__repES5_E5firstB8ue170006Ev, symObjAddr: 0x13D8, symBinAddr: 0x1000034F0, symSize: 0x24 }
  - { offsetInCU: 0x13D8D, offset: 0x13D8D, size: 0x8, addend: 0x0, symName: __ZNKSt3__122__compressed_pair_elemINS_12basic_stringIcNS_11char_traitsIcEENS_9allocatorIcEEE5__repELi0ELb0EE5__getB8ue170006Ev, symObjAddr: 0x13FC, symBinAddr: 0x100003514, symSize: 0x14 }
  - { offsetInCU: 0x13DB3, offset: 0x13DB3, size: 0x8, addend: 0x0, symName: __ZNSt3__114pointer_traitsIPKcE10pointer_toB8ue170006ERS1_, symObjAddr: 0x1410, symBinAddr: 0x100003528, symSize: 0x14 }
  - { offsetInCU: 0x13DD6, offset: 0x13DD6, size: 0x8, addend: 0x0, symName: __ZNK5boost4asio5error6detail17addrinfo_category4nameEv, symObjAddr: 0x1424, symBinAddr: 0x10000353C, symSize: 0x18 }
  - { offsetInCU: 0x13DFC, offset: 0x13DFC, size: 0x8, addend: 0x0, symName: __ZNK5boost4asio5error6detail17addrinfo_category7messageEi, symObjAddr: 0x143C, symBinAddr: 0x100003554, symSize: 0x8C }
  - { offsetInCU: 0x13E30, offset: 0x13E30, size: 0x8, addend: 0x0, symName: __ZNK5boost4asio5error6detail13misc_category4nameEv, symObjAddr: 0x14C8, symBinAddr: 0x1000035E0, symSize: 0x18 }
  - { offsetInCU: 0x13E56, offset: 0x13E56, size: 0x8, addend: 0x0, symName: __ZNK5boost4asio5error6detail13misc_category7messageEi, symObjAddr: 0x14E0, symBinAddr: 0x1000035F8, symSize: 0xDC }
  - { offsetInCU: 0x13E8A, offset: 0x13E8A, size: 0x8, addend: 0x0, symName: __ZNSt3__112basic_stringIcNS_11char_traitsIcEENS_9allocatorIcEEEC2B8ue170006ILi0EEEPKc, symObjAddr: 0x15BC, symBinAddr: 0x1000036D4, symSize: 0x58 }
  - { offsetInCU: 0x13ED0, offset: 0x13ED0, size: 0x8, addend: 0x0, symName: __ZNSt3__117__compressed_pairINS_12basic_stringIcNS_11char_traitsIcEENS_9allocatorIcEEE5__repES5_EC1B8ue170006INS_18__default_init_tagESA_EEOT_OT0_, symObjAddr: 0x1614, symBinAddr: 0x10000372C, symSize: 0x3C }
  - { offsetInCU: 0x13F28, offset: 0x13F28, size: 0x8, addend: 0x0, symName: __ZNSt3__111char_traitsIcE6lengthB8ue170006EPKc, symObjAddr: 0x1650, symBinAddr: 0x100003768, symSize: 0x34 }
  - { offsetInCU: 0x13F4B, offset: 0x13F4B, size: 0x8, addend: 0x0, symName: __ZNSt3__117__compressed_pairINS_12basic_stringIcNS_11char_traitsIcEENS_9allocatorIcEEE5__repES5_EC2B8ue170006INS_18__default_init_tagESA_EEOT_OT0_, symObjAddr: 0x1684, symBinAddr: 0x10000379C, symSize: 0x3C }
  - { offsetInCU: 0x13FA3, offset: 0x13FA3, size: 0x8, addend: 0x0, symName: __ZNSt3__122__compressed_pair_elemINS_12basic_stringIcNS_11char_traitsIcEENS_9allocatorIcEEE5__repELi0ELb0EEC2B8ue170006ENS_18__default_init_tagE, symObjAddr: 0x16C0, symBinAddr: 0x1000037D8, symSize: 0x14 }
  - { offsetInCU: 0x13FD8, offset: 0x13FD8, size: 0x8, addend: 0x0, symName: __ZNSt3__122__compressed_pair_elemINS_9allocatorIcEELi1ELb1EEC2B8ue170006ENS_18__default_init_tagE, symObjAddr: 0x16D4, symBinAddr: 0x1000037EC, symSize: 0x2C }
  - { offsetInCU: 0x1400D, offset: 0x1400D, size: 0x8, addend: 0x0, symName: __ZNSt3__19allocatorIcEC2B8ue170006Ev, symObjAddr: 0x1700, symBinAddr: 0x100003818, symSize: 0x2C }
  - { offsetInCU: 0x14037, offset: 0x14037, size: 0x8, addend: 0x0, symName: __ZNSt3__116__non_trivial_ifILb1ENS_9allocatorIcEEEC2B8ue170006Ev, symObjAddr: 0x172C, symBinAddr: 0x100003844, symSize: 0x14 }
  - { offsetInCU: 0x14061, offset: 0x14061, size: 0x8, addend: 0x0, symName: __ZNK5boost4asio5error6detail12ssl_category4nameEv, symObjAddr: 0x1764, symBinAddr: 0x10000387C, symSize: 0x18 }
  - { offsetInCU: 0x14087, offset: 0x14087, size: 0x8, addend: 0x0, symName: __ZNK5boost4asio5error6detail12ssl_category7messageEi, symObjAddr: 0x177C, symBinAddr: 0x100003894, symSize: 0x1C0 }
  - { offsetInCU: 0x140FB, offset: 0x140FB, size: 0x8, addend: 0x0, symName: __ZNSt3__112basic_stringIcNS_11char_traitsIcEENS_9allocatorIcEEEpLB8ue170006EPKc, symObjAddr: 0x193C, symBinAddr: 0x100003A54, symSize: 0x2C }
  - { offsetInCU: 0x14131, offset: 0x14131, size: 0x8, addend: 0x0, symName: __ZNK5boost4asio3ssl5error6detail15stream_category4nameEv, symObjAddr: 0x1968, symBinAddr: 0x100003A80, symSize: 0x18 }
  - { offsetInCU: 0x14157, offset: 0x14157, size: 0x8, addend: 0x0, symName: __ZNK5boost4asio3ssl5error6detail15stream_category7messageEi, symObjAddr: 0x1980, symBinAddr: 0x100003A98, symSize: 0xB8 }
  - { offsetInCU: 0x1418B, offset: 0x1418B, size: 0x8, addend: 0x0, symName: __ZN5boost4asio6detail7tss_ptrINS1_10call_stackINS1_14thread_contextENS1_16thread_info_baseEE7contextEEC2Ev, symObjAddr: 0x1A38, symBinAddr: 0x100003B50, symSize: 0x2C }
  - { offsetInCU: 0x141B7, offset: 0x141B7, size: 0x8, addend: 0x0, symName: __ZN5boost4asio6detail15keyword_tss_ptrINS1_10call_stackINS1_14thread_contextENS1_16thread_info_baseEE7contextEEC2Ev, symObjAddr: 0x1A64, symBinAddr: 0x100003B7C, symSize: 0x2C }
  - { offsetInCU: 0x141E1, offset: 0x141E1, size: 0x8, addend: 0x0, symName: __ZN5boost4asio6detail11noncopyableC2Ev, symObjAddr: 0x1A90, symBinAddr: 0x100003BA8, symSize: 0x14 }
  - { offsetInCU: 0x1420B, offset: 0x1420B, size: 0x8, addend: 0x0, symName: __ZN5boost4asio6detail7tss_ptrINS1_10call_stackINS1_14thread_contextENS1_16thread_info_baseEE7contextEED2Ev, symObjAddr: 0x1AA4, symBinAddr: 0x100003BBC, symSize: 0x2C }
  - { offsetInCU: 0x14237, offset: 0x14237, size: 0x8, addend: 0x0, symName: __ZN5boost4asio6detail15keyword_tss_ptrINS1_10call_stackINS1_14thread_contextENS1_16thread_info_baseEE7contextEED2Ev, symObjAddr: 0x1AD0, symBinAddr: 0x100003BE8, symSize: 0x2C }
  - { offsetInCU: 0x14261, offset: 0x14261, size: 0x8, addend: 0x0, symName: __ZN5boost4asio6detail11noncopyableD2Ev, symObjAddr: 0x1AFC, symBinAddr: 0x100003C14, symSize: 0x14 }
  - { offsetInCU: 0x1428B, offset: 0x1428B, size: 0x8, addend: 0x0, symName: __ZN5boost4asio6detail10service_idINS0_14config_serviceEEC2Ev, symObjAddr: 0x1B10, symBinAddr: 0x100003C28, symSize: 0x2C }
  - { offsetInCU: 0x142B8, offset: 0x142B8, size: 0x8, addend: 0x0, symName: __ZN5boost4asio17execution_context2idC2Ev, symObjAddr: 0x1B3C, symBinAddr: 0x100003C54, symSize: 0x2C }
  - { offsetInCU: 0x142E2, offset: 0x142E2, size: 0x8, addend: 0x0, symName: __ZN5boost4asio6detail10service_idINS0_14config_serviceEED2Ev, symObjAddr: 0x1B68, symBinAddr: 0x100003C80, symSize: 0x2C }
  - { offsetInCU: 0x1430F, offset: 0x1430F, size: 0x8, addend: 0x0, symName: __ZN5boost4asio17execution_context2idD2Ev, symObjAddr: 0x1B94, symBinAddr: 0x100003CAC, symSize: 0x2C }
  - { offsetInCU: 0x1433C, offset: 0x1433C, size: 0x8, addend: 0x0, symName: __ZN5boost4asio6detail10service_idINS1_9schedulerEEC2Ev, symObjAddr: 0x1BC0, symBinAddr: 0x100003CD8, symSize: 0x2C }
  - { offsetInCU: 0x14369, offset: 0x14369, size: 0x8, addend: 0x0, symName: __ZN5boost4asio6detail10service_idINS1_9schedulerEED2Ev, symObjAddr: 0x1BEC, symBinAddr: 0x100003D04, symSize: 0x2C }
  - { offsetInCU: 0x14396, offset: 0x14396, size: 0x8, addend: 0x0, symName: __ZN5boost4asio6detail10service_idINS1_14kqueue_reactorEEC2Ev, symObjAddr: 0x1C18, symBinAddr: 0x100003D30, symSize: 0x2C }
  - { offsetInCU: 0x143C3, offset: 0x143C3, size: 0x8, addend: 0x0, symName: __ZN5boost4asio6detail10service_idINS1_14kqueue_reactorEED2Ev, symObjAddr: 0x1C44, symBinAddr: 0x100003D5C, symSize: 0x2C }
  - { offsetInCU: 0x143F0, offset: 0x143F0, size: 0x8, addend: 0x0, symName: __ZN5boost4asio6detail7tss_ptrINS1_10call_stackINS1_14strand_service11strand_implEhE7contextEEC2Ev, symObjAddr: 0x1C70, symBinAddr: 0x100003D88, symSize: 0x2C }
  - { offsetInCU: 0x1441C, offset: 0x1441C, size: 0x8, addend: 0x0, symName: __ZN5boost4asio6detail15keyword_tss_ptrINS1_10call_stackINS1_14strand_service11strand_implEhE7contextEEC2Ev, symObjAddr: 0x1C9C, symBinAddr: 0x100003DB4, symSize: 0x2C }
  - { offsetInCU: 0x14446, offset: 0x14446, size: 0x8, addend: 0x0, symName: __ZN5boost4asio6detail7tss_ptrINS1_10call_stackINS1_14strand_service11strand_implEhE7contextEED2Ev, symObjAddr: 0x1CC8, symBinAddr: 0x100003DE0, symSize: 0x2C }
  - { offsetInCU: 0x14472, offset: 0x14472, size: 0x8, addend: 0x0, symName: __ZN5boost4asio6detail15keyword_tss_ptrINS1_10call_stackINS1_14strand_service11strand_implEhE7contextEED2Ev, symObjAddr: 0x1CF4, symBinAddr: 0x100003E0C, symSize: 0x2C }
  - { offsetInCU: 0x1449C, offset: 0x1449C, size: 0x8, addend: 0x0, symName: __ZN5boost4asio6detail10service_idINS1_14strand_serviceEEC2Ev, symObjAddr: 0x1D20, symBinAddr: 0x100003E38, symSize: 0x2C }
  - { offsetInCU: 0x144C9, offset: 0x144C9, size: 0x8, addend: 0x0, symName: __ZN5boost4asio6detail10service_idINS1_14strand_serviceEED2Ev, symObjAddr: 0x1D4C, symBinAddr: 0x100003E64, symSize: 0x2C }
  - { offsetInCU: 0x144F6, offset: 0x144F6, size: 0x8, addend: 0x0, symName: __ZN5boost4asio6detail7tss_ptrINS1_10call_stackINS1_23strand_executor_service11strand_implEhE7contextEEC2Ev, symObjAddr: 0x1D78, symBinAddr: 0x100003E90, symSize: 0x2C }
  - { offsetInCU: 0x14522, offset: 0x14522, size: 0x8, addend: 0x0, symName: __ZN5boost4asio6detail15keyword_tss_ptrINS1_10call_stackINS1_23strand_executor_service11strand_implEhE7contextEEC2Ev, symObjAddr: 0x1DA4, symBinAddr: 0x100003EBC, symSize: 0x2C }
  - { offsetInCU: 0x1454C, offset: 0x1454C, size: 0x8, addend: 0x0, symName: __ZN5boost4asio6detail7tss_ptrINS1_10call_stackINS1_23strand_executor_service11strand_implEhE7contextEED2Ev, symObjAddr: 0x1DD0, symBinAddr: 0x100003EE8, symSize: 0x2C }
  - { offsetInCU: 0x14578, offset: 0x14578, size: 0x8, addend: 0x0, symName: __ZN5boost4asio6detail15keyword_tss_ptrINS1_10call_stackINS1_23strand_executor_service11strand_implEhE7contextEED2Ev, symObjAddr: 0x1DFC, symBinAddr: 0x100003F14, symSize: 0x2C }
  - { offsetInCU: 0x145A2, offset: 0x145A2, size: 0x8, addend: 0x0, symName: __ZN5boost4asio6detail17posix_global_implINS0_14system_contextEED2Ev, symObjAddr: 0x1E28, symBinAddr: 0x100003F40, symSize: 0x5C }
  - { offsetInCU: 0x145CC, offset: 0x145CC, size: 0x8, addend: 0x0, symName: __ZN5boost4asio14system_contextD1Ev, symObjAddr: 0x1E84, symBinAddr: 0x100003F9C, symSize: 0x2C }
  - { offsetInCU: 0x145F8, offset: 0x145F8, size: 0x8, addend: 0x0, symName: __ZN5boost4asio14system_contextD2Ev, symObjAddr: 0x1EB0, symBinAddr: 0x100003FC8, symSize: 0x6C }
  - { offsetInCU: 0x14624, offset: 0x14624, size: 0x8, addend: 0x0, symName: __ZN5boost4asio6detail9scheduler13work_finishedEv, symObjAddr: 0x1F1C, symBinAddr: 0x100004034, symSize: 0x48 }
  - { offsetInCU: 0x1464A, offset: 0x1464A, size: 0x8, addend: 0x0, symName: __ZN5boost4asio6detail9scheduler4stopEv, symObjAddr: 0x1F64, symBinAddr: 0x10000407C, symSize: 0x6C }
  - { offsetInCU: 0x14683, offset: 0x14683, size: 0x8, addend: 0x0, symName: __ZN5boost4asio6detail12thread_group4joinEv, symObjAddr: 0x1FD0, symBinAddr: 0x1000040E8, symSize: 0x94 }
  - { offsetInCU: 0x146C6, offset: 0x146C6, size: 0x8, addend: 0x0, symName: __ZN5boost4asio6detail12thread_groupD1Ev, symObjAddr: 0x2064, symBinAddr: 0x10000417C, symSize: 0x2C }
  - { offsetInCU: 0x146F0, offset: 0x146F0, size: 0x8, addend: 0x0, symName: __ZN5boost4asio17execution_contextD2Ev, symObjAddr: 0x2090, symBinAddr: 0x1000041A8, symSize: 0x80 }
  - { offsetInCU: 0x1471C, offset: 0x1471C, size: 0x8, addend: 0x0, symName: __ZNSt3__113__atomic_baseIlLb1EEmmB8ue170006Ev, symObjAddr: 0x2110, symBinAddr: 0x100004228, symSize: 0x30 }
  - { offsetInCU: 0x14742, offset: 0x14742, size: 0x8, addend: 0x0, symName: __ZNSt3__113__atomic_baseIlLb1EE9fetch_subB8ue170006ElNS_12memory_orderE, symObjAddr: 0x2140, symBinAddr: 0x100004258, symSize: 0x34 }
  - { offsetInCU: 0x14784, offset: 0x14784, size: 0x8, addend: 0x0, symName: __ZN5boost4asio6detail27conditionally_enabled_mutex11scoped_lockC1ERS2_, symObjAddr: 0x2260, symBinAddr: 0x100004378, symSize: 0x34 }
  - { offsetInCU: 0x147BC, offset: 0x147BC, size: 0x8, addend: 0x0, symName: __ZN5boost4asio6detail9scheduler16stop_all_threadsERNS1_27conditionally_enabled_mutex11scoped_lockE, symObjAddr: 0x2294, symBinAddr: 0x1000043AC, symSize: 0x84 }
  - { offsetInCU: 0x147F5, offset: 0x147F5, size: 0x8, addend: 0x0, symName: __ZN5boost4asio6detail27conditionally_enabled_mutex11scoped_lockD1Ev, symObjAddr: 0x2318, symBinAddr: 0x100004430, symSize: 0x2C }
  - { offsetInCU: 0x1481F, offset: 0x1481F, size: 0x8, addend: 0x0, symName: __ZN5boost4asio6detail27conditionally_enabled_mutex11scoped_lockC2ERS2_, symObjAddr: 0x2344, symBinAddr: 0x10000445C, symSize: 0xA8 }
  - { offsetInCU: 0x14857, offset: 0x14857, size: 0x8, addend: 0x0, symName: __ZN5boost4asio6detail11posix_mutex4lockEv, symObjAddr: 0x23EC, symBinAddr: 0x100004504, symSize: 0x24 }
  - { offsetInCU: 0x1487D, offset: 0x1487D, size: 0x8, addend: 0x0, symName: __ZN5boost4asio6detail27conditionally_enabled_event10signal_allERNS1_27conditionally_enabled_mutex11scoped_lockE, symObjAddr: 0x2410, symBinAddr: 0x100004528, symSize: 0x50 }
  - { offsetInCU: 0x148B1, offset: 0x148B1, size: 0x8, addend: 0x0, symName: __ZN5boost4asio6detail11posix_event10signal_allINS1_27conditionally_enabled_mutex11scoped_lockEEEvRT_, symObjAddr: 0x2460, symBinAddr: 0x100004578, symSize: 0x70 }
  - { offsetInCU: 0x148EE, offset: 0x148EE, size: 0x8, addend: 0x0, symName: __ZNK5boost4asio6detail27conditionally_enabled_mutex11scoped_lock6lockedEv, symObjAddr: 0x24D0, symBinAddr: 0x1000045E8, symSize: 0x1C }
  - { offsetInCU: 0x14914, offset: 0x14914, size: 0x8, addend: 0x0, symName: __ZN5boost4asio6detail27conditionally_enabled_mutex11scoped_lockD2Ev, symObjAddr: 0x24EC, symBinAddr: 0x100004604, symSize: 0x60 }
  - { offsetInCU: 0x1493E, offset: 0x1493E, size: 0x8, addend: 0x0, symName: __ZN5boost4asio6detail11posix_mutex6unlockEv, symObjAddr: 0x254C, symBinAddr: 0x100004664, symSize: 0x24 }
  - { offsetInCU: 0x14964, offset: 0x14964, size: 0x8, addend: 0x0, symName: __ZN5boost4asio6detail12posix_thread4joinEv, symObjAddr: 0x2570, symBinAddr: 0x100004688, symSize: 0x50 }
  - { offsetInCU: 0x14991, offset: 0x14991, size: 0x8, addend: 0x0, symName: __ZN5boost4asio6detail12thread_group4itemD1Ev, symObjAddr: 0x25C0, symBinAddr: 0x1000046D8, symSize: 0x2C }
  - { offsetInCU: 0x149BD, offset: 0x149BD, size: 0x8, addend: 0x0, symName: __ZN5boost4asio6detail12thread_group4itemD2Ev, symObjAddr: 0x25EC, symBinAddr: 0x100004704, symSize: 0x2C }
  - { offsetInCU: 0x149E9, offset: 0x149E9, size: 0x8, addend: 0x0, symName: __ZN5boost4asio6detail12posix_threadD1Ev, symObjAddr: 0x2618, symBinAddr: 0x100004730, symSize: 0x2C }
  - { offsetInCU: 0x14A15, offset: 0x14A15, size: 0x8, addend: 0x0, symName: __ZN5boost4asio6detail12posix_threadD2Ev, symObjAddr: 0x2644, symBinAddr: 0x10000475C, symSize: 0x5C }
  - { offsetInCU: 0x14A41, offset: 0x14A41, size: 0x8, addend: 0x0, symName: __ZN5boost4asio6detail12thread_groupD2Ev, symObjAddr: 0x26A0, symBinAddr: 0x1000047B8, symSize: 0x34 }
  - { offsetInCU: 0x14A6B, offset: 0x14A6B, size: 0x8, addend: 0x0, symName: __ZN5boost4asio17execution_context8shutdownEv, symObjAddr: 0x26D4, symBinAddr: 0x1000047EC, symSize: 0x28 }
  - { offsetInCU: 0x14A93, offset: 0x14A93, size: 0x8, addend: 0x0, symName: __ZN5boost4asio17execution_context7destroyEv, symObjAddr: 0x26FC, symBinAddr: 0x100004814, symSize: 0x28 }
  - { offsetInCU: 0x14ABB, offset: 0x14ABB, size: 0x8, addend: 0x0, symName: __ZN5boost4asio6detail16service_registryD1Ev, symObjAddr: 0x2724, symBinAddr: 0x10000483C, symSize: 0x2C }
  - { offsetInCU: 0x14AE7, offset: 0x14AE7, size: 0x8, addend: 0x0, symName: __ZN5boost4asio6detail16service_registry17shutdown_servicesEv, symObjAddr: 0x2750, symBinAddr: 0x100004868, symSize: 0x60 }
  - { offsetInCU: 0x14B1D, offset: 0x14B1D, size: 0x8, addend: 0x0, symName: __ZN5boost4asio6detail16service_registry16destroy_servicesEv, symObjAddr: 0x27B0, symBinAddr: 0x1000048C8, symSize: 0x68 }
  - { offsetInCU: 0x14B62, offset: 0x14B62, size: 0x8, addend: 0x0, symName: __ZN5boost4asio6detail16service_registry7destroyEPNS0_17execution_context7serviceE, symObjAddr: 0x2818, symBinAddr: 0x100004930, symSize: 0x48 }
  - { offsetInCU: 0x14B87, offset: 0x14B87, size: 0x8, addend: 0x0, symName: __ZN5boost4asio6detail16service_registryD2Ev, symObjAddr: 0x2860, symBinAddr: 0x100004978, symSize: 0x38 }
  - { offsetInCU: 0x14BB3, offset: 0x14BB3, size: 0x8, addend: 0x0, symName: __ZN5boost4asio6detail11posix_mutexD1Ev, symObjAddr: 0x2898, symBinAddr: 0x1000049B0, symSize: 0x2C }
  - { offsetInCU: 0x14BDD, offset: 0x14BDD, size: 0x8, addend: 0x0, symName: __ZN5boost4asio6detail11posix_mutexD2Ev, symObjAddr: 0x28C4, symBinAddr: 0x1000049DC, symSize: 0x3C }
  - { offsetInCU: 0x14C25, offset: 0x14C25, size: 0x8, addend: 0x0, symName: __ZNKSt3__113basic_ostreamIcNS_11char_traitsIcEEE6sentrycvbB8ue170006Ev, symObjAddr: 0x2AEC, symBinAddr: 0x100004C04, symSize: 0x1C }
  - { offsetInCU: 0x14C4B, offset: 0x14C4B, size: 0x8, addend: 0x0, symName: __ZNSt3__119ostreambuf_iteratorIcNS_11char_traitsIcEEEC1B8ue170006ERNS_13basic_ostreamIcS2_EE, symObjAddr: 0x2D48, symBinAddr: 0x100004E60, symSize: 0x34 }
  - { offsetInCU: 0x14C83, offset: 0x14C83, size: 0x8, addend: 0x0, symName: __ZNKSt3__18ios_base5flagsB8ue170006Ev, symObjAddr: 0x2D7C, symBinAddr: 0x100004E94, symSize: 0x18 }
  - { offsetInCU: 0x14CAB, offset: 0x14CAB, size: 0x8, addend: 0x0, symName: __ZNKSt3__19basic_iosIcNS_11char_traitsIcEEE4fillB8ue170006Ev, symObjAddr: 0x2D94, symBinAddr: 0x100004EAC, symSize: 0x64 }
  - { offsetInCU: 0x14CD3, offset: 0x14CD3, size: 0x8, addend: 0x0, symName: __ZNKSt3__119ostreambuf_iteratorIcNS_11char_traitsIcEEE6failedB8ue170006Ev, symObjAddr: 0x2DF8, symBinAddr: 0x100004F10, symSize: 0x24 }
  - { offsetInCU: 0x14CF9, offset: 0x14CF9, size: 0x8, addend: 0x0, symName: __ZNSt3__19basic_iosIcNS_11char_traitsIcEEE8setstateB8ue170006Ej, symObjAddr: 0x2E1C, symBinAddr: 0x100004F34, symSize: 0x2C }
  - { offsetInCU: 0x14D2F, offset: 0x14D2F, size: 0x8, addend: 0x0, symName: __ZNKSt3__18ios_base5widthB8ue170006Ev, symObjAddr: 0x2E48, symBinAddr: 0x100004F60, symSize: 0x18 }
  - { offsetInCU: 0x14D57, offset: 0x14D57, size: 0x8, addend: 0x0, symName: __ZNSt3__115basic_streambufIcNS_11char_traitsIcEEE5sputnB8ue170006EPKcl, symObjAddr: 0x2E60, symBinAddr: 0x100004F78, symSize: 0x3C }
  - { offsetInCU: 0x14D99, offset: 0x14D99, size: 0x8, addend: 0x0, symName: __ZNSt3__112basic_stringIcNS_11char_traitsIcEENS_9allocatorIcEEEC1B8ue170006Emc, symObjAddr: 0x2E9C, symBinAddr: 0x100004FB4, symSize: 0x3C }
  - { offsetInCU: 0x14DE3, offset: 0x14DE3, size: 0x8, addend: 0x0, symName: __ZNSt3__112basic_stringIcNS_11char_traitsIcEENS_9allocatorIcEEE4dataB8ue170006Ev, symObjAddr: 0x2ED8, symBinAddr: 0x100004FF0, symSize: 0x28 }
  - { offsetInCU: 0x14E09, offset: 0x14E09, size: 0x8, addend: 0x0, symName: __ZNSt3__18ios_base5widthB8ue170006El, symObjAddr: 0x2F00, symBinAddr: 0x100005018, symSize: 0x2C }
  - { offsetInCU: 0x14E51, offset: 0x14E51, size: 0x8, addend: 0x0, symName: __ZNSt3__112basic_stringIcNS_11char_traitsIcEENS_9allocatorIcEEEC2B8ue170006Emc, symObjAddr: 0x2F2C, symBinAddr: 0x100005044, symSize: 0x4C }
  - { offsetInCU: 0x14E9B, offset: 0x14E9B, size: 0x8, addend: 0x0, symName: __ZNSt3__112basic_stringIcNS_11char_traitsIcEENS_9allocatorIcEEE13__get_pointerB8ue170006Ev, symObjAddr: 0x2F8C, symBinAddr: 0x1000050A4, symSize: 0x54 }
  - { offsetInCU: 0x14EC1, offset: 0x14EC1, size: 0x8, addend: 0x0, symName: __ZNSt3__112basic_stringIcNS_11char_traitsIcEENS_9allocatorIcEEE18__get_long_pointerB8ue170006Ev, symObjAddr: 0x2FE0, symBinAddr: 0x1000050F8, symSize: 0x28 }
  - { offsetInCU: 0x14EE7, offset: 0x14EE7, size: 0x8, addend: 0x0, symName: __ZNSt3__112basic_stringIcNS_11char_traitsIcEENS_9allocatorIcEEE19__get_short_pointerB8ue170006Ev, symObjAddr: 0x3008, symBinAddr: 0x100005120, symSize: 0x28 }
  - { offsetInCU: 0x14F0D, offset: 0x14F0D, size: 0x8, addend: 0x0, symName: __ZNSt3__117__compressed_pairINS_12basic_stringIcNS_11char_traitsIcEENS_9allocatorIcEEE5__repES5_E5firstB8ue170006Ev, symObjAddr: 0x3030, symBinAddr: 0x100005148, symSize: 0x24 }
  - { offsetInCU: 0x14F33, offset: 0x14F33, size: 0x8, addend: 0x0, symName: __ZNSt3__122__compressed_pair_elemINS_12basic_stringIcNS_11char_traitsIcEENS_9allocatorIcEEE5__repELi0ELb0EE5__getB8ue170006Ev, symObjAddr: 0x3054, symBinAddr: 0x10000516C, symSize: 0x14 }
  - { offsetInCU: 0x14F59, offset: 0x14F59, size: 0x8, addend: 0x0, symName: __ZNSt3__114pointer_traitsIPcE10pointer_toB8ue170006ERc, symObjAddr: 0x3068, symBinAddr: 0x100005180, symSize: 0x14 }
  - { offsetInCU: 0x14F7C, offset: 0x14F7C, size: 0x8, addend: 0x0, symName: __ZNSt3__119ostreambuf_iteratorIcNS_11char_traitsIcEEEC2B8ue170006ERNS_13basic_ostreamIcS2_EE, symObjAddr: 0x307C, symBinAddr: 0x100005194, symSize: 0x54 }
  - { offsetInCU: 0x14FB4, offset: 0x14FB4, size: 0x8, addend: 0x0, symName: __ZNKSt3__19basic_iosIcNS_11char_traitsIcEEE5rdbufB8ue170006Ev, symObjAddr: 0x30D0, symBinAddr: 0x1000051E8, symSize: 0x24 }
  - { offsetInCU: 0x14FDC, offset: 0x14FDC, size: 0x8, addend: 0x0, symName: __ZNKSt3__18ios_base5rdbufB8ue170006Ev, symObjAddr: 0x30F4, symBinAddr: 0x10000520C, symSize: 0x18 }
  - { offsetInCU: 0x15002, offset: 0x15002, size: 0x8, addend: 0x0, symName: __ZNSt3__111char_traitsIcE11eq_int_typeB8ue170006Eii, symObjAddr: 0x310C, symBinAddr: 0x100005224, symSize: 0x28 }
  - { offsetInCU: 0x15037, offset: 0x15037, size: 0x8, addend: 0x0, symName: __ZNSt3__111char_traitsIcE3eofB8ue170006Ev, symObjAddr: 0x3134, symBinAddr: 0x10000524C, symSize: 0x8 }
  - { offsetInCU: 0x1504B, offset: 0x1504B, size: 0x8, addend: 0x0, symName: __ZNKSt3__19basic_iosIcNS_11char_traitsIcEEE5widenB8ue170006Ec, symObjAddr: 0x313C, symBinAddr: 0x100005254, symSize: 0x84 }
  - { offsetInCU: 0x150B5, offset: 0x150B5, size: 0x8, addend: 0x0, symName: __ZNKSt3__15ctypeIcE5widenB8ue170006Ec, symObjAddr: 0x31EC, symBinAddr: 0x100005304, symSize: 0x38 }
  - { offsetInCU: 0x150EB, offset: 0x150EB, size: 0x8, addend: 0x0, symName: __ZNSt3__18ios_base8setstateB8ue170006Ej, symObjAddr: 0x3224, symBinAddr: 0x10000533C, symSize: 0x34 }
  - { offsetInCU: 0x15123, offset: 0x15123, size: 0x8, addend: 0x0, symName: __ZN5boost4asio3ssl6detail12openssl_initILb1EEC2Ev, symObjAddr: 0x3258, symBinAddr: 0x100005370, symSize: 0x70 }
  - { offsetInCU: 0x1516E, offset: 0x1516E, size: 0x8, addend: 0x0, symName: __ZN5boost4asio3ssl6detail17openssl_init_baseC2Ev, symObjAddr: 0x32C8, symBinAddr: 0x1000053E0, symSize: 0x2C }
  - { offsetInCU: 0x1519A, offset: 0x1519A, size: 0x8, addend: 0x0, symName: __ZN5boost4asio3ssl6detail17openssl_init_baseD2Ev, symObjAddr: 0x33FC, symBinAddr: 0x100005514, symSize: 0x2C }
  - { offsetInCU: 0x151C6, offset: 0x151C6, size: 0x8, addend: 0x0, symName: __ZN5boost4asio3ssl6detail17openssl_init_base7do_initC1Ev, symObjAddr: 0x3428, symBinAddr: 0x100005540, symSize: 0x2C }
  - { offsetInCU: 0x151F5, offset: 0x151F5, size: 0x8, addend: 0x0, symName: __ZNSt3__110shared_ptrIN5boost4asio3ssl6detail17openssl_init_base7do_initEEC1B8ue170006IS6_vEEPT_, symObjAddr: 0x3454, symBinAddr: 0x10000556C, symSize: 0x34 }
  - { offsetInCU: 0x15239, offset: 0x15239, size: 0x8, addend: 0x0, symName: __ZNSt3__110shared_ptrIN5boost4asio3ssl6detail17openssl_init_base7do_initEED1B8ue170006Ev, symObjAddr: 0x3488, symBinAddr: 0x1000055A0, symSize: 0x2C }
  - { offsetInCU: 0x15263, offset: 0x15263, size: 0x8, addend: 0x0, symName: __ZNSt3__110shared_ptrIN5boost4asio3ssl6detail17openssl_init_base7do_initEEC1B8ue170006ERKS7_, symObjAddr: 0x34B4, symBinAddr: 0x1000055CC, symSize: 0x34 }
  - { offsetInCU: 0x1529D, offset: 0x1529D, size: 0x8, addend: 0x0, symName: __ZN5boost4asio3ssl6detail17openssl_init_base7do_initC2Ev, symObjAddr: 0x34E8, symBinAddr: 0x100005600, symSize: 0x14 }
  - { offsetInCU: 0x152C7, offset: 0x152C7, size: 0x8, addend: 0x0, symName: __ZNSt3__110shared_ptrIN5boost4asio3ssl6detail17openssl_init_base7do_initEEC2B8ue170006IS6_vEEPT_, symObjAddr: 0x34FC, symBinAddr: 0x100005614, symSize: 0xEC }
  - { offsetInCU: 0x153B4, offset: 0x153B4, size: 0x8, addend: 0x0, symName: __ZNSt3__110unique_ptrIN5boost4asio3ssl6detail17openssl_init_base7do_initENS_14default_deleteIS6_EEEC1B8ue170006ILb1EvEEPS6_, symObjAddr: 0x35E8, symBinAddr: 0x100005700, symSize: 0x34 }
  - { offsetInCU: 0x15401, offset: 0x15401, size: 0x8, addend: 0x0, symName: __ZNSt3__19allocatorIN5boost4asio3ssl6detail17openssl_init_base7do_initEEC1B8ue170006Ev, symObjAddr: 0x361C, symBinAddr: 0x100005734, symSize: 0x2C }
  - { offsetInCU: 0x154CB, offset: 0x154CB, size: 0x8, addend: 0x0, symName: __ZNSt3__120__shared_ptr_pointerIPN5boost4asio3ssl6detail17openssl_init_base7do_initENS_10shared_ptrIS6_E27__shared_ptr_default_deleteIS6_S6_EENS_9allocatorIS6_EEEC1B8ue170006ES7_SB_SD_, symObjAddr: 0x3648, symBinAddr: 0x100005760, symSize: 0x34 }
  - { offsetInCU: 0x1551F, offset: 0x1551F, size: 0x8, addend: 0x0, symName: __ZNSt3__110unique_ptrIN5boost4asio3ssl6detail17openssl_init_base7do_initENS_14default_deleteIS6_EEE7releaseB8ue170006Ev, symObjAddr: 0x367C, symBinAddr: 0x100005794, symSize: 0x44 }
  - { offsetInCU: 0x15555, offset: 0x15555, size: 0x8, addend: 0x0, symName: __ZNSt3__110shared_ptrIN5boost4asio3ssl6detail17openssl_init_base7do_initEE18__enable_weak_thisB8ue170006Ez, symObjAddr: 0x36C0, symBinAddr: 0x1000057D8, symSize: 0x10 }
  - { offsetInCU: 0x1557C, offset: 0x1557C, size: 0x8, addend: 0x0, symName: __ZNSt3__110unique_ptrIN5boost4asio3ssl6detail17openssl_init_base7do_initENS_14default_deleteIS6_EEED1B8ue170006Ev, symObjAddr: 0x36D0, symBinAddr: 0x1000057E8, symSize: 0x2C }
  - { offsetInCU: 0x155A6, offset: 0x155A6, size: 0x8, addend: 0x0, symName: __ZNSt3__110unique_ptrIN5boost4asio3ssl6detail17openssl_init_base7do_initENS_14default_deleteIS6_EEEC2B8ue170006ILb1EvEEPS6_, symObjAddr: 0x36FC, symBinAddr: 0x100005814, symSize: 0x44 }
  - { offsetInCU: 0x155EF, offset: 0x155EF, size: 0x8, addend: 0x0, symName: __ZNSt3__117__compressed_pairIPN5boost4asio3ssl6detail17openssl_init_base7do_initENS_14default_deleteIS6_EEEC1B8ue170006IRS7_NS_16__value_init_tagEEEOT_OT0_, symObjAddr: 0x3740, symBinAddr: 0x100005858, symSize: 0x3C }
  - { offsetInCU: 0x15647, offset: 0x15647, size: 0x8, addend: 0x0, symName: __ZNSt3__117__compressed_pairIPN5boost4asio3ssl6detail17openssl_init_base7do_initENS_14default_deleteIS6_EEEC2B8ue170006IRS7_NS_16__value_init_tagEEEOT_OT0_, symObjAddr: 0x377C, symBinAddr: 0x100005894, symSize: 0x40 }
  - { offsetInCU: 0x1569F, offset: 0x1569F, size: 0x8, addend: 0x0, symName: __ZNSt3__122__compressed_pair_elemIPN5boost4asio3ssl6detail17openssl_init_base7do_initELi0ELb0EEC2B8ue170006IRS7_vEEOT_, symObjAddr: 0x37BC, symBinAddr: 0x1000058D4, symSize: 0x24 }
  - { offsetInCU: 0x156E1, offset: 0x156E1, size: 0x8, addend: 0x0, symName: __ZNSt3__122__compressed_pair_elemINS_14default_deleteIN5boost4asio3ssl6detail17openssl_init_base7do_initEEELi1ELb1EEC2B8ue170006ENS_16__value_init_tagE, symObjAddr: 0x37E0, symBinAddr: 0x1000058F8, symSize: 0x14 }
  - { offsetInCU: 0x15716, offset: 0x15716, size: 0x8, addend: 0x0, symName: __ZNSt3__19allocatorIN5boost4asio3ssl6detail17openssl_init_base7do_initEEC2B8ue170006Ev, symObjAddr: 0x37F4, symBinAddr: 0x10000590C, symSize: 0x2C }
  - { offsetInCU: 0x15740, offset: 0x15740, size: 0x8, addend: 0x0, symName: __ZNSt3__116__non_trivial_ifILb1ENS_9allocatorIN5boost4asio3ssl6detail17openssl_init_base7do_initEEEEC2B8ue170006Ev, symObjAddr: 0x3820, symBinAddr: 0x100005938, symSize: 0x14 }
  - { offsetInCU: 0x1576A, offset: 0x1576A, size: 0x8, addend: 0x0, symName: __ZNSt3__120__shared_ptr_pointerIPN5boost4asio3ssl6detail17openssl_init_base7do_initENS_10shared_ptrIS6_E27__shared_ptr_default_deleteIS6_S6_EENS_9allocatorIS6_EEEC2B8ue170006ES7_SB_SD_, symObjAddr: 0x3834, symBinAddr: 0x10000594C, symSize: 0xA8 }
  - { offsetInCU: 0x157BE, offset: 0x157BE, size: 0x8, addend: 0x0, symName: __ZNSt3__119__shared_weak_countC2B8ue170006El, symObjAddr: 0x38DC, symBinAddr: 0x1000059F4, symSize: 0x54 }
  - { offsetInCU: 0x157FC, offset: 0x157FC, size: 0x8, addend: 0x0, symName: __ZNSt3__117__compressed_pairIPN5boost4asio3ssl6detail17openssl_init_base7do_initENS_10shared_ptrIS6_E27__shared_ptr_default_deleteIS6_S6_EEEC1B8ue170006IRS7_SB_EEOT_OT0_, symObjAddr: 0x3930, symBinAddr: 0x100005A48, symSize: 0x3C }
  - { offsetInCU: 0x15860, offset: 0x15860, size: 0x8, addend: 0x0, symName: __ZNSt3__117__compressed_pairINS0_IPN5boost4asio3ssl6detail17openssl_init_base7do_initENS_10shared_ptrIS6_E27__shared_ptr_default_deleteIS6_S6_EEEENS_9allocatorIS6_EEEC1B8ue170006ISC_SE_EEOT_OT0_, symObjAddr: 0x396C, symBinAddr: 0x100005A84, symSize: 0x3C }
  - { offsetInCU: 0x158B8, offset: 0x158B8, size: 0x8, addend: 0x0, symName: __ZNSt3__120__shared_ptr_pointerIPN5boost4asio3ssl6detail17openssl_init_base7do_initENS_10shared_ptrIS6_E27__shared_ptr_default_deleteIS6_S6_EENS_9allocatorIS6_EEED1Ev, symObjAddr: 0x39A8, symBinAddr: 0x100005AC0, symSize: 0x2C }
  - { offsetInCU: 0x158E4, offset: 0x158E4, size: 0x8, addend: 0x0, symName: __ZNSt3__120__shared_ptr_pointerIPN5boost4asio3ssl6detail17openssl_init_base7do_initENS_10shared_ptrIS6_E27__shared_ptr_default_deleteIS6_S6_EENS_9allocatorIS6_EEED0Ev, symObjAddr: 0x39D4, symBinAddr: 0x100005AEC, symSize: 0x30 }
  - { offsetInCU: 0x15910, offset: 0x15910, size: 0x8, addend: 0x0, symName: __ZNSt3__120__shared_ptr_pointerIPN5boost4asio3ssl6detail17openssl_init_base7do_initENS_10shared_ptrIS6_E27__shared_ptr_default_deleteIS6_S6_EENS_9allocatorIS6_EEE16__on_zero_sharedEv, symObjAddr: 0x3A04, symBinAddr: 0x100005B1C, symSize: 0x64 }
  - { offsetInCU: 0x15938, offset: 0x15938, size: 0x8, addend: 0x0, symName: __ZNKSt3__120__shared_ptr_pointerIPN5boost4asio3ssl6detail17openssl_init_base7do_initENS_10shared_ptrIS6_E27__shared_ptr_default_deleteIS6_S6_EENS_9allocatorIS6_EEE13__get_deleterERKSt9type_info, symObjAddr: 0x3A68, symBinAddr: 0x100005B80, symSize: 0x68 }
  - { offsetInCU: 0x1596D, offset: 0x1596D, size: 0x8, addend: 0x0, symName: __ZNSt3__120__shared_ptr_pointerIPN5boost4asio3ssl6detail17openssl_init_base7do_initENS_10shared_ptrIS6_E27__shared_ptr_default_deleteIS6_S6_EENS_9allocatorIS6_EEE21__on_zero_shared_weakEv, symObjAddr: 0x3AD0, symBinAddr: 0x100005BE8, symSize: 0x60 }
  - { offsetInCU: 0x159B1, offset: 0x159B1, size: 0x8, addend: 0x0, symName: __ZNSt3__114__shared_countC2B8ue170006El, symObjAddr: 0x3B30, symBinAddr: 0x100005C48, symSize: 0x30 }
  - { offsetInCU: 0x159E9, offset: 0x159E9, size: 0x8, addend: 0x0, symName: __ZNSt3__117__compressed_pairIPN5boost4asio3ssl6detail17openssl_init_base7do_initENS_10shared_ptrIS6_E27__shared_ptr_default_deleteIS6_S6_EEEC2B8ue170006IRS7_SB_EEOT_OT0_, symObjAddr: 0x3B60, symBinAddr: 0x100005C78, symSize: 0x44 }
  - { offsetInCU: 0x15A41, offset: 0x15A41, size: 0x8, addend: 0x0, symName: __ZNSt3__122__compressed_pair_elemINS_10shared_ptrIN5boost4asio3ssl6detail17openssl_init_base7do_initEE27__shared_ptr_default_deleteIS7_S7_EELi1ELb1EEC2B8ue170006ISA_vEEOT_, symObjAddr: 0x3BA4, symBinAddr: 0x100005CBC, symSize: 0x18 }
  - { offsetInCU: 0x15A83, offset: 0x15A83, size: 0x8, addend: 0x0, symName: __ZNSt3__117__compressed_pairINS0_IPN5boost4asio3ssl6detail17openssl_init_base7do_initENS_10shared_ptrIS6_E27__shared_ptr_default_deleteIS6_S6_EEEENS_9allocatorIS6_EEEC2B8ue170006ISC_SE_EEOT_OT0_, symObjAddr: 0x3BBC, symBinAddr: 0x100005CD4, symSize: 0x44 }
  - { offsetInCU: 0x15ADB, offset: 0x15ADB, size: 0x8, addend: 0x0, symName: __ZNSt3__122__compressed_pair_elemINS_17__compressed_pairIPN5boost4asio3ssl6detail17openssl_init_base7do_initENS_10shared_ptrIS7_E27__shared_ptr_default_deleteIS7_S7_EEEELi0ELb0EEC2B8ue170006ISD_vEEOT_, symObjAddr: 0x3C00, symBinAddr: 0x100005D18, symSize: 0x24 }
  - { offsetInCU: 0x15B1D, offset: 0x15B1D, size: 0x8, addend: 0x0, symName: __ZNSt3__122__compressed_pair_elemINS_9allocatorIN5boost4asio3ssl6detail17openssl_init_base7do_initEEELi1ELb1EEC2B8ue170006IS8_vEEOT_, symObjAddr: 0x3C24, symBinAddr: 0x100005D3C, symSize: 0x18 }
  - { offsetInCU: 0x15B5F, offset: 0x15B5F, size: 0x8, addend: 0x0, symName: __ZNSt3__120__shared_ptr_pointerIPN5boost4asio3ssl6detail17openssl_init_base7do_initENS_10shared_ptrIS6_E27__shared_ptr_default_deleteIS6_S6_EENS_9allocatorIS6_EEED2Ev, symObjAddr: 0x3C3C, symBinAddr: 0x100005D54, symSize: 0x2C }
  - { offsetInCU: 0x15B8B, offset: 0x15B8B, size: 0x8, addend: 0x0, symName: __ZNSt3__117__compressed_pairINS0_IPN5boost4asio3ssl6detail17openssl_init_base7do_initENS_10shared_ptrIS6_E27__shared_ptr_default_deleteIS6_S6_EEEENS_9allocatorIS6_EEE5firstB8ue170006Ev, symObjAddr: 0x3C68, symBinAddr: 0x100005D80, symSize: 0x24 }
  - { offsetInCU: 0x15BB1, offset: 0x15BB1, size: 0x8, addend: 0x0, symName: __ZNSt3__117__compressed_pairIPN5boost4asio3ssl6detail17openssl_init_base7do_initENS_10shared_ptrIS6_E27__shared_ptr_default_deleteIS6_S6_EEE6secondB8ue170006Ev, symObjAddr: 0x3C8C, symBinAddr: 0x100005DA4, symSize: 0x24 }
  - { offsetInCU: 0x15BD7, offset: 0x15BD7, size: 0x8, addend: 0x0, symName: __ZNKSt3__114default_deleteIN5boost4asio3ssl6detail17openssl_init_base7do_initEEclB8ue170006EPS6_, symObjAddr: 0x3CB0, symBinAddr: 0x100005DC8, symSize: 0x4C }
  - { offsetInCU: 0x15C0B, offset: 0x15C0B, size: 0x8, addend: 0x0, symName: __ZNSt3__117__compressed_pairIPN5boost4asio3ssl6detail17openssl_init_base7do_initENS_10shared_ptrIS6_E27__shared_ptr_default_deleteIS6_S6_EEE5firstB8ue170006Ev, symObjAddr: 0x3CFC, symBinAddr: 0x100005E14, symSize: 0x24 }
  - { offsetInCU: 0x15C31, offset: 0x15C31, size: 0x8, addend: 0x0, symName: __ZNSt3__122__compressed_pair_elemINS_17__compressed_pairIPN5boost4asio3ssl6detail17openssl_init_base7do_initENS_10shared_ptrIS7_E27__shared_ptr_default_deleteIS7_S7_EEEELi0ELb0EE5__getB8ue170006Ev, symObjAddr: 0x3D20, symBinAddr: 0x100005E38, symSize: 0x14 }
  - { offsetInCU: 0x15C57, offset: 0x15C57, size: 0x8, addend: 0x0, symName: __ZNSt3__122__compressed_pair_elemINS_10shared_ptrIN5boost4asio3ssl6detail17openssl_init_base7do_initEE27__shared_ptr_default_deleteIS7_S7_EELi1ELb1EE5__getB8ue170006Ev, symObjAddr: 0x3D34, symBinAddr: 0x100005E4C, symSize: 0x14 }
  - { offsetInCU: 0x15C7D, offset: 0x15C7D, size: 0x8, addend: 0x0, symName: __ZN5boost4asio3ssl6detail17openssl_init_base7do_initD1Ev, symObjAddr: 0x3D48, symBinAddr: 0x100005E60, symSize: 0x2C }
  - { offsetInCU: 0x15CA7, offset: 0x15CA7, size: 0x8, addend: 0x0, symName: __ZN5boost4asio3ssl6detail17openssl_init_base7do_initD2Ev, symObjAddr: 0x3D74, symBinAddr: 0x100005E8C, symSize: 0x14 }
  - { offsetInCU: 0x15CD1, offset: 0x15CD1, size: 0x8, addend: 0x0, symName: __ZNSt3__122__compressed_pair_elemIPN5boost4asio3ssl6detail17openssl_init_base7do_initELi0ELb0EE5__getB8ue170006Ev, symObjAddr: 0x3D88, symBinAddr: 0x100005EA0, symSize: 0x14 }
  - { offsetInCU: 0x15D2D, offset: 0x15D2D, size: 0x8, addend: 0x0, symName: __ZNKSt9type_infoeqB8ue170006ERKS_, symObjAddr: 0x3D9C, symBinAddr: 0x100005EB4, symSize: 0xDC }
  - { offsetInCU: 0x15DCC, offset: 0x15DCC, size: 0x8, addend: 0x0, symName: __ZNKSt3__117__compressed_pairINS0_IPN5boost4asio3ssl6detail17openssl_init_base7do_initENS_10shared_ptrIS6_E27__shared_ptr_default_deleteIS6_S6_EEEENS_9allocatorIS6_EEE5firstB8ue170006Ev, symObjAddr: 0x3E78, symBinAddr: 0x100005F90, symSize: 0x24 }
  - { offsetInCU: 0x15DF2, offset: 0x15DF2, size: 0x8, addend: 0x0, symName: __ZNKSt3__117__compressed_pairIPN5boost4asio3ssl6detail17openssl_init_base7do_initENS_10shared_ptrIS6_E27__shared_ptr_default_deleteIS6_S6_EEE6secondB8ue170006Ev, symObjAddr: 0x3E9C, symBinAddr: 0x100005FB4, symSize: 0x24 }
  - { offsetInCU: 0x15E18, offset: 0x15E18, size: 0x8, addend: 0x0, symName: __ZNSt27__type_info_implementations30__non_unique_arm_rtti_bit_impl21__is_type_name_uniqueB8ue170006Em, symObjAddr: 0x3EC0, symBinAddr: 0x100005FD8, symSize: 0x20 }
  - { offsetInCU: 0x15E3D, offset: 0x15E3D, size: 0x8, addend: 0x0, symName: __ZNKSt3__122__compressed_pair_elemINS_17__compressed_pairIPN5boost4asio3ssl6detail17openssl_init_base7do_initENS_10shared_ptrIS7_E27__shared_ptr_default_deleteIS7_S7_EEEELi0ELb0EE5__getB8ue170006Ev, symObjAddr: 0x3EE0, symBinAddr: 0x100005FF8, symSize: 0x14 }
  - { offsetInCU: 0x15E63, offset: 0x15E63, size: 0x8, addend: 0x0, symName: __ZNKSt3__122__compressed_pair_elemINS_10shared_ptrIN5boost4asio3ssl6detail17openssl_init_base7do_initEE27__shared_ptr_default_deleteIS7_S7_EELi1ELb1EE5__getB8ue170006Ev, symObjAddr: 0x3EF4, symBinAddr: 0x10000600C, symSize: 0x14 }
  - { offsetInCU: 0x15E89, offset: 0x15E89, size: 0x8, addend: 0x0, symName: __ZNSt3__117__compressed_pairINS0_IPN5boost4asio3ssl6detail17openssl_init_base7do_initENS_10shared_ptrIS6_E27__shared_ptr_default_deleteIS6_S6_EEEENS_9allocatorIS6_EEE6secondB8ue170006Ev, symObjAddr: 0x3F08, symBinAddr: 0x100006020, symSize: 0x24 }
  - { offsetInCU: 0x15EBE, offset: 0x15EBE, size: 0x8, addend: 0x0, symName: __ZNSt3__19allocatorINS_20__shared_ptr_pointerIPN5boost4asio3ssl6detail17openssl_init_base7do_initENS_10shared_ptrIS7_E27__shared_ptr_default_deleteIS7_S7_EENS0_IS7_EEEEEC1B8ue170006IS7_EERKNS0_IT_EE, symObjAddr: 0x3F2C, symBinAddr: 0x100006044, symSize: 0x34 }
  - { offsetInCU: 0x15EFC, offset: 0x15EFC, size: 0x8, addend: 0x0, symName: __ZNSt3__19allocatorINS_20__shared_ptr_pointerIPN5boost4asio3ssl6detail17openssl_init_base7do_initENS_10shared_ptrIS7_E27__shared_ptr_default_deleteIS7_S7_EENS0_IS7_EEEEE10deallocateB8ue170006EPSE_m, symObjAddr: 0x3F60, symBinAddr: 0x100006078, symSize: 0x40 }
  - { offsetInCU: 0x15F43, offset: 0x15F43, size: 0x8, addend: 0x0, symName: __ZNSt3__114pointer_traitsIPNS_20__shared_ptr_pointerIPN5boost4asio3ssl6detail17openssl_init_base7do_initENS_10shared_ptrIS7_E27__shared_ptr_default_deleteIS7_S7_EENS_9allocatorIS7_EEEEE10pointer_toB8ue170006ERSF_, symObjAddr: 0x3FA0, symBinAddr: 0x1000060B8, symSize: 0x14 }
  - { offsetInCU: 0x15F66, offset: 0x15F66, size: 0x8, addend: 0x0, symName: __ZNSt3__122__compressed_pair_elemINS_9allocatorIN5boost4asio3ssl6detail17openssl_init_base7do_initEEELi1ELb1EE5__getB8ue170006Ev, symObjAddr: 0x3FB4, symBinAddr: 0x1000060CC, symSize: 0x14 }
  - { offsetInCU: 0x15F8C, offset: 0x15F8C, size: 0x8, addend: 0x0, symName: __ZNSt3__19allocatorINS_20__shared_ptr_pointerIPN5boost4asio3ssl6detail17openssl_init_base7do_initENS_10shared_ptrIS7_E27__shared_ptr_default_deleteIS7_S7_EENS0_IS7_EEEEEC2B8ue170006IS7_EERKNS0_IT_EE, symObjAddr: 0x3FC8, symBinAddr: 0x1000060E0, symSize: 0x30 }
  - { offsetInCU: 0x15FCA, offset: 0x15FCA, size: 0x8, addend: 0x0, symName: __ZNSt3__116__non_trivial_ifILb1ENS_9allocatorINS_20__shared_ptr_pointerIPN5boost4asio3ssl6detail17openssl_init_base7do_initENS_10shared_ptrIS8_E27__shared_ptr_default_deleteIS8_S8_EENS1_IS8_EEEEEEEC2B8ue170006Ev, symObjAddr: 0x3FF8, symBinAddr: 0x100006110, symSize: 0x14 }
  - { offsetInCU: 0x15FF4, offset: 0x15FF4, size: 0x8, addend: 0x0, symName: __ZNSt3__117__compressed_pairIPN5boost4asio3ssl6detail17openssl_init_base7do_initENS_14default_deleteIS6_EEE5firstB8ue170006Ev, symObjAddr: 0x4134, symBinAddr: 0x10000624C, symSize: 0x24 }
  - { offsetInCU: 0x1601A, offset: 0x1601A, size: 0x8, addend: 0x0, symName: __ZNSt3__110unique_ptrIN5boost4asio3ssl6detail17openssl_init_base7do_initENS_14default_deleteIS6_EEED2B8ue170006Ev, symObjAddr: 0x4158, symBinAddr: 0x100006270, symSize: 0x30 }
  - { offsetInCU: 0x16044, offset: 0x16044, size: 0x8, addend: 0x0, symName: __ZNSt3__110unique_ptrIN5boost4asio3ssl6detail17openssl_init_base7do_initENS_14default_deleteIS6_EEE5resetB8ue170006EPS6_, symObjAddr: 0x4188, symBinAddr: 0x1000062A0, symSize: 0x78 }
  - { offsetInCU: 0x1608A, offset: 0x1608A, size: 0x8, addend: 0x0, symName: __ZNSt3__117__compressed_pairIPN5boost4asio3ssl6detail17openssl_init_base7do_initENS_14default_deleteIS6_EEE6secondB8ue170006Ev, symObjAddr: 0x4200, symBinAddr: 0x100006318, symSize: 0x24 }
  - { offsetInCU: 0x160B0, offset: 0x160B0, size: 0x8, addend: 0x0, symName: __ZNSt3__122__compressed_pair_elemINS_14default_deleteIN5boost4asio3ssl6detail17openssl_init_base7do_initEEELi1ELb1EE5__getB8ue170006Ev, symObjAddr: 0x4224, symBinAddr: 0x10000633C, symSize: 0x14 }
  - { offsetInCU: 0x160D6, offset: 0x160D6, size: 0x8, addend: 0x0, symName: __ZNSt3__110shared_ptrIN5boost4asio3ssl6detail17openssl_init_base7do_initEED2B8ue170006Ev, symObjAddr: 0x4238, symBinAddr: 0x100006350, symSize: 0x54 }
  - { offsetInCU: 0x16100, offset: 0x16100, size: 0x8, addend: 0x0, symName: __ZNSt3__119__shared_weak_count16__release_sharedB8ue170006Ev, symObjAddr: 0x428C, symBinAddr: 0x1000063A4, symSize: 0x3C }
  - { offsetInCU: 0x16126, offset: 0x16126, size: 0x8, addend: 0x0, symName: __ZNSt3__114__shared_count16__release_sharedB8ue170006Ev, symObjAddr: 0x42C8, symBinAddr: 0x1000063E0, symSize: 0x7C }
  - { offsetInCU: 0x1614C, offset: 0x1614C, size: 0x8, addend: 0x0, symName: __ZNSt3__110shared_ptrIN5boost4asio3ssl6detail17openssl_init_base7do_initEEC2B8ue170006ERKS7_, symObjAddr: 0x4374, symBinAddr: 0x10000648C, symSize: 0x70 }
  - { offsetInCU: 0x16186, offset: 0x16186, size: 0x8, addend: 0x0, symName: __ZNSt3__119__shared_weak_count12__add_sharedB8ue170006Ev, symObjAddr: 0x43E4, symBinAddr: 0x1000064FC, symSize: 0x24 }
  - { offsetInCU: 0x161AC, offset: 0x161AC, size: 0x8, addend: 0x0, symName: __ZNSt3__114__shared_count12__add_sharedB8ue170006Ev, symObjAddr: 0x4408, symBinAddr: 0x100006520, symSize: 0x28 }
  - { offsetInCU: 0x161D2, offset: 0x161D2, size: 0x8, addend: 0x0, symName: __ZN5boost4asio3ssl6detail12openssl_initILb1EED2Ev, symObjAddr: 0x4460, symBinAddr: 0x100006578, symSize: 0x34 }
  - { offsetInCU: 0x161FC, offset: 0x161FC, size: 0x8, addend: 0x0, symName: __ZNKSt3__112basic_stringIcNS_11char_traitsIcEENS_9allocatorIcEEE4sizeB8ue170006Ev, symObjAddr: 0x4494, symBinAddr: 0x1000065AC, symSize: 0x54 }
  - { offsetInCU: 0x16222, offset: 0x16222, size: 0x8, addend: 0x0, symName: __ZNKSt3__112basic_stringIcNS_11char_traitsIcEENS_9allocatorIcEEE15__get_long_sizeB8ue170006Ev, symObjAddr: 0x44E8, symBinAddr: 0x100006600, symSize: 0x28 }
  - { offsetInCU: 0x16248, offset: 0x16248, size: 0x8, addend: 0x0, symName: __ZNKSt3__112basic_stringIcNS_11char_traitsIcEENS_9allocatorIcEEE16__get_short_sizeB8ue170006Ev, symObjAddr: 0x4510, symBinAddr: 0x100006628, symSize: 0x34 }
  - { offsetInCU: 0x48, offset: 0x163FA, size: 0x8, addend: 0x0, symName: __ZN5boost4asio5errorL15system_categoryE, symObjAddr: 0x3D170, symBinAddr: 0x10000C248, symSize: 0x0 }
  - { offsetInCU: 0x62, offset: 0x16414, size: 0x8, addend: 0x0, symName: __ZN5boost4asio5errorL14netdb_categoryE, symObjAddr: 0x3D178, symBinAddr: 0x10000C250, symSize: 0x0 }
  - { offsetInCU: 0x7C, offset: 0x1642E, size: 0x8, addend: 0x0, symName: __ZN5boost4asio5errorL17addrinfo_categoryE, symObjAddr: 0x3D180, symBinAddr: 0x10000C258, symSize: 0x0 }
  - { offsetInCU: 0x96, offset: 0x16448, size: 0x8, addend: 0x0, symName: __ZN5boost4asio5errorL13misc_categoryE, symObjAddr: 0x3D188, symBinAddr: 0x10000C260, symSize: 0x0 }
...
