---
triple:          'arm64-apple-darwin'
binary-path:     '/Users/user/Desktop/Projects/lonex/src/AlpacaWebSocket'
relocations:
  - { offsetInCU: 0x4F, offset: 0x4F, size: 0x8, addend: 0x0, symName: __ZN5boost4asio5errorL15system_categoryE, symObjAddr: 0x3F170, symBinAddr: 0x1000AA3A0, symSize: 0x0 }
  - { offsetInCU: 0x69, offset: 0x69, size: 0x8, addend: 0x0, symName: __ZN5boost4asio5errorL14netdb_categoryE, symObjAddr: 0x3F178, symBinAddr: 0x1000AA3A8, symSize: 0x0 }
  - { offsetInCU: 0x83, offset: 0x83, size: 0x8, addend: 0x0, symName: __ZN5boost4asio5errorL17addrinfo_categoryE, symObjAddr: 0x3F180, symBinAddr: 0x1000AA3B0, symSize: 0x0 }
  - { offsetInCU: 0x9D, offset: 0x9D, size: 0x8, addend: 0x0, symName: __ZN5boost4asio5errorL13misc_categoryE, symObjAddr: 0x3F188, symBinAddr: 0x1000AA3B8, symSize: 0x0 }
  - { offsetInCU: 0xAA, offset: 0xAA, size: 0x8, addend: 0x0, symName: __ZN5boost4asio5error18get_netdb_categoryEv, symObjAddr: 0x14, symBinAddr: 0x100003608, symSize: 0xC }
  - { offsetInCU: 0xD3, offset: 0xD3, size: 0x8, addend: 0x0, symName: __ZZN5boost4asio5error18get_netdb_categoryEvE8instance, symObjAddr: 0x2B00, symBinAddr: 0x1000A40C8, symSize: 0x0 }
  - { offsetInCU: 0x1E5, offset: 0x1E5, size: 0x8, addend: 0x0, symName: __ZN5boost4asio5error21get_addrinfo_categoryEv, symObjAddr: 0x20, symBinAddr: 0x100003614, symSize: 0xC }
  - { offsetInCU: 0x20E, offset: 0x20E, size: 0x8, addend: 0x0, symName: __ZZN5boost4asio5error21get_addrinfo_categoryEvE8instance, symObjAddr: 0x2B38, symBinAddr: 0x1000A4100, symSize: 0x0 }
  - { offsetInCU: 0x218, offset: 0x218, size: 0x8, addend: 0x0, symName: __ZN5boost4asio5error17get_misc_categoryEv, symObjAddr: 0x2C, symBinAddr: 0x100003620, symSize: 0xC }
  - { offsetInCU: 0x241, offset: 0x241, size: 0x8, addend: 0x0, symName: __ZZN5boost4asio5error17get_misc_categoryEvE8instance, symObjAddr: 0x2B70, symBinAddr: 0x1000A4138, symSize: 0x0 }
  - { offsetInCU: 0x24B, offset: 0x24B, size: 0x8, addend: 0x0, symName: __ZN5boost4asio5error19get_system_categoryEv, symObjAddr: 0x0, symBinAddr: 0x1000035F4, symSize: 0x14 }
  - { offsetInCU: 0x275, offset: 0x275, size: 0x8, addend: 0x0, symName: __ZN5boost4asio6detail10call_stackINS1_14thread_contextENS1_16thread_info_baseEE4top_E, symObjAddr: 0x2A38, symBinAddr: 0x1000A4000, symSize: 0x0 }
  - { offsetInCU: 0x52B, offset: 0x52B, size: 0x8, addend: 0x0, symName: __ZN5boost4asio6detail30execution_context_service_baseINS0_14config_serviceEE2idE, symObjAddr: 0x2A48, symBinAddr: 0x1000A4010, symSize: 0x0 }
  - { offsetInCU: 0x763, offset: 0x763, size: 0x8, addend: 0x0, symName: __ZN5boost4asio6detail30execution_context_service_baseINS1_9schedulerEE2idE, symObjAddr: 0x2A58, symBinAddr: 0x1000A4020, symSize: 0x0 }
  - { offsetInCU: 0x1163, offset: 0x1163, size: 0x8, addend: 0x0, symName: __ZN5boost4asio6detail30execution_context_service_baseINS1_14kqueue_reactorEE2idE, symObjAddr: 0x2A68, symBinAddr: 0x1000A4030, symSize: 0x0 }
  - { offsetInCU: 0x1A57, offset: 0x1A57, size: 0x8, addend: 0x0, symName: __ZN5boost4asio6detail10call_stackINS1_14strand_service11strand_implEhE4top_E, symObjAddr: 0x2A78, symBinAddr: 0x1000A4040, symSize: 0x0 }
  - { offsetInCU: 0x1EED, offset: 0x1EED, size: 0x8, addend: 0x0, symName: __ZN5boost4asio6detail12service_baseINS1_14strand_serviceEE2idE, symObjAddr: 0x2A88, symBinAddr: 0x1000A4050, symSize: 0x0 }
  - { offsetInCU: 0x1F00, offset: 0x1F00, size: 0x8, addend: 0x0, symName: __ZN5boost4asio6detail10call_stackINS1_23strand_executor_service11strand_implEhE4top_E, symObjAddr: 0x2A98, symBinAddr: 0x1000A4060, symSize: 0x0 }
  - { offsetInCU: 0x2320, offset: 0x2320, size: 0x8, addend: 0x0, symName: __ZN5boost4asio6detail17posix_global_implINS0_14system_contextEE9instance_E, symObjAddr: 0x2AA8, symBinAddr: 0x1000A4070, symSize: 0x0 }
  - { offsetInCU: 0x2412, offset: 0x2412, size: 0x8, addend: 0x0, symName: __ZN5boost4asio6detail17posix_global_implINS0_14system_contextEE11static_ptr_E, symObjAddr: 0x2BA8, symBinAddr: 0x1000A4170, symSize: 0x0 }
  - { offsetInCU: 0x3A15, offset: 0x3A15, size: 0x8, addend: 0x0, symName: __ZN5boost6system6detail29system_error_category_messageEi, symObjAddr: 0xA50, symBinAddr: 0x100004044, symSize: 0x2C }
  - { offsetInCU: 0x3A41, offset: 0x3A41, size: 0x8, addend: 0x0, symName: __ZN5boost6system6detail30generic_error_category_messageEi, symObjAddr: 0xA7C, symBinAddr: 0x100004070, symSize: 0x6C }
  - { offsetInCU: 0x3A7B, offset: 0x3A7B, size: 0x8, addend: 0x0, symName: __ZN5boost6system6detail29system_error_category_messageEiPcm, symObjAddr: 0xAE8, symBinAddr: 0x1000040DC, symSize: 0x34 }
  - { offsetInCU: 0x3AC3, offset: 0x3AC3, size: 0x8, addend: 0x0, symName: __ZN5boost6system6detail30generic_error_category_messageEiPcm, symObjAddr: 0xB1C, symBinAddr: 0x100004110, symSize: 0xE8 }
  - { offsetInCU: 0x3DC6, offset: 0x3DC6, size: 0x8, addend: 0x0, symName: __ZN5boost6system15system_categoryEv, symObjAddr: 0x3F4, symBinAddr: 0x1000039E8, symSize: 0xC }
  - { offsetInCU: 0x3DE8, offset: 0x3DE8, size: 0x8, addend: 0x0, symName: __ZN5boost6systemeqERKNS0_15error_conditionES3_, symObjAddr: 0x640, symBinAddr: 0x100003C34, symSize: 0x10C }
  - { offsetInCU: 0x3E22, offset: 0x3E22, size: 0x8, addend: 0x0, symName: __ZN5boost6systemeqERKNS0_14error_categoryES3_, symObjAddr: 0x7A8, symBinAddr: 0x100003D9C, symSize: 0x6C }
  - { offsetInCU: 0x3F60, offset: 0x3F60, size: 0x8, addend: 0x0, symName: __ZN5boost5beast6detail12service_baseINS0_9websocket6detail7serviceEE2idE, symObjAddr: 0x2AB8, symBinAddr: 0x1000A4080, symSize: 0x0 }
  - { offsetInCU: 0xC790, offset: 0xC790, size: 0x8, addend: 0x0, symName: __ZNSt3__112__to_addressB8ue170006IKcEEPT_S3_, symObjAddr: 0xF3C, symBinAddr: 0x100004530, symSize: 0x14 }
  - { offsetInCU: 0xC7F8, offset: 0xC7F8, size: 0x8, addend: 0x0, symName: __ZNSt3__118__constexpr_strlenB8ue170006EPKc, symObjAddr: 0x1394, symBinAddr: 0x100004988, symSize: 0x24 }
  - { offsetInCU: 0xC825, offset: 0xC825, size: 0x8, addend: 0x0, symName: __ZNSt3__122__cxx_atomic_fetch_subB8ue170006IlEET_PNS_22__cxx_atomic_base_implIS1_EES1_NS_12memory_orderE, symObjAddr: 0x1AF4, symBinAddr: 0x1000050E8, symSize: 0xD8 }
  - { offsetInCU: 0xDCBC, offset: 0xDCBC, size: 0x8, addend: 0x0, symName: __ZN5boost6system6detail17system_cat_holderIvE8instanceE, symObjAddr: 0x2AC8, symBinAddr: 0x1000A4090, symSize: 0x0 }
  - { offsetInCU: 0x10347, offset: 0x10347, size: 0x8, addend: 0x0, symName: _main, symObjAddr: 0x38, symBinAddr: 0x10000362C, symSize: 0x9C }
  - { offsetInCU: 0x10375, offset: 0x10375, size: 0x8, addend: 0x0, symName: __ZNSt3__112basic_stringIcNS_11char_traitsIcEENS_9allocatorIcEEEC1B8ue170006ILi0EEEPKc, symObjAddr: 0xD4, symBinAddr: 0x1000036C8, symSize: 0x34 }
  - { offsetInCU: 0x103B5, offset: 0x103B5, size: 0x8, addend: 0x0, symName: __ZN5boost4asio6detail7tss_ptrINS1_10call_stackINS1_14thread_contextENS1_16thread_info_baseEE7contextEEC1Ev, symObjAddr: 0x108, symBinAddr: 0x1000036FC, symSize: 0x2C }
  - { offsetInCU: 0x103E1, offset: 0x103E1, size: 0x8, addend: 0x0, symName: __ZN5boost4asio6detail7tss_ptrINS1_10call_stackINS1_14thread_contextENS1_16thread_info_baseEE7contextEED1Ev, symObjAddr: 0x134, symBinAddr: 0x100003728, symSize: 0x2C }
  - { offsetInCU: 0x10412, offset: 0x10412, size: 0x8, addend: 0x0, symName: __ZN5boost4asio6detail10service_idINS0_14config_serviceEEC1Ev, symObjAddr: 0x160, symBinAddr: 0x100003754, symSize: 0x2C }
  - { offsetInCU: 0x1043F, offset: 0x1043F, size: 0x8, addend: 0x0, symName: __ZN5boost4asio6detail10service_idINS0_14config_serviceEED1Ev, symObjAddr: 0x18C, symBinAddr: 0x100003780, symSize: 0x2C }
  - { offsetInCU: 0x10471, offset: 0x10471, size: 0x8, addend: 0x0, symName: __ZN5boost4asio6detail10service_idINS1_9schedulerEEC1Ev, symObjAddr: 0x1B8, symBinAddr: 0x1000037AC, symSize: 0x2C }
  - { offsetInCU: 0x1049E, offset: 0x1049E, size: 0x8, addend: 0x0, symName: __ZN5boost4asio6detail10service_idINS1_9schedulerEED1Ev, symObjAddr: 0x1E4, symBinAddr: 0x1000037D8, symSize: 0x2C }
  - { offsetInCU: 0x104D0, offset: 0x104D0, size: 0x8, addend: 0x0, symName: __ZN5boost4asio6detail10service_idINS1_14kqueue_reactorEEC1Ev, symObjAddr: 0x210, symBinAddr: 0x100003804, symSize: 0x2C }
  - { offsetInCU: 0x104FD, offset: 0x104FD, size: 0x8, addend: 0x0, symName: __ZN5boost4asio6detail10service_idINS1_14kqueue_reactorEED1Ev, symObjAddr: 0x23C, symBinAddr: 0x100003830, symSize: 0x2C }
  - { offsetInCU: 0x1052A, offset: 0x1052A, size: 0x8, addend: 0x0, symName: __ZN5boost4asio6detail7tss_ptrINS1_10call_stackINS1_14strand_service11strand_implEhE7contextEEC1Ev, symObjAddr: 0x268, symBinAddr: 0x10000385C, symSize: 0x2C }
  - { offsetInCU: 0x10556, offset: 0x10556, size: 0x8, addend: 0x0, symName: __ZN5boost4asio6detail7tss_ptrINS1_10call_stackINS1_14strand_service11strand_implEhE7contextEED1Ev, symObjAddr: 0x294, symBinAddr: 0x100003888, symSize: 0x2C }
  - { offsetInCU: 0x10587, offset: 0x10587, size: 0x8, addend: 0x0, symName: __ZN5boost4asio6detail10service_idINS1_14strand_serviceEEC1Ev, symObjAddr: 0x2C0, symBinAddr: 0x1000038B4, symSize: 0x2C }
  - { offsetInCU: 0x105B4, offset: 0x105B4, size: 0x8, addend: 0x0, symName: __ZN5boost4asio6detail10service_idINS1_14strand_serviceEED1Ev, symObjAddr: 0x2EC, symBinAddr: 0x1000038E0, symSize: 0x2C }
  - { offsetInCU: 0x105E1, offset: 0x105E1, size: 0x8, addend: 0x0, symName: __ZN5boost4asio6detail7tss_ptrINS1_10call_stackINS1_23strand_executor_service11strand_implEhE7contextEEC1Ev, symObjAddr: 0x318, symBinAddr: 0x10000390C, symSize: 0x2C }
  - { offsetInCU: 0x1060D, offset: 0x1060D, size: 0x8, addend: 0x0, symName: __ZN5boost4asio6detail7tss_ptrINS1_10call_stackINS1_23strand_executor_service11strand_implEhE7contextEED1Ev, symObjAddr: 0x344, symBinAddr: 0x100003938, symSize: 0x2C }
  - { offsetInCU: 0x10639, offset: 0x10639, size: 0x8, addend: 0x0, symName: __ZN5boost4asio6detail17posix_global_implINS0_14system_contextEED1Ev, symObjAddr: 0x370, symBinAddr: 0x100003964, symSize: 0x2C }
  - { offsetInCU: 0x10663, offset: 0x10663, size: 0x8, addend: 0x0, symName: __ZN5boost4asio17execution_context2idC1Ev, symObjAddr: 0x39C, symBinAddr: 0x100003990, symSize: 0x2C }
  - { offsetInCU: 0x1068D, offset: 0x1068D, size: 0x8, addend: 0x0, symName: __ZN5boost4asio17execution_context2idD1Ev, symObjAddr: 0x3C8, symBinAddr: 0x1000039BC, symSize: 0x2C }
  - { offsetInCU: 0x106BA, offset: 0x106BA, size: 0x8, addend: 0x0, symName: __ZNK5boost6system6detail21system_error_category4nameEv, symObjAddr: 0x400, symBinAddr: 0x1000039F4, symSize: 0x18 }
  - { offsetInCU: 0x106E0, offset: 0x106E0, size: 0x8, addend: 0x0, symName: __ZNK5boost6system6detail21system_error_category23default_error_conditionEi, symObjAddr: 0x418, symBinAddr: 0x100003A0C, symSize: 0x4C }
  - { offsetInCU: 0x10716, offset: 0x10716, size: 0x8, addend: 0x0, symName: __ZNK5boost6system14error_category10equivalentEiRKNS0_15error_conditionE, symObjAddr: 0x464, symBinAddr: 0x100003A58, symSize: 0x54 }
  - { offsetInCU: 0x1075A, offset: 0x1075A, size: 0x8, addend: 0x0, symName: __ZNK5boost6system14error_category10equivalentERKNS0_10error_codeEi, symObjAddr: 0x4B8, symBinAddr: 0x100003AAC, symSize: 0x38 }
  - { offsetInCU: 0x1079E, offset: 0x1079E, size: 0x8, addend: 0x0, symName: __ZNK5boost6system6detail21system_error_category7messageEi, symObjAddr: 0x4F0, symBinAddr: 0x100003AE4, symSize: 0x30 }
  - { offsetInCU: 0x107D4, offset: 0x107D4, size: 0x8, addend: 0x0, symName: __ZNK5boost6system6detail21system_error_category7messageEiPcm, symObjAddr: 0x520, symBinAddr: 0x100003B14, symSize: 0x38 }
  - { offsetInCU: 0x10826, offset: 0x10826, size: 0x8, addend: 0x0, symName: __ZNK5boost6system14error_category6failedEi, symObjAddr: 0x558, symBinAddr: 0x100003B4C, symSize: 0x24 }
  - { offsetInCU: 0x1085A, offset: 0x1085A, size: 0x8, addend: 0x0, symName: __ZN5boost6system6detail17generic_value_tagC1Ei, symObjAddr: 0x57C, symBinAddr: 0x100003B70, symSize: 0x34 }
  - { offsetInCU: 0x10892, offset: 0x10892, size: 0x8, addend: 0x0, symName: __ZN5boost6system15error_conditionC1ENS0_6detail17generic_value_tagE, symObjAddr: 0x5BC, symBinAddr: 0x100003BB0, symSize: 0x3C }
  - { offsetInCU: 0x108CA, offset: 0x108CA, size: 0x8, addend: 0x0, symName: __ZN5boost6system6detail17generic_value_tagC2Ei, symObjAddr: 0x5F8, symBinAddr: 0x100003BEC, symSize: 0x20 }
  - { offsetInCU: 0x10902, offset: 0x10902, size: 0x8, addend: 0x0, symName: __ZN5boost6system15error_conditionC2ENS0_6detail17generic_value_tagE, symObjAddr: 0x618, symBinAddr: 0x100003C0C, symSize: 0x28 }
  - { offsetInCU: 0x1093A, offset: 0x1093A, size: 0x8, addend: 0x0, symName: __ZNK5boost6system15error_condition6cat_idEv, symObjAddr: 0x74C, symBinAddr: 0x100003D40, symSize: 0x5C }
  - { offsetInCU: 0x10960, offset: 0x10960, size: 0x8, addend: 0x0, symName: __ZNK5boost6system10error_code6equalsEiRKNS0_14error_categoryE, symObjAddr: 0x814, symBinAddr: 0x100003E08, symSize: 0x170 }
  - { offsetInCU: 0x109A6, offset: 0x109A6, size: 0x8, addend: 0x0, symName: __ZNK5boost6system10error_code5valueEv, symObjAddr: 0x984, symBinAddr: 0x100003F78, symSize: 0x9C }
  - { offsetInCU: 0x10A05, offset: 0x10A05, size: 0x8, addend: 0x0, symName: __ZNKSt3__110error_code5valueB8ue170006Ev, symObjAddr: 0xA20, symBinAddr: 0x100004014, symSize: 0x18 }
  - { offsetInCU: 0x10A2B, offset: 0x10A2B, size: 0x8, addend: 0x0, symName: __ZNKSt3__110error_code8categoryB8ue170006Ev, symObjAddr: 0xA38, symBinAddr: 0x10000402C, symSize: 0x18 }
  - { offsetInCU: 0x10A51, offset: 0x10A51, size: 0x8, addend: 0x0, symName: __ZNK5boost4asio5error6detail14netdb_category4nameEv, symObjAddr: 0xC04, symBinAddr: 0x1000041F8, symSize: 0x18 }
  - { offsetInCU: 0x10A77, offset: 0x10A77, size: 0x8, addend: 0x0, symName: __ZNK5boost6system14error_category23default_error_conditionEi, symObjAddr: 0xC1C, symBinAddr: 0x100004210, symSize: 0x38 }
  - { offsetInCU: 0x10AAD, offset: 0x10AAD, size: 0x8, addend: 0x0, symName: __ZNK5boost4asio5error6detail14netdb_category7messageEi, symObjAddr: 0xC54, symBinAddr: 0x100004248, symSize: 0xDC }
  - { offsetInCU: 0x10AE1, offset: 0x10AE1, size: 0x8, addend: 0x0, symName: __ZNK5boost6system14error_category7messageEiPcm, symObjAddr: 0xD30, symBinAddr: 0x100004324, symSize: 0x158 }
  - { offsetInCU: 0x10B33, offset: 0x10B33, size: 0x8, addend: 0x0, symName: __ZN5boost6system15error_conditionC1EiRKNS0_14error_categoryE, symObjAddr: 0xE88, symBinAddr: 0x10000447C, symSize: 0x3C }
  - { offsetInCU: 0x10B79, offset: 0x10B79, size: 0x8, addend: 0x0, symName: __ZN5boost6system15error_conditionC2EiRKNS0_14error_categoryE, symObjAddr: 0xEC4, symBinAddr: 0x1000044B8, symSize: 0x2C }
  - { offsetInCU: 0x10BBF, offset: 0x10BBF, size: 0x8, addend: 0x0, symName: __ZNKSt3__112basic_stringIcNS_11char_traitsIcEENS_9allocatorIcEEE5c_strB8ue170006Ev, symObjAddr: 0xEF0, symBinAddr: 0x1000044E4, symSize: 0x24 }
  - { offsetInCU: 0x10BE5, offset: 0x10BE5, size: 0x8, addend: 0x0, symName: __ZNKSt3__112basic_stringIcNS_11char_traitsIcEENS_9allocatorIcEEE4dataB8ue170006Ev, symObjAddr: 0xF14, symBinAddr: 0x100004508, symSize: 0x28 }
  - { offsetInCU: 0x10C0B, offset: 0x10C0B, size: 0x8, addend: 0x0, symName: __ZNKSt3__112basic_stringIcNS_11char_traitsIcEENS_9allocatorIcEEE13__get_pointerB8ue170006Ev, symObjAddr: 0xF50, symBinAddr: 0x100004544, symSize: 0x54 }
  - { offsetInCU: 0x10C31, offset: 0x10C31, size: 0x8, addend: 0x0, symName: __ZNKSt3__112basic_stringIcNS_11char_traitsIcEENS_9allocatorIcEEE9__is_longB8ue170006Ev, symObjAddr: 0xFA4, symBinAddr: 0x100004598, symSize: 0x38 }
  - { offsetInCU: 0x10C57, offset: 0x10C57, size: 0x8, addend: 0x0, symName: __ZNKSt3__112basic_stringIcNS_11char_traitsIcEENS_9allocatorIcEEE18__get_long_pointerB8ue170006Ev, symObjAddr: 0xFDC, symBinAddr: 0x1000045D0, symSize: 0x28 }
  - { offsetInCU: 0x10C7D, offset: 0x10C7D, size: 0x8, addend: 0x0, symName: __ZNKSt3__112basic_stringIcNS_11char_traitsIcEENS_9allocatorIcEEE19__get_short_pointerB8ue170006Ev, symObjAddr: 0x1004, symBinAddr: 0x1000045F8, symSize: 0x28 }
  - { offsetInCU: 0x10CA3, offset: 0x10CA3, size: 0x8, addend: 0x0, symName: __ZNKSt3__117__compressed_pairINS_12basic_stringIcNS_11char_traitsIcEENS_9allocatorIcEEE5__repES5_E5firstB8ue170006Ev, symObjAddr: 0x102C, symBinAddr: 0x100004620, symSize: 0x24 }
  - { offsetInCU: 0x10CC9, offset: 0x10CC9, size: 0x8, addend: 0x0, symName: __ZNKSt3__122__compressed_pair_elemINS_12basic_stringIcNS_11char_traitsIcEENS_9allocatorIcEEE5__repELi0ELb0EE5__getB8ue170006Ev, symObjAddr: 0x1050, symBinAddr: 0x100004644, symSize: 0x14 }
  - { offsetInCU: 0x10CEF, offset: 0x10CEF, size: 0x8, addend: 0x0, symName: __ZNSt3__114pointer_traitsIPKcE10pointer_toB8ue170006ERS1_, symObjAddr: 0x1064, symBinAddr: 0x100004658, symSize: 0x14 }
  - { offsetInCU: 0x10D12, offset: 0x10D12, size: 0x8, addend: 0x0, symName: __ZNK5boost4asio5error6detail17addrinfo_category4nameEv, symObjAddr: 0x1078, symBinAddr: 0x10000466C, symSize: 0x18 }
  - { offsetInCU: 0x10D38, offset: 0x10D38, size: 0x8, addend: 0x0, symName: __ZNK5boost4asio5error6detail17addrinfo_category7messageEi, symObjAddr: 0x1090, symBinAddr: 0x100004684, symSize: 0x8C }
  - { offsetInCU: 0x10D6C, offset: 0x10D6C, size: 0x8, addend: 0x0, symName: __ZNK5boost4asio5error6detail13misc_category4nameEv, symObjAddr: 0x111C, symBinAddr: 0x100004710, symSize: 0x18 }
  - { offsetInCU: 0x10D92, offset: 0x10D92, size: 0x8, addend: 0x0, symName: __ZNK5boost4asio5error6detail13misc_category7messageEi, symObjAddr: 0x1134, symBinAddr: 0x100004728, symSize: 0xDC }
  - { offsetInCU: 0x10DC6, offset: 0x10DC6, size: 0x8, addend: 0x0, symName: __ZNSt3__112basic_stringIcNS_11char_traitsIcEENS_9allocatorIcEEEC2B8ue170006ILi0EEEPKc, symObjAddr: 0x1210, symBinAddr: 0x100004804, symSize: 0x58 }
  - { offsetInCU: 0x10E0C, offset: 0x10E0C, size: 0x8, addend: 0x0, symName: __ZNSt3__117__compressed_pairINS_12basic_stringIcNS_11char_traitsIcEENS_9allocatorIcEEE5__repES5_EC1B8ue170006INS_18__default_init_tagESA_EEOT_OT0_, symObjAddr: 0x1268, symBinAddr: 0x10000485C, symSize: 0x3C }
  - { offsetInCU: 0x10E64, offset: 0x10E64, size: 0x8, addend: 0x0, symName: __ZNSt3__111char_traitsIcE6lengthB8ue170006EPKc, symObjAddr: 0x12A4, symBinAddr: 0x100004898, symSize: 0x34 }
  - { offsetInCU: 0x10E87, offset: 0x10E87, size: 0x8, addend: 0x0, symName: __ZNSt3__117__compressed_pairINS_12basic_stringIcNS_11char_traitsIcEENS_9allocatorIcEEE5__repES5_EC2B8ue170006INS_18__default_init_tagESA_EEOT_OT0_, symObjAddr: 0x12D8, symBinAddr: 0x1000048CC, symSize: 0x3C }
  - { offsetInCU: 0x10EDF, offset: 0x10EDF, size: 0x8, addend: 0x0, symName: __ZNSt3__122__compressed_pair_elemINS_12basic_stringIcNS_11char_traitsIcEENS_9allocatorIcEEE5__repELi0ELb0EEC2B8ue170006ENS_18__default_init_tagE, symObjAddr: 0x1314, symBinAddr: 0x100004908, symSize: 0x14 }
  - { offsetInCU: 0x10F14, offset: 0x10F14, size: 0x8, addend: 0x0, symName: __ZNSt3__122__compressed_pair_elemINS_9allocatorIcEELi1ELb1EEC2B8ue170006ENS_18__default_init_tagE, symObjAddr: 0x1328, symBinAddr: 0x10000491C, symSize: 0x2C }
  - { offsetInCU: 0x10F49, offset: 0x10F49, size: 0x8, addend: 0x0, symName: __ZNSt3__19allocatorIcEC2B8ue170006Ev, symObjAddr: 0x1354, symBinAddr: 0x100004948, symSize: 0x2C }
  - { offsetInCU: 0x10F73, offset: 0x10F73, size: 0x8, addend: 0x0, symName: __ZNSt3__116__non_trivial_ifILb1ENS_9allocatorIcEEEC2B8ue170006Ev, symObjAddr: 0x1380, symBinAddr: 0x100004974, symSize: 0x14 }
  - { offsetInCU: 0x10F9D, offset: 0x10F9D, size: 0x8, addend: 0x0, symName: __ZN5boost4asio6detail7tss_ptrINS1_10call_stackINS1_14thread_contextENS1_16thread_info_baseEE7contextEEC2Ev, symObjAddr: 0x13B8, symBinAddr: 0x1000049AC, symSize: 0x2C }
  - { offsetInCU: 0x10FC9, offset: 0x10FC9, size: 0x8, addend: 0x0, symName: __ZN5boost4asio6detail15keyword_tss_ptrINS1_10call_stackINS1_14thread_contextENS1_16thread_info_baseEE7contextEEC2Ev, symObjAddr: 0x13E4, symBinAddr: 0x1000049D8, symSize: 0x2C }
  - { offsetInCU: 0x10FF3, offset: 0x10FF3, size: 0x8, addend: 0x0, symName: __ZN5boost4asio6detail11noncopyableC2Ev, symObjAddr: 0x1410, symBinAddr: 0x100004A04, symSize: 0x14 }
  - { offsetInCU: 0x1101D, offset: 0x1101D, size: 0x8, addend: 0x0, symName: __ZN5boost4asio6detail7tss_ptrINS1_10call_stackINS1_14thread_contextENS1_16thread_info_baseEE7contextEED2Ev, symObjAddr: 0x1424, symBinAddr: 0x100004A18, symSize: 0x2C }
  - { offsetInCU: 0x11049, offset: 0x11049, size: 0x8, addend: 0x0, symName: __ZN5boost4asio6detail15keyword_tss_ptrINS1_10call_stackINS1_14thread_contextENS1_16thread_info_baseEE7contextEED2Ev, symObjAddr: 0x1450, symBinAddr: 0x100004A44, symSize: 0x2C }
  - { offsetInCU: 0x11073, offset: 0x11073, size: 0x8, addend: 0x0, symName: __ZN5boost4asio6detail11noncopyableD2Ev, symObjAddr: 0x147C, symBinAddr: 0x100004A70, symSize: 0x14 }
  - { offsetInCU: 0x1109D, offset: 0x1109D, size: 0x8, addend: 0x0, symName: __ZN5boost4asio6detail10service_idINS0_14config_serviceEEC2Ev, symObjAddr: 0x1490, symBinAddr: 0x100004A84, symSize: 0x2C }
  - { offsetInCU: 0x110CA, offset: 0x110CA, size: 0x8, addend: 0x0, symName: __ZN5boost4asio17execution_context2idC2Ev, symObjAddr: 0x14BC, symBinAddr: 0x100004AB0, symSize: 0x2C }
  - { offsetInCU: 0x110F4, offset: 0x110F4, size: 0x8, addend: 0x0, symName: __ZN5boost4asio6detail10service_idINS0_14config_serviceEED2Ev, symObjAddr: 0x14E8, symBinAddr: 0x100004ADC, symSize: 0x2C }
  - { offsetInCU: 0x11121, offset: 0x11121, size: 0x8, addend: 0x0, symName: __ZN5boost4asio17execution_context2idD2Ev, symObjAddr: 0x1514, symBinAddr: 0x100004B08, symSize: 0x2C }
  - { offsetInCU: 0x1114E, offset: 0x1114E, size: 0x8, addend: 0x0, symName: __ZN5boost4asio6detail10service_idINS1_9schedulerEEC2Ev, symObjAddr: 0x1540, symBinAddr: 0x100004B34, symSize: 0x2C }
  - { offsetInCU: 0x1117B, offset: 0x1117B, size: 0x8, addend: 0x0, symName: __ZN5boost4asio6detail10service_idINS1_9schedulerEED2Ev, symObjAddr: 0x156C, symBinAddr: 0x100004B60, symSize: 0x2C }
  - { offsetInCU: 0x111A8, offset: 0x111A8, size: 0x8, addend: 0x0, symName: __ZN5boost4asio6detail10service_idINS1_14kqueue_reactorEEC2Ev, symObjAddr: 0x1598, symBinAddr: 0x100004B8C, symSize: 0x2C }
  - { offsetInCU: 0x111D5, offset: 0x111D5, size: 0x8, addend: 0x0, symName: __ZN5boost4asio6detail10service_idINS1_14kqueue_reactorEED2Ev, symObjAddr: 0x15C4, symBinAddr: 0x100004BB8, symSize: 0x2C }
  - { offsetInCU: 0x11202, offset: 0x11202, size: 0x8, addend: 0x0, symName: __ZN5boost4asio6detail7tss_ptrINS1_10call_stackINS1_14strand_service11strand_implEhE7contextEEC2Ev, symObjAddr: 0x15F0, symBinAddr: 0x100004BE4, symSize: 0x2C }
  - { offsetInCU: 0x1122E, offset: 0x1122E, size: 0x8, addend: 0x0, symName: __ZN5boost4asio6detail15keyword_tss_ptrINS1_10call_stackINS1_14strand_service11strand_implEhE7contextEEC2Ev, symObjAddr: 0x161C, symBinAddr: 0x100004C10, symSize: 0x2C }
  - { offsetInCU: 0x11258, offset: 0x11258, size: 0x8, addend: 0x0, symName: __ZN5boost4asio6detail7tss_ptrINS1_10call_stackINS1_14strand_service11strand_implEhE7contextEED2Ev, symObjAddr: 0x1648, symBinAddr: 0x100004C3C, symSize: 0x2C }
  - { offsetInCU: 0x11284, offset: 0x11284, size: 0x8, addend: 0x0, symName: __ZN5boost4asio6detail15keyword_tss_ptrINS1_10call_stackINS1_14strand_service11strand_implEhE7contextEED2Ev, symObjAddr: 0x1674, symBinAddr: 0x100004C68, symSize: 0x2C }
  - { offsetInCU: 0x112AE, offset: 0x112AE, size: 0x8, addend: 0x0, symName: __ZN5boost4asio6detail10service_idINS1_14strand_serviceEEC2Ev, symObjAddr: 0x16A0, symBinAddr: 0x100004C94, symSize: 0x2C }
  - { offsetInCU: 0x112DB, offset: 0x112DB, size: 0x8, addend: 0x0, symName: __ZN5boost4asio6detail10service_idINS1_14strand_serviceEED2Ev, symObjAddr: 0x16CC, symBinAddr: 0x100004CC0, symSize: 0x2C }
  - { offsetInCU: 0x11308, offset: 0x11308, size: 0x8, addend: 0x0, symName: __ZN5boost4asio6detail7tss_ptrINS1_10call_stackINS1_23strand_executor_service11strand_implEhE7contextEEC2Ev, symObjAddr: 0x16F8, symBinAddr: 0x100004CEC, symSize: 0x2C }
  - { offsetInCU: 0x11334, offset: 0x11334, size: 0x8, addend: 0x0, symName: __ZN5boost4asio6detail15keyword_tss_ptrINS1_10call_stackINS1_23strand_executor_service11strand_implEhE7contextEEC2Ev, symObjAddr: 0x1724, symBinAddr: 0x100004D18, symSize: 0x2C }
  - { offsetInCU: 0x1135E, offset: 0x1135E, size: 0x8, addend: 0x0, symName: __ZN5boost4asio6detail7tss_ptrINS1_10call_stackINS1_23strand_executor_service11strand_implEhE7contextEED2Ev, symObjAddr: 0x1750, symBinAddr: 0x100004D44, symSize: 0x2C }
  - { offsetInCU: 0x1138A, offset: 0x1138A, size: 0x8, addend: 0x0, symName: __ZN5boost4asio6detail15keyword_tss_ptrINS1_10call_stackINS1_23strand_executor_service11strand_implEhE7contextEED2Ev, symObjAddr: 0x177C, symBinAddr: 0x100004D70, symSize: 0x2C }
  - { offsetInCU: 0x113B4, offset: 0x113B4, size: 0x8, addend: 0x0, symName: __ZN5boost4asio6detail17posix_global_implINS0_14system_contextEED2Ev, symObjAddr: 0x17A8, symBinAddr: 0x100004D9C, symSize: 0x5C }
  - { offsetInCU: 0x113DE, offset: 0x113DE, size: 0x8, addend: 0x0, symName: __ZN5boost4asio14system_contextD1Ev, symObjAddr: 0x1804, symBinAddr: 0x100004DF8, symSize: 0x2C }
  - { offsetInCU: 0x1140A, offset: 0x1140A, size: 0x8, addend: 0x0, symName: __ZN5boost4asio14system_contextD2Ev, symObjAddr: 0x1830, symBinAddr: 0x100004E24, symSize: 0x6C }
  - { offsetInCU: 0x11436, offset: 0x11436, size: 0x8, addend: 0x0, symName: __ZN5boost4asio6detail9scheduler13work_finishedEv, symObjAddr: 0x189C, symBinAddr: 0x100004E90, symSize: 0x48 }
  - { offsetInCU: 0x1145C, offset: 0x1145C, size: 0x8, addend: 0x0, symName: __ZN5boost4asio6detail9scheduler4stopEv, symObjAddr: 0x18E4, symBinAddr: 0x100004ED8, symSize: 0x6C }
  - { offsetInCU: 0x11495, offset: 0x11495, size: 0x8, addend: 0x0, symName: __ZN5boost4asio6detail12thread_group4joinEv, symObjAddr: 0x1950, symBinAddr: 0x100004F44, symSize: 0x94 }
  - { offsetInCU: 0x114D8, offset: 0x114D8, size: 0x8, addend: 0x0, symName: __ZN5boost4asio6detail12thread_groupD1Ev, symObjAddr: 0x19E4, symBinAddr: 0x100004FD8, symSize: 0x2C }
  - { offsetInCU: 0x11502, offset: 0x11502, size: 0x8, addend: 0x0, symName: __ZN5boost4asio17execution_contextD2Ev, symObjAddr: 0x1A10, symBinAddr: 0x100005004, symSize: 0x80 }
  - { offsetInCU: 0x1152E, offset: 0x1152E, size: 0x8, addend: 0x0, symName: __ZNSt3__113__atomic_baseIlLb1EEmmB8ue170006Ev, symObjAddr: 0x1A90, symBinAddr: 0x100005084, symSize: 0x30 }
  - { offsetInCU: 0x11554, offset: 0x11554, size: 0x8, addend: 0x0, symName: __ZNSt3__113__atomic_baseIlLb1EE9fetch_subB8ue170006ElNS_12memory_orderE, symObjAddr: 0x1AC0, symBinAddr: 0x1000050B4, symSize: 0x34 }
  - { offsetInCU: 0x11596, offset: 0x11596, size: 0x8, addend: 0x0, symName: __ZN5boost4asio6detail27conditionally_enabled_mutex11scoped_lockC1ERS2_, symObjAddr: 0x1BE0, symBinAddr: 0x1000051D4, symSize: 0x34 }
  - { offsetInCU: 0x115CE, offset: 0x115CE, size: 0x8, addend: 0x0, symName: __ZN5boost4asio6detail9scheduler16stop_all_threadsERNS1_27conditionally_enabled_mutex11scoped_lockE, symObjAddr: 0x1C14, symBinAddr: 0x100005208, symSize: 0x84 }
  - { offsetInCU: 0x11607, offset: 0x11607, size: 0x8, addend: 0x0, symName: __ZN5boost4asio6detail27conditionally_enabled_mutex11scoped_lockD1Ev, symObjAddr: 0x1C98, symBinAddr: 0x10000528C, symSize: 0x2C }
  - { offsetInCU: 0x11631, offset: 0x11631, size: 0x8, addend: 0x0, symName: __ZN5boost4asio6detail27conditionally_enabled_mutex11scoped_lockC2ERS2_, symObjAddr: 0x1CC4, symBinAddr: 0x1000052B8, symSize: 0xA8 }
  - { offsetInCU: 0x11669, offset: 0x11669, size: 0x8, addend: 0x0, symName: __ZN5boost4asio6detail11posix_mutex4lockEv, symObjAddr: 0x1D6C, symBinAddr: 0x100005360, symSize: 0x24 }
  - { offsetInCU: 0x1168F, offset: 0x1168F, size: 0x8, addend: 0x0, symName: __ZN5boost4asio6detail27conditionally_enabled_event10signal_allERNS1_27conditionally_enabled_mutex11scoped_lockE, symObjAddr: 0x1D90, symBinAddr: 0x100005384, symSize: 0x50 }
  - { offsetInCU: 0x116C3, offset: 0x116C3, size: 0x8, addend: 0x0, symName: __ZN5boost4asio6detail11posix_event10signal_allINS1_27conditionally_enabled_mutex11scoped_lockEEEvRT_, symObjAddr: 0x1DE0, symBinAddr: 0x1000053D4, symSize: 0x70 }
  - { offsetInCU: 0x11700, offset: 0x11700, size: 0x8, addend: 0x0, symName: __ZNK5boost4asio6detail27conditionally_enabled_mutex11scoped_lock6lockedEv, symObjAddr: 0x1E50, symBinAddr: 0x100005444, symSize: 0x1C }
  - { offsetInCU: 0x11726, offset: 0x11726, size: 0x8, addend: 0x0, symName: __ZN5boost4asio6detail27conditionally_enabled_mutex11scoped_lockD2Ev, symObjAddr: 0x1E6C, symBinAddr: 0x100005460, symSize: 0x60 }
  - { offsetInCU: 0x11750, offset: 0x11750, size: 0x8, addend: 0x0, symName: __ZN5boost4asio6detail11posix_mutex6unlockEv, symObjAddr: 0x1ECC, symBinAddr: 0x1000054C0, symSize: 0x24 }
  - { offsetInCU: 0x11776, offset: 0x11776, size: 0x8, addend: 0x0, symName: __ZN5boost4asio6detail12posix_thread4joinEv, symObjAddr: 0x1EF0, symBinAddr: 0x1000054E4, symSize: 0x50 }
  - { offsetInCU: 0x117A3, offset: 0x117A3, size: 0x8, addend: 0x0, symName: __ZN5boost4asio6detail12thread_group4itemD1Ev, symObjAddr: 0x1F40, symBinAddr: 0x100005534, symSize: 0x2C }
  - { offsetInCU: 0x117CF, offset: 0x117CF, size: 0x8, addend: 0x0, symName: __ZN5boost4asio6detail12thread_group4itemD2Ev, symObjAddr: 0x1F6C, symBinAddr: 0x100005560, symSize: 0x2C }
  - { offsetInCU: 0x117FB, offset: 0x117FB, size: 0x8, addend: 0x0, symName: __ZN5boost4asio6detail12posix_threadD1Ev, symObjAddr: 0x1F98, symBinAddr: 0x10000558C, symSize: 0x2C }
  - { offsetInCU: 0x11827, offset: 0x11827, size: 0x8, addend: 0x0, symName: __ZN5boost4asio6detail12posix_threadD2Ev, symObjAddr: 0x1FC4, symBinAddr: 0x1000055B8, symSize: 0x5C }
  - { offsetInCU: 0x11853, offset: 0x11853, size: 0x8, addend: 0x0, symName: __ZN5boost4asio6detail12thread_groupD2Ev, symObjAddr: 0x2020, symBinAddr: 0x100005614, symSize: 0x34 }
  - { offsetInCU: 0x1187D, offset: 0x1187D, size: 0x8, addend: 0x0, symName: __ZN5boost4asio17execution_context8shutdownEv, symObjAddr: 0x2054, symBinAddr: 0x100005648, symSize: 0x28 }
  - { offsetInCU: 0x118A5, offset: 0x118A5, size: 0x8, addend: 0x0, symName: __ZN5boost4asio17execution_context7destroyEv, symObjAddr: 0x207C, symBinAddr: 0x100005670, symSize: 0x28 }
  - { offsetInCU: 0x118CD, offset: 0x118CD, size: 0x8, addend: 0x0, symName: __ZN5boost4asio6detail16service_registryD1Ev, symObjAddr: 0x20A4, symBinAddr: 0x100005698, symSize: 0x2C }
  - { offsetInCU: 0x118F9, offset: 0x118F9, size: 0x8, addend: 0x0, symName: __ZN5boost4asio6detail16service_registry17shutdown_servicesEv, symObjAddr: 0x20D0, symBinAddr: 0x1000056C4, symSize: 0x60 }
  - { offsetInCU: 0x1192F, offset: 0x1192F, size: 0x8, addend: 0x0, symName: __ZN5boost4asio6detail16service_registry16destroy_servicesEv, symObjAddr: 0x2130, symBinAddr: 0x100005724, symSize: 0x68 }
  - { offsetInCU: 0x11974, offset: 0x11974, size: 0x8, addend: 0x0, symName: __ZN5boost4asio6detail16service_registry7destroyEPNS0_17execution_context7serviceE, symObjAddr: 0x2198, symBinAddr: 0x10000578C, symSize: 0x48 }
  - { offsetInCU: 0x11999, offset: 0x11999, size: 0x8, addend: 0x0, symName: __ZN5boost4asio6detail16service_registryD2Ev, symObjAddr: 0x21E0, symBinAddr: 0x1000057D4, symSize: 0x38 }
  - { offsetInCU: 0x119C5, offset: 0x119C5, size: 0x8, addend: 0x0, symName: __ZN5boost4asio6detail11posix_mutexD1Ev, symObjAddr: 0x2218, symBinAddr: 0x10000580C, symSize: 0x2C }
  - { offsetInCU: 0x119EF, offset: 0x119EF, size: 0x8, addend: 0x0, symName: __ZN5boost4asio6detail11posix_mutexD2Ev, symObjAddr: 0x2244, symBinAddr: 0x100005838, symSize: 0x3C }
  - { offsetInCU: 0x4F, offset: 0x11C3A, size: 0x8, addend: 0x0, symName: __ZN5boost4asio5errorL15system_categoryE, symObjAddr: 0x3CD720, symBinAddr: 0x1000AA3C0, symSize: 0x0 }
  - { offsetInCU: 0x69, offset: 0x11C54, size: 0x8, addend: 0x0, symName: __ZN5boost4asio5errorL14netdb_categoryE, symObjAddr: 0x3CD728, symBinAddr: 0x1000AA3C8, symSize: 0x0 }
  - { offsetInCU: 0x83, offset: 0x11C6E, size: 0x8, addend: 0x0, symName: __ZN5boost4asio5errorL17addrinfo_categoryE, symObjAddr: 0x3CD730, symBinAddr: 0x1000AA3D0, symSize: 0x0 }
  - { offsetInCU: 0x9D, offset: 0x11C88, size: 0x8, addend: 0x0, symName: __ZN5boost4asio5errorL13misc_categoryE, symObjAddr: 0x3CD738, symBinAddr: 0x1000AA3D8, symSize: 0x0 }
  - { offsetInCU: 0xB6, offset: 0x11CA1, size: 0x8, addend: 0x0, symName: __ZN5boost4asio5errorL12ssl_categoryE, symObjAddr: 0x3CD740, symBinAddr: 0x1000AA3E0, symSize: 0x0 }
  - { offsetInCU: 0x120, offset: 0x11D0B, size: 0x8, addend: 0x0, symName: __ZN5boost4asio5error16get_ssl_categoryEv, symObjAddr: 0x38, symBinAddr: 0x100005D04, symSize: 0xC }
  - { offsetInCU: 0x149, offset: 0x11D34, size: 0x8, addend: 0x0, symName: __ZZN5boost4asio5error16get_ssl_categoryEvE8instance, symObjAddr: 0x8A8E0, symBinAddr: 0x1000A41C0, symSize: 0x0 }
  - { offsetInCU: 0x28F, offset: 0x11E7A, size: 0x8, addend: 0x0, symName: __ZN5boost4asio5error15make_error_codeENS1_12basic_errorsE, symObjAddr: 0xE7FC, symBinAddr: 0x100012938, symSize: 0x3C }
  - { offsetInCU: 0x2BF, offset: 0x11EAA, size: 0x8, addend: 0x0, symName: __ZN5boost4asio5error15make_error_codeENS1_12netdb_errorsE, symObjAddr: 0x1B418, symBinAddr: 0x10001EF4C, symSize: 0x3C }
  - { offsetInCU: 0x2EF, offset: 0x11EDA, size: 0x8, addend: 0x0, symName: __ZN5boost4asio5error15make_error_codeENS1_15addrinfo_errorsE, symObjAddr: 0x1B4B4, symBinAddr: 0x10001EFE8, symSize: 0x3C }
  - { offsetInCU: 0x31F, offset: 0x11F0A, size: 0x8, addend: 0x0, symName: __ZN5boost4asio5error5clearERNS_6system10error_codeE, symObjAddr: 0x2367C, symBinAddr: 0x1000271B0, symSize: 0x38 }
  - { offsetInCU: 0x348, offset: 0x11F33, size: 0x8, addend: 0x0, symName: __ZN5boost4asio5error15make_error_codeENS1_11misc_errorsE, symObjAddr: 0x2D440, symBinAddr: 0x100030F74, symSize: 0x3C }
  - { offsetInCU: 0x38F, offset: 0x11F7A, size: 0x8, addend: 0x0, symName: __ZN5boost4asio3ssl5errorL15stream_categoryE, symObjAddr: 0x3CD748, symBinAddr: 0x1000AA3E8, symSize: 0x0 }
  - { offsetInCU: 0x39D, offset: 0x11F88, size: 0x8, addend: 0x0, symName: __ZN5boost4asio3ssl5error19get_stream_categoryEv, symObjAddr: 0x44, symBinAddr: 0x100005D10, symSize: 0xC }
  - { offsetInCU: 0x3C6, offset: 0x11FB1, size: 0x8, addend: 0x0, symName: __ZZN5boost4asio3ssl5error19get_stream_categoryEvE8instance, symObjAddr: 0x8A918, symBinAddr: 0x1000A41F8, symSize: 0x0 }
  - { offsetInCU: 0x44B, offset: 0x12036, size: 0x8, addend: 0x0, symName: __ZN5boost4asio3ssl5error15make_error_codeENS2_13stream_errorsE, symObjAddr: 0x2E154, symBinAddr: 0x100031C88, symSize: 0x3C }
  - { offsetInCU: 0x48F, offset: 0x1207A, size: 0x8, addend: 0x0, symName: __ZN5boost4asio3ssl6detail12openssl_initILb1EE9instance_E, symObjAddr: 0x8A7B8, symBinAddr: 0x1000A4178, symSize: 0x0 }
  - { offsetInCU: 0xF70, offset: 0x12B5B, size: 0x8, addend: 0x0, symName: __ZN5boost4asio3ssl6detail2ioINS0_19basic_stream_socketINS0_2ip3tcpENS0_15any_io_executorEEENS2_12handshake_opEEEmRT_RNS2_11stream_coreERKT0_RNS_6system10error_codeE, symObjAddr: 0x2D608, symBinAddr: 0x10003113C, symSize: 0x26C }
  - { offsetInCU: 0x1003, offset: 0x12BEE, size: 0x8, addend: 0x0, symName: __ZN5boost4asio3ssl6detail2ioINS0_19basic_stream_socketINS0_2ip3tcpENS0_15any_io_executorEEENS2_8write_opINS_5beast6detail11buffers_refINSA_19buffers_prefix_viewIRKNSA_14buffers_suffixINSA_16buffers_cat_viewIJNSC_INSF_IJNS0_12const_bufferESG_SG_NSA_4http12basic_fieldsINSt3__19allocatorIcEEE6writer11field_rangeENSH_10chunk_crlfEEEEEESG_EEEEEEEEEEEEEmRT_RNS2_11stream_coreERKT0_RNS_6system10error_codeE, symObjAddr: 0x4ADFC, symBinAddr: 0x10004E930, symSize: 0x26C }
  - { offsetInCU: 0x1096, offset: 0x12C81, size: 0x8, addend: 0x0, symName: __ZN5boost4asio3ssl6detail2ioINS0_19basic_stream_socketINS0_2ip3tcpENS0_15any_io_executorEEENS2_8write_opINS_5beast6detail11buffers_refINSA_19buffers_prefix_viewIRKNSA_14buffers_suffixINSC_INSA_16buffers_cat_viewIJNS0_12const_bufferESG_SG_NSA_4http12basic_fieldsINSt3__19allocatorIcEEE6writer11field_rangeENSH_10chunk_crlfEEEEEEEEEEEEEEEEmRT_RNS2_11stream_coreERKT0_RNS_6system10error_codeE, symObjAddr: 0x4CA94, symBinAddr: 0x1000505C8, symSize: 0x26C }
  - { offsetInCU: 0x1129, offset: 0x12D14, size: 0x8, addend: 0x0, symName: __ZN5boost4asio3ssl6detail2ioINS0_19basic_stream_socketINS0_2ip3tcpENS0_15any_io_executorEEENS2_8write_opINS_5beast6detail11buffers_refINSA_19buffers_prefix_viewIRKNSA_14buffers_suffixINS0_12const_bufferEEEEEEEEEEEmRT_RNS2_11stream_coreERKT0_RNS_6system10error_codeE, symObjAddr: 0x4DF2C, symBinAddr: 0x100051A60, symSize: 0x26C }
  - { offsetInCU: 0x11BC, offset: 0x12DA7, size: 0x8, addend: 0x0, symName: __ZN5boost4asio3ssl6detail2ioINS0_19basic_stream_socketINS0_2ip3tcpENS0_15any_io_executorEEENS2_8write_opINS_5beast6detail11buffers_refINSA_19buffers_prefix_viewIRKNSA_14buffers_suffixINSA_16buffers_cat_viewIJNSC_INSF_IJNS0_12const_bufferESG_SG_NSA_4http12basic_fieldsINSt3__19allocatorIcEEE6writer11field_rangeENSH_10chunk_crlfEEEEEENSH_6detail10chunk_sizeESG_SP_SG_SP_EEEEEEEEEEEEEmRT_RNS2_11stream_coreERKT0_RNS_6system10error_codeE, symObjAddr: 0x53F00, symBinAddr: 0x100057A34, symSize: 0x26C }
  - { offsetInCU: 0x124F, offset: 0x12E3A, size: 0x8, addend: 0x0, symName: __ZN5boost4asio3ssl6detail2ioINS0_19basic_stream_socketINS0_2ip3tcpENS0_15any_io_executorEEENS2_8write_opINS_5beast6detail11buffers_refINSA_19buffers_prefix_viewIRKNSA_14buffers_suffixINSA_16buffers_cat_viewIJNSA_4http6detail10chunk_sizeENS0_12const_bufferENSG_10chunk_crlfESJ_SK_EEEEEEEEEEEEEmRT_RNS2_11stream_coreERKT0_RNS_6system10error_codeE, symObjAddr: 0x58BF8, symBinAddr: 0x10005C72C, symSize: 0x26C }
  - { offsetInCU: 0x12E2, offset: 0x12ECD, size: 0x8, addend: 0x0, symName: __ZN5boost4asio3ssl6detail2ioINS0_19basic_stream_socketINS0_2ip3tcpENS0_15any_io_executorEEENS2_8write_opINS_5beast6detail11buffers_refINSA_19buffers_prefix_viewIRKNSA_14buffers_suffixINSA_16buffers_cat_viewIJNSA_4http6detail10chunk_sizeENS0_12const_bufferENSG_10chunk_crlfESJ_SK_SJ_SJ_SK_EEEEEEEEEEEEEmRT_RNS2_11stream_coreERKT0_RNS_6system10error_codeE, symObjAddr: 0x5BC6C, symBinAddr: 0x10005F7A0, symSize: 0x26C }
  - { offsetInCU: 0x1375, offset: 0x12F60, size: 0x8, addend: 0x0, symName: __ZN5boost4asio3ssl6detail2ioINS0_19basic_stream_socketINS0_2ip3tcpENS0_15any_io_executorEEENS2_8write_opINS_5beast6detail11buffers_refINSA_19buffers_prefix_viewIRKNSA_14buffers_suffixINSA_16buffers_cat_viewIJNSC_INSF_IJNS0_12const_bufferESG_SG_NSA_4http12basic_fieldsINSt3__19allocatorIcEEE6writer11field_rangeENSH_10chunk_crlfEEEEEENSH_6detail10chunk_sizeESG_SP_SG_SP_SG_SG_SP_EEEEEEEEEEEEEmRT_RNS2_11stream_coreERKT0_RNS_6system10error_codeE, symObjAddr: 0x5EEC8, symBinAddr: 0x1000629FC, symSize: 0x26C }
  - { offsetInCU: 0x1408, offset: 0x12FF3, size: 0x8, addend: 0x0, symName: __ZN5boost4asio3ssl6detail2ioINS0_19basic_stream_socketINS0_2ip3tcpENS0_15any_io_executorEEENS2_8write_opINS_5beast6detail11buffers_refINSA_19buffers_prefix_viewIRKNSA_14buffers_suffixINSA_16buffers_cat_viewIJNS0_12const_bufferESG_NSA_4http10chunk_crlfEEEEEEEEEEEEEEmRT_RNS2_11stream_coreERKT0_RNS_6system10error_codeE, symObjAddr: 0x61EC0, symBinAddr: 0x1000659F4, symSize: 0x26C }
  - { offsetInCU: 0x149B, offset: 0x13086, size: 0x8, addend: 0x0, symName: __ZN5boost4asio3ssl6detail2ioINS0_19basic_stream_socketINS0_2ip3tcpENS0_15any_io_executorEEENS2_7read_opINS_5beast6detail12buffers_pairILb1EEEEEEEmRT_RNS2_11stream_coreERKT0_RNS_6system10error_codeE, symObjAddr: 0x6EC70, symBinAddr: 0x1000727A4, symSize: 0x26C }
  - { offsetInCU: 0x152E, offset: 0x13119, size: 0x8, addend: 0x0, symName: __ZN5boost4asio3ssl6detail2ioINS0_19basic_stream_socketINS0_2ip3tcpENS0_15any_io_executorEEENS2_7read_opINS0_14mutable_bufferEEEEEmRT_RNS2_11stream_coreERKT0_RNS_6system10error_codeE, symObjAddr: 0x705D0, symBinAddr: 0x100074104, symSize: 0x26C }
  - { offsetInCU: 0x15C1, offset: 0x131AC, size: 0x8, addend: 0x0, symName: __ZN5boost4asio3ssl6detail2ioINS0_19basic_stream_socketINS0_2ip3tcpENS0_15any_io_executorEEENS2_8write_opINS0_12const_bufferEEEEEmRT_RNS2_11stream_coreERKT0_RNS_6system10error_codeE, symObjAddr: 0x78F94, symBinAddr: 0x10007CAC8, symSize: 0x26C }
  - { offsetInCU: 0x1654, offset: 0x1323F, size: 0x8, addend: 0x0, symName: __ZN5boost4asio3ssl6detail2ioINS0_19basic_stream_socketINS0_2ip3tcpENS0_15any_io_executorEEENS2_11shutdown_opEEEmRT_RNS2_11stream_coreERKT0_RNS_6system10error_codeE, symObjAddr: 0x7A27C, symBinAddr: 0x10007DDB0, symSize: 0x26C }
  - { offsetInCU: 0x3A44, offset: 0x1562F, size: 0x8, addend: 0x0, symName: __ZN5boost4asio6detail30execution_context_service_baseINS1_16resolver_serviceINS0_2ip3tcpEEEE2idE, symObjAddr: 0x8A7D0, symBinAddr: 0x1000A4190, symSize: 0x0 }
  - { offsetInCU: 0x3F81, offset: 0x15B6C, size: 0x8, addend: 0x0, symName: __ZN5boost4asio6detail10socket_ops11getaddrinfoEPKcS4_RK8addrinfoPPS5_RNS_6system10error_codeE, symObjAddr: 0x1AA8C, symBinAddr: 0x10001E5C0, symSize: 0x250 }
  - { offsetInCU: 0x4093, offset: 0x15C7E, size: 0x8, addend: 0x0, symName: __ZN5boost4asio6detail10socket_ops16clear_last_errorEv, symObjAddr: 0x1B0D4, symBinAddr: 0x10001EC08, symSize: 0x18 }
  - { offsetInCU: 0x40AE, offset: 0x15C99, size: 0x8, addend: 0x0, symName: __ZN5boost4asio6detail10socket_ops21host_to_network_shortEt, symObjAddr: 0x1B114, symBinAddr: 0x10001EC48, symSize: 0x38 }
  - { offsetInCU: 0x40E0, offset: 0x15CCB, size: 0x8, addend: 0x0, symName: __ZN5boost4asio6detail10socket_ops24translate_addrinfo_errorEi, symObjAddr: 0x1B14C, symBinAddr: 0x10001EC80, symSize: 0x124 }
  - { offsetInCU: 0x4112, offset: 0x15CFD, size: 0x8, addend: 0x0, symName: __ZN5boost4asio6detail10socket_ops12freeaddrinfoEP8addrinfo, symObjAddr: 0x1E60C, symBinAddr: 0x100022140, symSize: 0x24 }
  - { offsetInCU: 0x4140, offset: 0x15D2B, size: 0x8, addend: 0x0, symName: __ZN5boost4asio6detail10socket_ops5closeEiRhbRNS_6system10error_codeE, symObjAddr: 0x22F8C, symBinAddr: 0x100026AC0, symSize: 0x288 }
  - { offsetInCU: 0x422A, offset: 0x15E15, size: 0x8, addend: 0x0, symName: __ZN5boost4asio6detail10socket_ops10setsockoptEiRhiiPKvmRNS_6system10error_codeE, symObjAddr: 0x23270, symBinAddr: 0x100026DA4, symSize: 0x250 }
  - { offsetInCU: 0x42D3, offset: 0x15EBE, size: 0x8, addend: 0x0, symName: __ZN5boost4asio6detail10socket_ops14get_last_errorERNS_6system10error_codeEb, symObjAddr: 0x234C0, symBinAddr: 0x100026FF4, symSize: 0x78 }
  - { offsetInCU: 0x430F, offset: 0x15EFA, size: 0x8, addend: 0x0, symName: __ZN5boost4asio6detail10socket_ops15call_setsockoptIjEEiM6msghdrT_iiiPKvm, symObjAddr: 0x236B4, symBinAddr: 0x1000271E8, symSize: 0x4C }
  - { offsetInCU: 0x439B, offset: 0x15F86, size: 0x8, addend: 0x0, symName: __ZN5boost4asio6detail10socket_ops6socketEiiiRNS_6system10error_codeE, symObjAddr: 0x2C9E4, symBinAddr: 0x100030518, symSize: 0xE8 }
  - { offsetInCU: 0x4433, offset: 0x1601E, size: 0x8, addend: 0x0, symName: __ZN5boost4asio6detail10socket_ops12sync_connectEiPKvmRNS_6system10error_codeE, symObjAddr: 0x2CE20, symBinAddr: 0x100030954, symSize: 0x14C }
  - { offsetInCU: 0x44B8, offset: 0x160A3, size: 0x8, addend: 0x0, symName: __ZN5boost4asio6detail10socket_ops7connectEiPKvmRNS_6system10error_codeE, symObjAddr: 0x2CFB4, symBinAddr: 0x100030AE8, symSize: 0x94 }
  - { offsetInCU: 0x452E, offset: 0x16119, size: 0x8, addend: 0x0, symName: __ZN5boost4asio6detail10socket_ops12poll_connectEiiRNS_6system10error_codeE, symObjAddr: 0x2D07C, symBinAddr: 0x100030BB0, symSize: 0xA0 }
  - { offsetInCU: 0x45A4, offset: 0x1618F, size: 0x8, addend: 0x0, symName: __ZN5boost4asio6detail10socket_ops10getsockoptEihiiPvPmRNS_6system10error_codeE, symObjAddr: 0x2D11C, symBinAddr: 0x100030C50, symSize: 0x17C }
  - { offsetInCU: 0x464D, offset: 0x16238, size: 0x8, addend: 0x0, symName: __ZN5boost4asio6detail10socket_ops12call_connectIjEEiM6msghdrT_iPKvm, symObjAddr: 0x2D298, symBinAddr: 0x100030DCC, symSize: 0x3C }
  - { offsetInCU: 0x46B7, offset: 0x162A2, size: 0x8, addend: 0x0, symName: __ZN5boost4asio6detail10socket_ops15call_getsockoptIjEEiM6msghdrT_iiiPvPm, symObjAddr: 0x2D2D4, symBinAddr: 0x100030E08, symSize: 0x68 }
  - { offsetInCU: 0x4765, offset: 0x16350, size: 0x8, addend: 0x0, symName: __ZN5boost4asio6detail10socket_ops10sync_recv1EihPvmiRNS_6system10error_codeE, symObjAddr: 0x2E25C, symBinAddr: 0x100031D90, symSize: 0x1E4 }
  - { offsetInCU: 0x480C, offset: 0x163F7, size: 0x8, addend: 0x0, symName: __ZN5boost4asio6detail10socket_ops5recv1EiPvmiRNS_6system10error_codeE, symObjAddr: 0x2E464, symBinAddr: 0x100031F98, symSize: 0x60 }
  - { offsetInCU: 0x4893, offset: 0x1647E, size: 0x8, addend: 0x0, symName: __ZN5boost4asio6detail10socket_ops9poll_readEihiRNS_6system10error_codeE, symObjAddr: 0x2E4C4, symBinAddr: 0x100031FF8, symSize: 0x114 }
  - { offsetInCU: 0x492B, offset: 0x16516, size: 0x8, addend: 0x0, symName: __ZN5boost4asio6detail10socket_ops10sync_send1EihPKvmiRNS_6system10error_codeE, symObjAddr: 0x2EBB8, symBinAddr: 0x1000326EC, symSize: 0x1A8 }
  - { offsetInCU: 0x49D2, offset: 0x165BD, size: 0x8, addend: 0x0, symName: __ZN5boost4asio6detail10socket_ops5send1EiPKvmiRNS_6system10error_codeE, symObjAddr: 0x2ED84, symBinAddr: 0x1000328B8, symSize: 0x60 }
  - { offsetInCU: 0x4A59, offset: 0x16644, size: 0x8, addend: 0x0, symName: __ZN5boost4asio6detail10socket_ops10poll_writeEihiRNS_6system10error_codeE, symObjAddr: 0x2EDE4, symBinAddr: 0x100032918, symSize: 0x114 }
  - { offsetInCU: 0x4AF1, offset: 0x166DC, size: 0x8, addend: 0x0, symName: __ZN5boost4asio6detail10socket_ops8shutdownEiiRNS_6system10error_codeE, symObjAddr: 0x7A6F4, symBinAddr: 0x10007E228, symSize: 0x88 }
  - { offsetInCU: 0x4C09, offset: 0x167F4, size: 0x8, addend: 0x0, symName: __ZN5boost4asio6detail30execution_context_service_baseINS1_23reactive_socket_serviceINS0_2ip3tcpEEEE2idE, symObjAddr: 0x8A7E0, symBinAddr: 0x1000A41A0, symSize: 0x0 }
  - { offsetInCU: 0x539B, offset: 0x16F86, size: 0x8, addend: 0x0, symName: __ZN5boost4asio6detail30execution_context_service_baseINS1_22deadline_timer_serviceINS1_18chrono_time_traitsINSt3__16chrono12steady_clockENS0_11wait_traitsIS7_EEEEEEE2idE, symObjAddr: 0x8A7F0, symBinAddr: 0x1000A41B0, symSize: 0x0 }
  - { offsetInCU: 0x63B7, offset: 0x17FA2, size: 0x8, addend: 0x0, symName: __ZN5boost4asio6detail11throw_errorERKNS_6system10error_codeEPKcRKNS_15source_locationE, symObjAddr: 0x50A8, symBinAddr: 0x100009B04, symSize: 0x48 }
  - { offsetInCU: 0x66DF, offset: 0x182CA, size: 0x8, addend: 0x0, symName: __ZN5boost4asio6detail14do_throw_errorERKNS_6system10error_codeEPKcRKNS_15source_locationE, symObjAddr: 0x514C, symBinAddr: 0x100009BA8, symSize: 0x60 }
  - { offsetInCU: 0x673B, offset: 0x18326, size: 0x8, addend: 0x0, symName: __ZN5boost4asio6detail11throw_errorERKNS_6system10error_codeERKNS_15source_locationE, symObjAddr: 0x78C0, symBinAddr: 0x10000C1B8, symSize: 0x40 }
  - { offsetInCU: 0x6777, offset: 0x18362, size: 0x8, addend: 0x0, symName: __ZN5boost4asio6detail10config_getIbEET_RKNS0_14config_serviceEPKcS8_S3_NSt3__117integral_constantIbLb1EEE, symObjAddr: 0x8694, symBinAddr: 0x10000CF8C, symSize: 0x13C }
  - { offsetInCU: 0x6827, offset: 0x18412, size: 0x8, addend: 0x0, symName: __ZN5boost4asio6detail10config_getIiEET_RKNS0_14config_serviceEPKcS8_S3_NSt3__117integral_constantIbLb0EEE, symObjAddr: 0x8E08, symBinAddr: 0x10000D700, symSize: 0x130 }
  - { offsetInCU: 0x68DF, offset: 0x184CA, size: 0x8, addend: 0x0, symName: __ZN5boost4asio6detail10config_getIjEET_RKNS0_14config_serviceEPKcS8_S3_NSt3__117integral_constantIbLb0EEE, symObjAddr: 0x9190, symBinAddr: 0x10000DA88, symSize: 0x110 }
  - { offsetInCU: 0x6C1B, offset: 0x18806, size: 0x8, addend: 0x0, symName: __ZN5boost4asio6detail14do_throw_errorERKNS_6system10error_codeERKNS_15source_locationE, symObjAddr: 0x9838, symBinAddr: 0x10000E130, symSize: 0x58 }
  - { offsetInCU: 0x6CDD, offset: 0x188C8, size: 0x8, addend: 0x0, symName: __ZN5boost4asio6detail10config_getIlEET_RKNS0_14config_serviceEPKcS8_S3_NSt3__117integral_constantIbLb0EEE, symObjAddr: 0xB570, symBinAddr: 0x10000FC50, symSize: 0x130 }
  - { offsetInCU: 0x6D96, offset: 0x18981, size: 0x8, addend: 0x0, symName: __ZN5boost4asio6detail9incrementERNSt3__16atomicIlEEl, symObjAddr: 0xCDD8, symBinAddr: 0x1000112EC, symSize: 0x2C }
  - { offsetInCU: 0x718A, offset: 0x18D75, size: 0x8, addend: 0x0, symName: __ZN5boost4asio6detail20deref_connect_resultINS0_2ip3tcpENS3_23basic_resolver_iteratorIS4_EEEENT_8endpointET0_RNS_6system10error_codeE, symObjAddr: 0x2B8D4, symBinAddr: 0x10002F408, symSize: 0x5C }
  - { offsetInCU: 0x71D7, offset: 0x18DC2, size: 0x8, addend: 0x0, symName: __ZN5boost4asio6detail22call_connect_conditionINS1_25default_connect_conditionENS0_2ip23basic_resolver_iteratorINS4_3tcpEEEEET0_RT_RKNS_6system10error_codeES8_S8_NS0_10constraintIXsr7is_sameINS0_9result_ofIFS9_SC_DTdecl7declvalIS8_EEEEE4typeEbEE5valueEiE4typeE, symObjAddr: 0x2BDF4, symBinAddr: 0x10002F928, symSize: 0xB4 }
  - { offsetInCU: 0x74D3, offset: 0x190BE, size: 0x8, addend: 0x0, symName: __ZN5boost4asio6detail5writeINS0_19basic_stream_socketINS0_2ip3tcpENS0_15any_io_executorEEENS0_14mutable_bufferEPKS8_NS1_14transfer_all_tEEEmRT_RKT0_RKT1_T2_RNS_6system10error_codeE, symObjAddr: 0x2E7D8, symBinAddr: 0x10003230C, symSize: 0xF8 }
  - { offsetInCU: 0x7682, offset: 0x1926D, size: 0x8, addend: 0x0, symName: __ZN5boost4asio6detail33adapt_completion_condition_resultEm, symObjAddr: 0x2E958, symBinAddr: 0x10003248C, symSize: 0x14 }
  - { offsetInCU: 0x798D, offset: 0x19578, size: 0x8, addend: 0x0, symName: __ZN5boost4asio6detail11buffer_copyIPKNS0_14mutable_bufferEPKNS0_12const_bufferEEEmNS1_10one_bufferES9_T_SA_T0_SB_, symObjAddr: 0x4BA10, symBinAddr: 0x10004F544, symSize: 0x44 }
  - { offsetInCU: 0x7A0F, offset: 0x195FA, size: 0x8, addend: 0x0, symName: __ZN5boost4asio6detail13buffer_copy_1ERKNS0_14mutable_bufferERKNS0_12const_bufferE, symObjAddr: 0x4BA70, symBinAddr: 0x10004F5A4, symSize: 0xB0 }
  - { offsetInCU: 0x8466, offset: 0x1A051, size: 0x8, addend: 0x0, symName: __ZN5boost4asio6detail11buffer_sizeINS_5beast14buffers_suffixINS3_16buffers_cat_viewIJNS3_6detail11buffers_refINS5_IJNS0_12const_bufferES8_S8_NS3_4http12basic_fieldsINSt3__19allocatorIcEEE6writer11field_rangeENS9_10chunk_crlfEEEEEES8_EEEE14const_iteratorEEEmNS1_16multiple_buffersET_SO_, symObjAddr: 0x63AA0, symBinAddr: 0x1000675D4, symSize: 0x100 }
  - { offsetInCU: 0x84FF, offset: 0x1A0EA, size: 0x8, addend: 0x0, symName: __ZN5boost4asio6detail11buffer_sizeINS_5beast14buffers_suffixINS3_6detail11buffers_refINS3_16buffers_cat_viewIJNS0_12const_bufferES8_S8_NS3_4http12basic_fieldsINSt3__19allocatorIcEEE6writer11field_rangeENS9_10chunk_crlfEEEEEEE14const_iteratorEEEmNS1_16multiple_buffersET_SN_, symObjAddr: 0x63D18, symBinAddr: 0x10006784C, symSize: 0x100 }
  - { offsetInCU: 0x8596, offset: 0x1A181, size: 0x8, addend: 0x0, symName: __ZN5boost4asio6detail11buffer_sizeINS_5beast14buffers_suffixINS0_12const_bufferEE14const_iteratorEEEmNS1_16multiple_buffersET_S9_, symObjAddr: 0x63F6C, symBinAddr: 0x100067AA0, symSize: 0x98 }
  - { offsetInCU: 0x862A, offset: 0x1A215, size: 0x8, addend: 0x0, symName: __ZN5boost4asio6detail11buffer_sizeINS_5beast14buffers_suffixINS3_16buffers_cat_viewIJNS3_6detail11buffers_refINS5_IJNS0_12const_bufferES8_S8_NS3_4http12basic_fieldsINSt3__19allocatorIcEEE6writer11field_rangeENS9_10chunk_crlfEEEEEENS9_6detail10chunk_sizeES8_SH_S8_SH_EEEE14const_iteratorEEEmNS1_16multiple_buffersET_SQ_, symObjAddr: 0x6411C, symBinAddr: 0x100067C50, symSize: 0x100 }
  - { offsetInCU: 0x86C3, offset: 0x1A2AE, size: 0x8, addend: 0x0, symName: __ZN5boost4asio6detail11buffer_sizeINS_5beast14buffers_suffixINS3_16buffers_cat_viewIJNS3_4http6detail10chunk_sizeENS0_12const_bufferENS6_10chunk_crlfES9_SA_EEEE14const_iteratorEEEmNS1_16multiple_buffersET_SF_, symObjAddr: 0x64394, symBinAddr: 0x100067EC8, symSize: 0x100 }
  - { offsetInCU: 0x875A, offset: 0x1A345, size: 0x8, addend: 0x0, symName: __ZN5boost4asio6detail11buffer_sizeINS_5beast14buffers_suffixINS3_16buffers_cat_viewIJNS3_4http6detail10chunk_sizeENS0_12const_bufferENS6_10chunk_crlfES9_SA_S9_S9_SA_EEEE14const_iteratorEEEmNS1_16multiple_buffersET_SF_, symObjAddr: 0x6460C, symBinAddr: 0x100068140, symSize: 0x100 }
  - { offsetInCU: 0x87F1, offset: 0x1A3DC, size: 0x8, addend: 0x0, symName: __ZN5boost4asio6detail11buffer_sizeINS_5beast14buffers_suffixINS3_16buffers_cat_viewIJNS3_6detail11buffers_refINS5_IJNS0_12const_bufferES8_S8_NS3_4http12basic_fieldsINSt3__19allocatorIcEEE6writer11field_rangeENS9_10chunk_crlfEEEEEENS9_6detail10chunk_sizeES8_SH_S8_SH_S8_S8_SH_EEEE14const_iteratorEEEmNS1_16multiple_buffersET_SQ_, symObjAddr: 0x64884, symBinAddr: 0x1000683B8, symSize: 0x100 }
  - { offsetInCU: 0x888A, offset: 0x1A475, size: 0x8, addend: 0x0, symName: __ZN5boost4asio6detail11buffer_sizeINS_5beast14buffers_suffixINS3_16buffers_cat_viewIJNS0_12const_bufferES6_NS3_4http10chunk_crlfEEEEE14const_iteratorEEEmNS1_16multiple_buffersET_SD_, symObjAddr: 0x64AFC, symBinAddr: 0x100068630, symSize: 0x100 }
  - { offsetInCU: 0x8921, offset: 0x1A50C, size: 0x8, addend: 0x0, symName: __ZN5boost4asio6detail11buffer_sizeIPKNS0_14mutable_bufferEEEmNS1_16multiple_buffersET_S7_, symObjAddr: 0x6E614, symBinAddr: 0x100072148, symSize: 0x84 }
  - { offsetInCU: 0x8B19, offset: 0x1A704, size: 0x8, addend: 0x0, symName: __ZN5boost4asio6detail11buffer_copyIPKNS0_14mutable_bufferES5_EEmNS1_10one_bufferENS1_16multiple_buffersET_S8_T0_S9_m, symObjAddr: 0x6F464, symBinAddr: 0x100072F98, symSize: 0xF0 }
  - { offsetInCU: 0x8C1E, offset: 0x1A809, size: 0x8, addend: 0x0, symName: __ZN5boost4asio6detail11buffer_copyIPKNS0_14mutable_bufferES5_EEmNS1_10one_bufferES6_T_S7_T0_S8_, symObjAddr: 0x701CC, symBinAddr: 0x100073D00, symSize: 0x4C }
  - { offsetInCU: 0x8CA0, offset: 0x1A88B, size: 0x8, addend: 0x0, symName: __ZN5boost4asio6detail11buffer_copyIPKNS0_14mutable_bufferES5_EEmNS1_16multiple_buffersENS1_10one_bufferET_S8_T0_S9_m, symObjAddr: 0x70A60, symBinAddr: 0x100074594, symSize: 0xFC }
  - { offsetInCU: 0x8DA5, offset: 0x1A990, size: 0x8, addend: 0x0, symName: __ZN5boost4asio6detail5writeINS0_3ssl6streamINS0_19basic_stream_socketINS0_2ip3tcpENS0_15any_io_executorEEEEENS0_14mutable_bufferEPKSB_NS1_14transfer_all_tEEEmRT_RKT0_RKT1_T2_RNS_6system10error_codeE, symObjAddr: 0x78E48, symBinAddr: 0x10007C97C, symSize: 0xF8 }
  - { offsetInCU: 0x8E5C, offset: 0x1AA47, size: 0x8, addend: 0x0, symName: __ZN5boost4asio6detail11buffer_copyIPKNS0_14mutable_bufferENS_5beast14buffers_suffixINS6_6detail12buffers_pairILb0EEEE14const_iteratorEEEmNS1_10one_bufferENS1_16multiple_buffersET_SF_T0_SG_m, symObjAddr: 0x799EC, symBinAddr: 0x10007D520, symSize: 0x118 }
  - { offsetInCU: 0x8F5B, offset: 0x1AB46, size: 0x8, addend: 0x0, symName: __ZN5boost4asio6detail11buffer_sizeINS_5beast14buffers_suffixINS3_6detail12buffers_pairILb0EEEE14const_iteratorEEEmNS1_16multiple_buffersET_SB_, symObjAddr: 0x79E94, symBinAddr: 0x10007D9C8, symSize: 0x98 }
  - { offsetInCU: 0x8FEF, offset: 0x1ABDA, size: 0x8, addend: 0x0, symName: __ZN5boost4asio6detail11buffer_sizeINS_5beast19buffers_prefix_viewINS3_6detail12buffers_pairILb1EEEE14const_iteratorEEEmNS1_16multiple_buffersET_SB_, symObjAddr: 0x7B290, symBinAddr: 0x10007EDC4, symSize: 0xB0 }
  - { offsetInCU: 0x9086, offset: 0x1AC71, size: 0x8, addend: 0x0, symName: __ZN5boost4asio6detail11buffer_copyIPKNS0_14mutable_bufferENS_5beast19buffers_prefix_viewINS6_6detail12buffers_pairILb1EEEE14const_iteratorEEEmNS1_16multiple_buffersESD_T_SE_T0_SF_, symObjAddr: 0x7B58C, symBinAddr: 0x10007F0C0, symSize: 0x1C8 }
  - { offsetInCU: 0xC772, offset: 0x1E35D, size: 0x8, addend: 0x0, symName: __ZN5boost4asio9execution6detail10blocking_tILi0EE5neverE, symObjAddr: 0x86BC0, symBinAddr: 0x100092820, symSize: 0x0 }
  - { offsetInCU: 0xC785, offset: 0x1E370, size: 0x8, addend: 0x0, symName: __ZN5boost4asio9execution6detail10blocking_tILi0EE8possiblyE, symObjAddr: 0x86BC1, symBinAddr: 0x100092821, symSize: 0x0 }
  - { offsetInCU: 0xC798, offset: 0x1E383, size: 0x8, addend: 0x0, symName: __ZN5boost4asio9execution6detail10blocking_tILi0EE6alwaysE, symObjAddr: 0x86AC0, symBinAddr: 0x100092720, symSize: 0x0 }
  - { offsetInCU: 0xCB0A, offset: 0x1E6F5, size: 0x8, addend: 0x0, symName: __ZN5boost4asio9execution6detail14relationship_tILi0EE12continuationE, symObjAddr: 0x86C80, symBinAddr: 0x1000928E0, symSize: 0x0 }
  - { offsetInCU: 0xCB1D, offset: 0x1E708, size: 0x8, addend: 0x0, symName: __ZN5boost4asio9execution6detail14relationship_tILi0EE4forkE, symObjAddr: 0x86C81, symBinAddr: 0x1000928E1, symSize: 0x0 }
  - { offsetInCU: 0xCB2B, offset: 0x1E716, size: 0x8, addend: 0x0, symName: __ZN5boost4asio9execution6detaileqERKNS2_10blocking_tILi0EEES6_, symObjAddr: 0x11F14, symBinAddr: 0x100015A48, symSize: 0x30 }
  - { offsetInCU: 0xCB85, offset: 0x1E770, size: 0x8, addend: 0x0, symName: __ZN5boost4asio9execution8blockingE, symObjAddr: 0x86ABC, symBinAddr: 0x10009271C, symSize: 0x0 }
  - { offsetInCU: 0xCF82, offset: 0x1EB6D, size: 0x8, addend: 0x0, symName: __ZN5boost4asio9execution7contextE, symObjAddr: 0x86BC2, symBinAddr: 0x100092822, symSize: 0x0 }
  - { offsetInCU: 0xCF9D, offset: 0x1EB88, size: 0x8, addend: 0x0, symName: __ZN5boost4asio9execution12relationshipE, symObjAddr: 0x86C7C, symBinAddr: 0x1000928DC, symSize: 0x0 }
  - { offsetInCU: 0xD017, offset: 0x1EC02, size: 0x8, addend: 0x0, symName: __ZN5boost4asio9execution5queryINS0_10io_context19basic_executor_typeINSt3__19allocatorIvEELm0EEERNS0_17execution_contextEEET0_RKT_RKNS1_12context_as_tISB_EEPNS5_9enable_ifIXsr7is_sameISA_SB_EE5valueEvE4typeEPNSJ_IXsr9can_queryISE_RKNS1_6detail9context_tILi0EEEEE5valueEvE4typeE, symObjAddr: 0x14ADC, symBinAddr: 0x100018610, symSize: 0x40 }
  - { offsetInCU: 0xD076, offset: 0x1EC61, size: 0x8, addend: 0x0, symName: __ZN5boost4asio9execution5queryINS0_10io_context19basic_executor_typeINSt3__19allocatorIvEELm0EEENS1_6detail8blocking10possibly_tILi0EEEEENS0_12query_resultIRKT_RKSC_E4typeESG_RKNS1_11prefer_onlyIT0_EEPNS5_9enable_ifIXsr7is_sameISM_SC_EE5valueEvE4typeEPNSQ_IXsr9can_queryISG_SI_EE5valueEvE4typeE, symObjAddr: 0x16310, symBinAddr: 0x100019E44, symSize: 0x44 }
  - { offsetInCU: 0xD0D8, offset: 0x1ECC3, size: 0x8, addend: 0x0, symName: __ZN5boost4asio9execution6preferINS0_10io_context19basic_executor_typeINSt3__19allocatorIvEELm0EEENS1_6detail8blocking10possibly_tILi0EEEEENS0_13prefer_resultIRKT_JRKSC_EE4typeESG_RKNS1_11prefer_onlyIT0_EEPNS5_9enable_ifIXsr7is_sameISM_SC_EE5valueEvE4typeEPNSQ_IXsr10can_preferISG_SI_EE5valueEvE4typeE, symObjAddr: 0x1649C, symBinAddr: 0x100019FD0, symSize: 0x44 }
  - { offsetInCU: 0xD13A, offset: 0x1ED25, size: 0x8, addend: 0x0, symName: __ZN5boost4asio9execution6preferINS0_10io_context19basic_executor_typeINSt3__19allocatorIvEELm0EEENS1_6detail16outstanding_work9tracked_tILi0EEEEENS0_13prefer_resultIRKT_JRKSC_EE4typeESG_RKNS1_11prefer_onlyIT0_EEPNS5_9enable_ifIXsr7is_sameISM_SC_EE5valueEvE4typeEPNSQ_IXsr10can_preferISG_SI_EE5valueEvE4typeE, symObjAddr: 0x167B8, symBinAddr: 0x10001A2EC, symSize: 0x44 }
  - { offsetInCU: 0xD19C, offset: 0x1ED87, size: 0x8, addend: 0x0, symName: __ZN5boost4asio9execution5queryINS0_10io_context19basic_executor_typeINSt3__19allocatorIvEELm4EEERNS0_17execution_contextEEET0_RKT_RKNS1_12context_as_tISB_EEPNS5_9enable_ifIXsr7is_sameISA_SB_EE5valueEvE4typeEPNSJ_IXsr9can_queryISE_RKNS1_6detail9context_tILi0EEEEE5valueEvE4typeE, symObjAddr: 0x17914, symBinAddr: 0x10001B448, symSize: 0x40 }
  - { offsetInCU: 0xD1FB, offset: 0x1EDE6, size: 0x8, addend: 0x0, symName: __ZN5boost4asio9execution5queryINS0_10io_context19basic_executor_typeINSt3__19allocatorIvEELm4EEENS1_6detail8blocking10possibly_tILi0EEEEENS0_12query_resultIRKT_RKSC_E4typeESG_RKNS1_11prefer_onlyIT0_EEPNS5_9enable_ifIXsr7is_sameISM_SC_EE5valueEvE4typeEPNSQ_IXsr9can_queryISG_SI_EE5valueEvE4typeE, symObjAddr: 0x17DF0, symBinAddr: 0x10001B924, symSize: 0x44 }
  - { offsetInCU: 0xD25D, offset: 0x1EE48, size: 0x8, addend: 0x0, symName: __ZN5boost4asio9execution6preferINS0_10io_context19basic_executor_typeINSt3__19allocatorIvEELm4EEENS1_6detail8blocking10possibly_tILi0EEEEENS0_13prefer_resultIRKT_JRKSC_EE4typeESG_RKNS1_11prefer_onlyIT0_EEPNS5_9enable_ifIXsr7is_sameISM_SC_EE5valueEvE4typeEPNSQ_IXsr10can_preferISG_SI_EE5valueEvE4typeE, symObjAddr: 0x17F7C, symBinAddr: 0x10001BAB0, symSize: 0x44 }
  - { offsetInCU: 0xD2BF, offset: 0x1EEAA, size: 0x8, addend: 0x0, symName: __ZN5boost4asio9execution6preferINS0_10io_context19basic_executor_typeINSt3__19allocatorIvEELm4EEENS1_6detail16outstanding_work9tracked_tILi0EEEEENS0_13prefer_resultIRKT_JRKSC_EE4typeESG_RKNS1_11prefer_onlyIT0_EEPNS5_9enable_ifIXsr7is_sameISM_SC_EE5valueEvE4typeEPNSQ_IXsr10can_preferISG_SI_EE5valueEvE4typeE, symObjAddr: 0x18230, symBinAddr: 0x10001BD64, symSize: 0x3C }
  - { offsetInCU: 0xD321, offset: 0x1EF0C, size: 0x8, addend: 0x0, symName: __ZN5boost4asio9execution6preferINS0_10io_context19basic_executor_typeINSt3__19allocatorIvEELm4EEENS1_6detail16outstanding_work11untracked_tILi0EEEEENS0_13prefer_resultIRKT_JRKSC_EE4typeESG_RKNS1_11prefer_onlyIT0_EEPNS5_9enable_ifIXsr7is_sameISM_SC_EE5valueEvE4typeEPNSQ_IXsr10can_preferISG_SI_EE5valueEvE4typeE, symObjAddr: 0x1846C, symBinAddr: 0x10001BFA0, symSize: 0x44 }
  - { offsetInCU: 0xD383, offset: 0x1EF6E, size: 0x8, addend: 0x0, symName: __ZN5boost4asio9execution5queryINS0_10io_context19basic_executor_typeINSt3__19allocatorIvEELm4EEENS1_6detail12relationship6fork_tILi0EEEEENS0_12query_resultIRKT_RKSC_E4typeESG_RKNS1_11prefer_onlyIT0_EEPNS5_9enable_ifIXsr7is_sameISM_SC_EE5valueEvE4typeEPNSQ_IXsr9can_queryISG_SI_EE5valueEvE4typeE, symObjAddr: 0x1863C, symBinAddr: 0x10001C170, symSize: 0x44 }
  - { offsetInCU: 0xD3E5, offset: 0x1EFD0, size: 0x8, addend: 0x0, symName: __ZN5boost4asio9execution6preferINS0_10io_context19basic_executor_typeINSt3__19allocatorIvEELm4EEENS1_6detail12relationship6fork_tILi0EEEEENS0_13prefer_resultIRKT_JRKSC_EE4typeESG_RKNS1_11prefer_onlyIT0_EEPNS5_9enable_ifIXsr7is_sameISM_SC_EE5valueEvE4typeEPNSQ_IXsr10can_preferISG_SI_EE5valueEvE4typeE, symObjAddr: 0x188B8, symBinAddr: 0x10001C3EC, symSize: 0x44 }
  - { offsetInCU: 0xD447, offset: 0x1F032, size: 0x8, addend: 0x0, symName: __ZN5boost4asio9execution5queryINS0_10io_context19basic_executor_typeINSt3__19allocatorIvEELm4EEENS1_6detail12relationship14continuation_tILi0EEEEENS0_12query_resultIRKT_RKSC_E4typeESG_RKNS1_11prefer_onlyIT0_EEPNS5_9enable_ifIXsr7is_sameISM_SC_EE5valueEvE4typeEPNSQ_IXsr9can_queryISG_SI_EE5valueEvE4typeE, symObjAddr: 0x18A8C, symBinAddr: 0x10001C5C0, symSize: 0x44 }
  - { offsetInCU: 0xD4A9, offset: 0x1F094, size: 0x8, addend: 0x0, symName: __ZN5boost4asio9execution6preferINS0_10io_context19basic_executor_typeINSt3__19allocatorIvEELm4EEENS1_6detail12relationship14continuation_tILi0EEEEENS0_13prefer_resultIRKT_JRKSC_EE4typeESG_RKNS1_11prefer_onlyIT0_EEPNS5_9enable_ifIXsr7is_sameISM_SC_EE5valueEvE4typeEPNSQ_IXsr10can_preferISG_SI_EE5valueEvE4typeE, symObjAddr: 0x18C18, symBinAddr: 0x10001C74C, symSize: 0x44 }
  - { offsetInCU: 0xD50B, offset: 0x1F0F6, size: 0x8, addend: 0x0, symName: __ZN5boost4asio9execution6preferINS0_10io_context19basic_executor_typeINSt3__19allocatorIvEELm0EEENS1_6detail16outstanding_work11untracked_tILi0EEEEENS0_13prefer_resultIRKT_JRKSC_EE4typeESG_RKNS1_11prefer_onlyIT0_EEPNS5_9enable_ifIXsr7is_sameISM_SC_EE5valueEvE4typeEPNSQ_IXsr10can_preferISG_SI_EE5valueEvE4typeE, symObjAddr: 0x18F28, symBinAddr: 0x10001CA5C, symSize: 0x3C }
  - { offsetInCU: 0xD56D, offset: 0x1F158, size: 0x8, addend: 0x0, symName: __ZN5boost4asio9execution5queryINS0_10io_context19basic_executor_typeINSt3__19allocatorIvEELm0EEENS1_6detail12relationship6fork_tILi0EEEEENS0_12query_resultIRKT_RKSC_E4typeESG_RKNS1_11prefer_onlyIT0_EEPNS5_9enable_ifIXsr7is_sameISM_SC_EE5valueEvE4typeEPNSQ_IXsr9can_queryISG_SI_EE5valueEvE4typeE, symObjAddr: 0x19084, symBinAddr: 0x10001CBB8, symSize: 0x44 }
  - { offsetInCU: 0xD5CF, offset: 0x1F1BA, size: 0x8, addend: 0x0, symName: __ZN5boost4asio9execution6preferINS0_10io_context19basic_executor_typeINSt3__19allocatorIvEELm0EEENS1_6detail12relationship6fork_tILi0EEEEENS0_13prefer_resultIRKT_JRKSC_EE4typeESG_RKNS1_11prefer_onlyIT0_EEPNS5_9enable_ifIXsr7is_sameISM_SC_EE5valueEvE4typeEPNSQ_IXsr10can_preferISG_SI_EE5valueEvE4typeE, symObjAddr: 0x19274, symBinAddr: 0x10001CDA8, symSize: 0x44 }
  - { offsetInCU: 0xD631, offset: 0x1F21C, size: 0x8, addend: 0x0, symName: __ZN5boost4asio9execution5queryINS0_10io_context19basic_executor_typeINSt3__19allocatorIvEELm0EEENS1_6detail12relationship14continuation_tILi0EEEEENS0_12query_resultIRKT_RKSC_E4typeESG_RKNS1_11prefer_onlyIT0_EEPNS5_9enable_ifIXsr7is_sameISM_SC_EE5valueEvE4typeEPNSQ_IXsr9can_queryISG_SI_EE5valueEvE4typeE, symObjAddr: 0x19448, symBinAddr: 0x10001CF7C, symSize: 0x44 }
  - { offsetInCU: 0xD693, offset: 0x1F27E, size: 0x8, addend: 0x0, symName: __ZN5boost4asio9execution6preferINS0_10io_context19basic_executor_typeINSt3__19allocatorIvEELm0EEENS1_6detail12relationship14continuation_tILi0EEEEENS0_13prefer_resultIRKT_JRKSC_EE4typeESG_RKNS1_11prefer_onlyIT0_EEPNS5_9enable_ifIXsr7is_sameISM_SC_EE5valueEvE4typeEPNSQ_IXsr10can_preferISG_SI_EE5valueEvE4typeE, symObjAddr: 0x195D4, symBinAddr: 0x10001D108, symSize: 0x44 }
  - { offsetInCU: 0xE863, offset: 0x2044E, size: 0x8, addend: 0x0, symName: __ZN5boost4asio2ipneERKNS1_23basic_resolver_iteratorINS1_3tcpEEES6_, symObjAddr: 0x2BDC0, symBinAddr: 0x10002F8F4, symSize: 0x34 }
  - { offsetInCU: 0xF889, offset: 0x21474, size: 0x8, addend: 0x0, symName: __ZN5boost4asio7connectINS0_2ip3tcpENS0_15any_io_executorENS2_22basic_resolver_resultsIS3_EEEENT_8endpointERNS0_12basic_socketIS7_T0_EERKT1_NS0_10constraintIXsr20is_endpoint_sequenceISD_EE5valueEiE4typeE, symObjAddr: 0xD2C, symBinAddr: 0x1000069B8, symSize: 0x80 }
  - { offsetInCU: 0xF97C, offset: 0x21567, size: 0x8, addend: 0x0, symName: __ZN5boost4asio12make_serviceINS0_6detail36config_from_concurrency_hint_serviceEJiEEERT_RNS0_17execution_contextEDpOT0_, symObjAddr: 0x2E50, symBinAddr: 0x100007908, symSize: 0xF0 }
  - { offsetInCU: 0xF9F1, offset: 0x215DC, size: 0x8, addend: 0x0, symName: __ZN5boost4asio11add_serviceINS0_6detail9schedulerEEEvRNS0_17execution_contextEPT_, symObjAddr: 0x6C18, symBinAddr: 0x10000B510, symSize: 0x30 }
  - { offsetInCU: 0xFA36, offset: 0x21621, size: 0x8, addend: 0x0, symName: __ZN5boost4asio11use_serviceINS0_6detail14kqueue_reactorEEERT_RNS0_17execution_contextE, symObjAddr: 0x6DD4, symBinAddr: 0x10000B6CC, symSize: 0x28 }
  - { offsetInCU: 0xFA6F, offset: 0x2165A, size: 0x8, addend: 0x0, symName: __ZN5boost4asio11use_serviceINS0_6detail9schedulerEEERT_RNS0_17execution_contextE, symObjAddr: 0x75E0, symBinAddr: 0x10000BED8, symSize: 0x28 }
  - { offsetInCU: 0xFAC9, offset: 0x216B4, size: 0x8, addend: 0x0, symName: __ZN5boost4asio11use_serviceINS0_14config_serviceEEERT_RNS0_17execution_contextE, symObjAddr: 0x8550, symBinAddr: 0x10000CE48, symSize: 0x28 }
  - { offsetInCU: 0xFB0D, offset: 0x216F8, size: 0x8, addend: 0x0, symName: __ZN5boost4asio14aligned_deleteEPv, symObjAddr: 0xC6D8, symBinAddr: 0x100010BEC, symSize: 0x24 }
  - { offsetInCU: 0xFB39, offset: 0x21724, size: 0x8, addend: 0x0, symName: __ZN5boost4asio11use_serviceINS0_6detail16resolver_serviceINS0_2ip3tcpEEEEERT_RNS0_10io_contextE, symObjAddr: 0x111A0, symBinAddr: 0x100014CD4, symSize: 0x2C }
  - { offsetInCU: 0xFB88, offset: 0x21773, size: 0x8, addend: 0x0, symName: __ZN5boost4asioeqERKNS0_10io_context19basic_executor_typeINSt3__19allocatorIvEELm0EEES8_, symObjAddr: 0x12168, symBinAddr: 0x100015C9C, symSize: 0x64 }
  - { offsetInCU: 0xFBC8, offset: 0x217B3, size: 0x8, addend: 0x0, symName: __ZN5boost4asio11aligned_newEmm, symObjAddr: 0x13040, symBinAddr: 0x100016B74, symSize: 0x11C }
  - { offsetInCU: 0xFD34, offset: 0x2191F, size: 0x8, addend: 0x0, symName: __ZN5boost4asioeqERKNS0_10io_context19basic_executor_typeINSt3__19allocatorIvEELm4EEES8_, symObjAddr: 0x16D24, symBinAddr: 0x10001A858, symSize: 0x64 }
  - { offsetInCU: 0xFFD1, offset: 0x21BBC, size: 0x8, addend: 0x0, symName: __ZN5boost4asio11use_serviceINS0_6detail23reactive_socket_serviceINS0_2ip3tcpEEEEERT_RNS0_10io_contextE, symObjAddr: 0x20038, symBinAddr: 0x100023B6C, symSize: 0x2C }
  - { offsetInCU: 0x1000A, offset: 0x21BF5, size: 0x8, addend: 0x0, symName: __ZN5boost4asio6bufferIhNSt3__19allocatorIhEEEENS0_14mutable_bufferERNS2_6vectorIT_T0_EE, symObjAddr: 0x207B0, symBinAddr: 0x1000242E4, symSize: 0x7C }
  - { offsetInCU: 0x10062, offset: 0x21C4D, size: 0x8, addend: 0x0, symName: __ZN5boost4asio11use_serviceINS_5beast9websocket6detail7serviceEEERT_RNS0_17execution_contextE, symObjAddr: 0x23A9C, symBinAddr: 0x1000275D0, symSize: 0x28 }
  - { offsetInCU: 0x1009B, offset: 0x21C86, size: 0x8, addend: 0x0, symName: __ZN5boost4asio11use_serviceINS0_6detail22deadline_timer_serviceINS2_18chrono_time_traitsINSt3__16chrono12steady_clockENS0_11wait_traitsIS7_EEEEEEEERT_RNS0_17execution_contextE, symObjAddr: 0x28688, symBinAddr: 0x10002C1BC, symSize: 0x28 }
  - { offsetInCU: 0x100DF, offset: 0x21CCA, size: 0x8, addend: 0x0, symName: __ZN5boost4asio7connectINS0_2ip3tcpENS0_15any_io_executorENS2_22basic_resolver_resultsIS3_EEEENT_8endpointERNS0_12basic_socketIS7_T0_EERKT1_RNS_6system10error_codeENS0_10constraintIXsr20is_endpoint_sequenceISD_EE5valueEiE4typeE, symObjAddr: 0x2B7DC, symBinAddr: 0x10002F310, symSize: 0xF8 }
  - { offsetInCU: 0x10154, offset: 0x21D3F, size: 0x8, addend: 0x0, symName: __ZN5boost4asio7connectINS0_2ip3tcpENS0_15any_io_executorENS2_23basic_resolver_iteratorIS3_EENS0_6detail25default_connect_conditionEEET1_RNS0_12basic_socketIT_T0_EES9_S9_T2_RNS_6system10error_codeENS0_10constraintIXsr20is_connect_conditionISF_S9_EE5valueEiE4typeE, symObjAddr: 0x2B930, symBinAddr: 0x10002F464, symSize: 0x2B8 }
  - { offsetInCU: 0x10211, offset: 0x21DFC, size: 0x8, addend: 0x0, symName: __ZN5boost4asio6bufferERKNS0_14mutable_bufferEm, symObjAddr: 0x2D904, symBinAddr: 0x100031438, symSize: 0x7C }
  - { offsetInCU: 0x10251, offset: 0x21E3C, size: 0x8, addend: 0x0, symName: __ZN5boost4asio5writeINS0_19basic_stream_socketINS0_2ip3tcpENS0_15any_io_executorEEENS0_14mutable_bufferEEEmRT_RKT0_RNS_6system10error_codeENS0_10constraintIXsr24is_const_buffer_sequenceISA_EE5valueEiE4typeE, symObjAddr: 0x2DACC, symBinAddr: 0x100031600, symSize: 0x54 }
  - { offsetInCU: 0x10337, offset: 0x21F22, size: 0x8, addend: 0x0, symName: __ZN5boost4asio6bufferERKNS0_12const_bufferE, symObjAddr: 0x2E63C, symBinAddr: 0x100032170, symSize: 0x24 }
  - { offsetInCU: 0x10366, offset: 0x21F51, size: 0x8, addend: 0x0, symName: __ZN5boost4asioplERKNS0_12const_bufferEm, symObjAddr: 0x2E660, symBinAddr: 0x100032194, symSize: 0xA8 }
  - { offsetInCU: 0x103D6, offset: 0x21FC1, size: 0x8, addend: 0x0, symName: __ZN5boost4asio5writeINS0_19basic_stream_socketINS0_2ip3tcpENS0_15any_io_executorEEENS0_14mutable_bufferENS0_6detail14transfer_all_tEEEmRT_RKT0_T1_RNS_6system10error_codeENS0_10constraintIXsr24is_const_buffer_sequenceISC_EE5valueEiE4typeENSJ_IXsr23is_completion_conditionISF_EE5valueEiE4typeE, symObjAddr: 0x2E770, symBinAddr: 0x1000322A4, symSize: 0x64 }
  - { offsetInCU: 0x1046A, offset: 0x22055, size: 0x8, addend: 0x0, symName: __ZN5boost4asio12transfer_allEv, symObjAddr: 0x2E7D4, symBinAddr: 0x100032308, symSize: 0x4 }
  - { offsetInCU: 0x10489, offset: 0x22074, size: 0x8, addend: 0x0, symName: __ZN5boost4asio21buffer_sequence_beginINS0_14mutable_bufferEEEPKS2_RKT_NS0_10constraintIXsr14is_convertibleIPS6_S4_EE5valueEiE4typeE, symObjAddr: 0x2E8D0, symBinAddr: 0x100032404, symSize: 0x18 }
  - { offsetInCU: 0x104CD, offset: 0x220B8, size: 0x8, addend: 0x0, symName: __ZN5boost4asio6bufferERKNS0_12const_bufferEm, symObjAddr: 0x2EEF8, symBinAddr: 0x100032A2C, symSize: 0x7C }
  - { offsetInCU: 0x1050D, offset: 0x220F8, size: 0x8, addend: 0x0, symName: __ZN5boost4asio11buffer_copyINS0_14mutable_bufferENS_5beast6detail12buffers_pairILb1EEEEEmRKT_RKT0_, symObjAddr: 0x2FD5C, symBinAddr: 0x100033890, symSize: 0x98 }
  - { offsetInCU: 0x1055F, offset: 0x2214A, size: 0x8, addend: 0x0, symName: __ZN5boost4asio11buffer_copyINS_5beast6detail12buffers_pairILb1EEENS0_14mutable_bufferEEEmRKT_RKT0_, symObjAddr: 0x303E4, symBinAddr: 0x100033F18, symSize: 0x98 }
  - { offsetInCU: 0x105B1, offset: 0x2219C, size: 0x8, addend: 0x0, symName: __ZN5boost4asio21buffer_sequence_beginINS_5beast16buffers_cat_viewIJNS2_6detail11buffers_refINS3_IJNS0_12const_bufferES6_S6_NS2_4http12basic_fieldsINSt3__19allocatorIcEEE6writer11field_rangeENS7_10chunk_crlfEEEEEES6_EEEEEDTcldtfp_5beginEERT_NS0_10constraintIXntsr14is_convertibleIPKSK_PKNS0_14mutable_bufferEEE5valueEiE4typeENSM_IXntsr14is_convertibleISO_PKS6_EE5valueEiE4typeENSM_IXntsr14is_convertibleISK_SP_EE5valueEiE4typeENSM_IXntsr14is_convertibleISK_S6_EE5valueEiE4typeE, symObjAddr: 0x45D1C, symBinAddr: 0x100049850, symSize: 0x44 }
  - { offsetInCU: 0x1061A, offset: 0x22205, size: 0x8, addend: 0x0, symName: __ZN5boost4asio21buffer_sequence_beginINS_5beast6detail11buffers_refINS2_16buffers_cat_viewIJNS0_12const_bufferES6_S6_NS2_4http12basic_fieldsINSt3__19allocatorIcEEE6writer11field_rangeENS7_10chunk_crlfEEEEEEEEDTcldtfp_5beginEERKT_NS0_10constraintIXntsr14is_convertibleIPSK_PKNS0_14mutable_bufferEEE5valueEiE4typeENSM_IXntsr14is_convertibleISN_PKS6_EE5valueEiE4typeENSM_IXntsr14is_convertibleISJ_SO_EE5valueEiE4typeENSM_IXntsr14is_convertibleISJ_S6_EE5valueEiE4typeE, symObjAddr: 0x4606C, symBinAddr: 0x100049BA0, symSize: 0x44 }
  - { offsetInCU: 0x10683, offset: 0x2226E, size: 0x8, addend: 0x0, symName: __ZN5boost4asio21buffer_sequence_beginINS_5beast16buffers_cat_viewIJNS0_12const_bufferES4_S4_NS2_4http12basic_fieldsINSt3__19allocatorIcEEE6writer11field_rangeENS5_10chunk_crlfEEEEEEDTcldtfp_5beginEERKT_NS0_10constraintIXntsr14is_convertibleIPSH_PKNS0_14mutable_bufferEEE5valueEiE4typeENSJ_IXntsr14is_convertibleISK_PKS4_EE5valueEiE4typeENSJ_IXntsr14is_convertibleISG_SL_EE5valueEiE4typeENSJ_IXntsr14is_convertibleISG_S4_EE5valueEiE4typeE, symObjAddr: 0x467D8, symBinAddr: 0x10004A30C, symSize: 0x44 }
  - { offsetInCU: 0x106ED, offset: 0x222D8, size: 0x8, addend: 0x0, symName: __ZN5boost4asio21buffer_sequence_beginINS0_12const_bufferEEEPKS2_RKT_NS0_10constraintIXsr14is_convertibleIPS6_S4_EE5valueEiE4typeE, symObjAddr: 0x469B4, symBinAddr: 0x10004A4E8, symSize: 0x18 }
  - { offsetInCU: 0x10732, offset: 0x2231D, size: 0x8, addend: 0x0, symName: __ZN5boost4asio19buffer_sequence_endINS0_12const_bufferEEEPKS2_RKT_NS0_10constraintIXsr14is_convertibleIPS6_S4_EE5valueEiE4typeE, symObjAddr: 0x46B58, symBinAddr: 0x10004A68C, symSize: 0x1C }
  - { offsetInCU: 0x10776, offset: 0x22361, size: 0x8, addend: 0x0, symName: __ZN5boost4asio21buffer_sequence_beginINS_5beast4http12basic_fieldsINSt3__19allocatorIcEEE6writer11field_rangeEEEDTcldtfp_5beginEERKT_NS0_10constraintIXntsr14is_convertibleIPSD_PKNS0_14mutable_bufferEEE5valueEiE4typeENSF_IXntsr14is_convertibleISG_PKNS0_12const_bufferEEE5valueEiE4typeENSF_IXntsr14is_convertibleISC_SH_EE5valueEiE4typeENSF_IXntsr14is_convertibleISC_SM_EE5valueEiE4typeE, symObjAddr: 0x46F58, symBinAddr: 0x10004AA8C, symSize: 0x44 }
  - { offsetInCU: 0x107DF, offset: 0x223CA, size: 0x8, addend: 0x0, symName: __ZN5boost4asio19buffer_sequence_endINS_5beast4http12basic_fieldsINSt3__19allocatorIcEEE6writer11field_rangeEEEDTcldtfp_3endEERKT_NS0_10constraintIXntsr14is_convertibleIPSD_PKNS0_14mutable_bufferEEE5valueEiE4typeENSF_IXntsr14is_convertibleISG_PKNS0_12const_bufferEEE5valueEiE4typeENSF_IXntsr14is_convertibleISC_SH_EE5valueEiE4typeENSF_IXntsr14is_convertibleISC_SM_EE5valueEiE4typeE, symObjAddr: 0x471FC, symBinAddr: 0x10004AD30, symSize: 0x44 }
  - { offsetInCU: 0x10848, offset: 0x22433, size: 0x8, addend: 0x0, symName: __ZN5boost4asio21buffer_sequence_beginINS_5beast4http10chunk_crlfEEEDTcldtfp_5beginEERKT_NS0_10constraintIXntsr14is_convertibleIPS7_PKNS0_14mutable_bufferEEE5valueEiE4typeENS9_IXntsr14is_convertibleISA_PKNS0_12const_bufferEEE5valueEiE4typeENS9_IXntsr14is_convertibleIS6_SB_EE5valueEiE4typeENS9_IXntsr14is_convertibleIS6_SG_EE5valueEiE4typeE, symObjAddr: 0x472F4, symBinAddr: 0x10004AE28, symSize: 0x44 }
  - { offsetInCU: 0x108B1, offset: 0x2249C, size: 0x8, addend: 0x0, symName: __ZN5boost4asio19buffer_sequence_endINS_5beast4http10chunk_crlfEEEDTcldtfp_3endEERKT_NS0_10constraintIXntsr14is_convertibleIPS7_PKNS0_14mutable_bufferEEE5valueEiE4typeENS9_IXntsr14is_convertibleISA_PKNS0_12const_bufferEEE5valueEiE4typeENS9_IXntsr14is_convertibleIS6_SB_EE5valueEiE4typeENS9_IXntsr14is_convertibleIS6_SG_EE5valueEiE4typeE, symObjAddr: 0x475A0, symBinAddr: 0x10004B0D4, symSize: 0x44 }
  - { offsetInCU: 0x1091A, offset: 0x22505, size: 0x8, addend: 0x0, symName: __ZN5boost4asio19buffer_sequence_endINS_5beast6detail11buffers_refINS2_16buffers_cat_viewIJNS0_12const_bufferES6_S6_NS2_4http12basic_fieldsINSt3__19allocatorIcEEE6writer11field_rangeENS7_10chunk_crlfEEEEEEEEDTcldtfp_3endEERKT_NS0_10constraintIXntsr14is_convertibleIPSK_PKNS0_14mutable_bufferEEE5valueEiE4typeENSM_IXntsr14is_convertibleISN_PKS6_EE5valueEiE4typeENSM_IXntsr14is_convertibleISJ_SO_EE5valueEiE4typeENSM_IXntsr14is_convertibleISJ_S6_EE5valueEiE4typeE, symObjAddr: 0x4776C, symBinAddr: 0x10004B2A0, symSize: 0x44 }
  - { offsetInCU: 0x10983, offset: 0x2256E, size: 0x8, addend: 0x0, symName: __ZN5boost4asio19buffer_sequence_endINS_5beast16buffers_cat_viewIJNS0_12const_bufferES4_S4_NS2_4http12basic_fieldsINSt3__19allocatorIcEEE6writer11field_rangeENS5_10chunk_crlfEEEEEEDTcldtfp_3endEERKT_NS0_10constraintIXntsr14is_convertibleIPSH_PKNS0_14mutable_bufferEEE5valueEiE4typeENSJ_IXntsr14is_convertibleISK_PKS4_EE5valueEiE4typeENSJ_IXntsr14is_convertibleISG_SL_EE5valueEiE4typeENSJ_IXntsr14is_convertibleISG_S4_EE5valueEiE4typeE, symObjAddr: 0x47DE0, symBinAddr: 0x10004B914, symSize: 0x44 }
  - { offsetInCU: 0x109EC, offset: 0x225D7, size: 0x8, addend: 0x0, symName: __ZN5boost4asio21buffer_sequence_beginINS_5beast14buffers_suffixINS2_16buffers_cat_viewIJNS2_6detail11buffers_refINS4_IJNS0_12const_bufferES7_S7_NS2_4http12basic_fieldsINSt3__19allocatorIcEEE6writer11field_rangeENS8_10chunk_crlfEEEEEES7_EEEEEEEDTcldtfp_5beginEERKT_NS0_10constraintIXntsr14is_convertibleIPSN_PKNS0_14mutable_bufferEEE5valueEiE4typeENSP_IXntsr14is_convertibleISQ_PKS7_EE5valueEiE4typeENSP_IXntsr14is_convertibleISM_SR_EE5valueEiE4typeENSP_IXntsr14is_convertibleISM_S7_EE5valueEiE4typeE, symObjAddr: 0x49ADC, symBinAddr: 0x10004D610, symSize: 0x44 }
  - { offsetInCU: 0x10A55, offset: 0x22640, size: 0x8, addend: 0x0, symName: __ZN5boost4asio19buffer_sequence_endINS_5beast16buffers_cat_viewIJNS2_6detail11buffers_refINS3_IJNS0_12const_bufferES6_S6_NS2_4http12basic_fieldsINSt3__19allocatorIcEEE6writer11field_rangeENS7_10chunk_crlfEEEEEES6_EEEEEDTcldtfp_3endEERKT_NS0_10constraintIXntsr14is_convertibleIPSL_PKNS0_14mutable_bufferEEE5valueEiE4typeENSN_IXntsr14is_convertibleISO_PKS6_EE5valueEiE4typeENSN_IXntsr14is_convertibleISK_SP_EE5valueEiE4typeENSN_IXntsr14is_convertibleISK_S6_EE5valueEiE4typeE, symObjAddr: 0x4A308, symBinAddr: 0x10004DE3C, symSize: 0x44 }
  - { offsetInCU: 0x10ABE, offset: 0x226A9, size: 0x8, addend: 0x0, symName: __ZN5boost4asio6bufferIhLm8192EEENS0_14mutable_bufferERAT0__T_, symObjAddr: 0x4B288, symBinAddr: 0x10004EDBC, symSize: 0x34 }
  - { offsetInCU: 0x10B02, offset: 0x226ED, size: 0x8, addend: 0x0, symName: __ZN5boost4asio21buffer_sequence_beginINS_5beast6detail11buffers_refINS2_19buffers_prefix_viewIRKNS2_14buffers_suffixINS2_16buffers_cat_viewIJNS4_INS7_IJNS0_12const_bufferES8_S8_NS2_4http12basic_fieldsINSt3__19allocatorIcEEE6writer11field_rangeENS9_10chunk_crlfEEEEEES8_EEEEEEEEEEEDTcldtfp_5beginEERKT_NS0_10constraintIXntsr14is_convertibleIPSS_PKNS0_14mutable_bufferEEE5valueEiE4typeENSU_IXntsr14is_convertibleISV_PKS8_EE5valueEiE4typeENSU_IXntsr14is_convertibleISR_SW_EE5valueEiE4typeENSU_IXntsr14is_convertibleISR_S8_EE5valueEiE4typeE, symObjAddr: 0x4B5DC, symBinAddr: 0x10004F110, symSize: 0x44 }
  - { offsetInCU: 0x10B6B, offset: 0x22756, size: 0x8, addend: 0x0, symName: __ZN5boost4asio19buffer_sequence_endINS_5beast6detail11buffers_refINS2_19buffers_prefix_viewIRKNS2_14buffers_suffixINS2_16buffers_cat_viewIJNS4_INS7_IJNS0_12const_bufferES8_S8_NS2_4http12basic_fieldsINSt3__19allocatorIcEEE6writer11field_rangeENS9_10chunk_crlfEEEEEES8_EEEEEEEEEEEDTcldtfp_3endEERKT_NS0_10constraintIXntsr14is_convertibleIPSS_PKNS0_14mutable_bufferEEE5valueEiE4typeENSU_IXntsr14is_convertibleISV_PKS8_EE5valueEiE4typeENSU_IXntsr14is_convertibleISR_SW_EE5valueEiE4typeENSU_IXntsr14is_convertibleISR_S8_EE5valueEiE4typeE, symObjAddr: 0x4B620, symBinAddr: 0x10004F154, symSize: 0x44 }
  - { offsetInCU: 0x10BD4, offset: 0x227BF, size: 0x8, addend: 0x0, symName: __ZN5boost4asio11buffer_copyINS0_14mutable_bufferENS0_12const_bufferEEEmRKT_RKT0_, symObjAddr: 0x4B8D8, symBinAddr: 0x10004F40C, symSize: 0x74 }
  - { offsetInCU: 0x10C27, offset: 0x22812, size: 0x8, addend: 0x0, symName: __ZN5boost4asio19buffer_sequence_endINS0_14mutable_bufferEEEPKS2_RKT_NS0_10constraintIXsr14is_convertibleIPS6_S4_EE5valueEiE4typeE, symObjAddr: 0x4BA54, symBinAddr: 0x10004F588, symSize: 0x1C }
  - { offsetInCU: 0x10C6B, offset: 0x22856, size: 0x8, addend: 0x0, symName: __ZN5boost4asio21buffer_sequence_beginINS_5beast19buffers_prefix_viewIRKNS2_14buffers_suffixINS2_16buffers_cat_viewIJNS2_6detail11buffers_refINS5_IJNS0_12const_bufferES8_S8_NS2_4http12basic_fieldsINSt3__19allocatorIcEEE6writer11field_rangeENS9_10chunk_crlfEEEEEES8_EEEEEEEEEDTcldtfp_5beginEERKT_NS0_10constraintIXntsr14is_convertibleIPSR_PKNS0_14mutable_bufferEEE5valueEiE4typeENST_IXntsr14is_convertibleISU_PKS8_EE5valueEiE4typeENST_IXntsr14is_convertibleISQ_SV_EE5valueEiE4typeENST_IXntsr14is_convertibleISQ_S8_EE5valueEiE4typeE, symObjAddr: 0x4BB60, symBinAddr: 0x10004F694, symSize: 0x44 }
  - { offsetInCU: 0x10CD4, offset: 0x228BF, size: 0x8, addend: 0x0, symName: __ZN5boost4asio19buffer_sequence_endINS_5beast19buffers_prefix_viewIRKNS2_14buffers_suffixINS2_16buffers_cat_viewIJNS2_6detail11buffers_refINS5_IJNS0_12const_bufferES8_S8_NS2_4http12basic_fieldsINSt3__19allocatorIcEEE6writer11field_rangeENS9_10chunk_crlfEEEEEES8_EEEEEEEEEDTcldtfp_3endEERKT_NS0_10constraintIXntsr14is_convertibleIPSR_PKNS0_14mutable_bufferEEE5valueEiE4typeENST_IXntsr14is_convertibleISU_PKS8_EE5valueEiE4typeENST_IXntsr14is_convertibleISQ_SV_EE5valueEiE4typeENST_IXntsr14is_convertibleISQ_S8_EE5valueEiE4typeE, symObjAddr: 0x4BCB0, symBinAddr: 0x10004F7E4, symSize: 0x44 }
  - { offsetInCU: 0x10D3D, offset: 0x22928, size: 0x8, addend: 0x0, symName: __ZN5boost4asio21buffer_sequence_beginINS_5beast6detail11buffers_refINS2_16buffers_cat_viewIJNS0_12const_bufferES6_S6_NS2_4http12basic_fieldsINSt3__19allocatorIcEEE6writer11field_rangeENS7_10chunk_crlfEEEEEEEEDTcldtfp_5beginEERT_NS0_10constraintIXntsr14is_convertibleIPKSJ_PKNS0_14mutable_bufferEEE5valueEiE4typeENSL_IXntsr14is_convertibleISN_PKS6_EE5valueEiE4typeENSL_IXntsr14is_convertibleISJ_SO_EE5valueEiE4typeENSL_IXntsr14is_convertibleISJ_S6_EE5valueEiE4typeE, symObjAddr: 0x4BF58, symBinAddr: 0x10004FA8C, symSize: 0x3C }
  - { offsetInCU: 0x10DA6, offset: 0x22991, size: 0x8, addend: 0x0, symName: __ZN5boost4asio21buffer_sequence_beginINS_5beast14buffers_suffixINS2_6detail11buffers_refINS2_16buffers_cat_viewIJNS0_12const_bufferES7_S7_NS2_4http12basic_fieldsINSt3__19allocatorIcEEE6writer11field_rangeENS8_10chunk_crlfEEEEEEEEEEDTcldtfp_5beginEERKT_NS0_10constraintIXntsr14is_convertibleIPSM_PKNS0_14mutable_bufferEEE5valueEiE4typeENSO_IXntsr14is_convertibleISP_PKS7_EE5valueEiE4typeENSO_IXntsr14is_convertibleISL_SQ_EE5valueEiE4typeENSO_IXntsr14is_convertibleISL_S7_EE5valueEiE4typeE, symObjAddr: 0x4C4C8, symBinAddr: 0x10004FFFC, symSize: 0x44 }
  - { offsetInCU: 0x10E0F, offset: 0x229FA, size: 0x8, addend: 0x0, symName: __ZN5boost4asio21buffer_sequence_beginINS_5beast6detail11buffers_refINS2_19buffers_prefix_viewIRKNS2_14buffers_suffixINS4_INS2_16buffers_cat_viewIJNS0_12const_bufferES8_S8_NS2_4http12basic_fieldsINSt3__19allocatorIcEEE6writer11field_rangeENS9_10chunk_crlfEEEEEEEEEEEEEEDTcldtfp_5beginEERKT_NS0_10constraintIXntsr14is_convertibleIPSR_PKNS0_14mutable_bufferEEE5valueEiE4typeENST_IXntsr14is_convertibleISU_PKS8_EE5valueEiE4typeENST_IXntsr14is_convertibleISQ_SV_EE5valueEiE4typeENST_IXntsr14is_convertibleISQ_S8_EE5valueEiE4typeE, symObjAddr: 0x4D174, symBinAddr: 0x100050CA8, symSize: 0x44 }
  - { offsetInCU: 0x10E78, offset: 0x22A63, size: 0x8, addend: 0x0, symName: __ZN5boost4asio19buffer_sequence_endINS_5beast6detail11buffers_refINS2_19buffers_prefix_viewIRKNS2_14buffers_suffixINS4_INS2_16buffers_cat_viewIJNS0_12const_bufferES8_S8_NS2_4http12basic_fieldsINSt3__19allocatorIcEEE6writer11field_rangeENS9_10chunk_crlfEEEEEEEEEEEEEEDTcldtfp_3endEERKT_NS0_10constraintIXntsr14is_convertibleIPSR_PKNS0_14mutable_bufferEEE5valueEiE4typeENST_IXntsr14is_convertibleISU_PKS8_EE5valueEiE4typeENST_IXntsr14is_convertibleISQ_SV_EE5valueEiE4typeENST_IXntsr14is_convertibleISQ_S8_EE5valueEiE4typeE, symObjAddr: 0x4D1B8, symBinAddr: 0x100050CEC, symSize: 0x44 }
  - { offsetInCU: 0x10EE1, offset: 0x22ACC, size: 0x8, addend: 0x0, symName: __ZN5boost4asio21buffer_sequence_beginINS_5beast19buffers_prefix_viewIRKNS2_14buffers_suffixINS2_6detail11buffers_refINS2_16buffers_cat_viewIJNS0_12const_bufferES8_S8_NS2_4http12basic_fieldsINSt3__19allocatorIcEEE6writer11field_rangeENS9_10chunk_crlfEEEEEEEEEEEEDTcldtfp_5beginEERKT_NS0_10constraintIXntsr14is_convertibleIPSQ_PKNS0_14mutable_bufferEEE5valueEiE4typeENSS_IXntsr14is_convertibleIST_PKS8_EE5valueEiE4typeENSS_IXntsr14is_convertibleISP_SU_EE5valueEiE4typeENSS_IXntsr14is_convertibleISP_S8_EE5valueEiE4typeE, symObjAddr: 0x4D4F8, symBinAddr: 0x10005102C, symSize: 0x44 }
  - { offsetInCU: 0x10F4A, offset: 0x22B35, size: 0x8, addend: 0x0, symName: __ZN5boost4asio19buffer_sequence_endINS_5beast19buffers_prefix_viewIRKNS2_14buffers_suffixINS2_6detail11buffers_refINS2_16buffers_cat_viewIJNS0_12const_bufferES8_S8_NS2_4http12basic_fieldsINSt3__19allocatorIcEEE6writer11field_rangeENS9_10chunk_crlfEEEEEEEEEEEEDTcldtfp_3endEERKT_NS0_10constraintIXntsr14is_convertibleIPSQ_PKNS0_14mutable_bufferEEE5valueEiE4typeENSS_IXntsr14is_convertibleIST_PKS8_EE5valueEiE4typeENSS_IXntsr14is_convertibleISP_SU_EE5valueEiE4typeENSS_IXntsr14is_convertibleISP_S8_EE5valueEiE4typeE, symObjAddr: 0x4D648, symBinAddr: 0x10005117C, symSize: 0x44 }
  - { offsetInCU: 0x10FB3, offset: 0x22B9E, size: 0x8, addend: 0x0, symName: __ZN5boost4asio21buffer_sequence_beginINS_5beast14buffers_suffixINS0_12const_bufferEEEEEDTcldtfp_5beginEERKT_NS0_10constraintIXntsr14is_convertibleIPS8_PKNS0_14mutable_bufferEEE5valueEiE4typeENSA_IXntsr14is_convertibleISB_PKS4_EE5valueEiE4typeENSA_IXntsr14is_convertibleIS7_SC_EE5valueEiE4typeENSA_IXntsr14is_convertibleIS7_S4_EE5valueEiE4typeE, symObjAddr: 0x4DC20, symBinAddr: 0x100051754, symSize: 0x5C }
  - { offsetInCU: 0x1101C, offset: 0x22C07, size: 0x8, addend: 0x0, symName: __ZN5boost4asio21buffer_sequence_beginINS_5beast6detail11buffers_refINS2_19buffers_prefix_viewIRKNS2_14buffers_suffixINS0_12const_bufferEEEEEEEEEDTcldtfp_5beginEERKT_NS0_10constraintIXntsr14is_convertibleIPSF_PKNS0_14mutable_bufferEEE5valueEiE4typeENSH_IXntsr14is_convertibleISI_PKS7_EE5valueEiE4typeENSH_IXntsr14is_convertibleISE_SJ_EE5valueEiE4typeENSH_IXntsr14is_convertibleISE_S7_EE5valueEiE4typeE, symObjAddr: 0x4E4CC, symBinAddr: 0x100052000, symSize: 0x3C }
  - { offsetInCU: 0x11085, offset: 0x22C70, size: 0x8, addend: 0x0, symName: __ZN5boost4asio19buffer_sequence_endINS_5beast6detail11buffers_refINS2_19buffers_prefix_viewIRKNS2_14buffers_suffixINS0_12const_bufferEEEEEEEEEDTcldtfp_3endEERKT_NS0_10constraintIXntsr14is_convertibleIPSF_PKNS0_14mutable_bufferEEE5valueEiE4typeENSH_IXntsr14is_convertibleISI_PKS7_EE5valueEiE4typeENSH_IXntsr14is_convertibleISE_SJ_EE5valueEiE4typeENSH_IXntsr14is_convertibleISE_S7_EE5valueEiE4typeE, symObjAddr: 0x4E508, symBinAddr: 0x10005203C, symSize: 0x3C }
  - { offsetInCU: 0x110EE, offset: 0x22CD9, size: 0x8, addend: 0x0, symName: __ZN5boost4asio21buffer_sequence_beginINS_5beast19buffers_prefix_viewIRKNS2_14buffers_suffixINS0_12const_bufferEEEEEEEDTcldtfp_5beginEERKT_NS0_10constraintIXntsr14is_convertibleIPSC_PKNS0_14mutable_bufferEEE5valueEiE4typeENSE_IXntsr14is_convertibleISF_PKS5_EE5valueEiE4typeENSE_IXntsr14is_convertibleISB_SG_EE5valueEiE4typeENSE_IXntsr14is_convertibleISB_S5_EE5valueEiE4typeE, symObjAddr: 0x4E720, symBinAddr: 0x100052254, symSize: 0x3C }
  - { offsetInCU: 0x11157, offset: 0x22D42, size: 0x8, addend: 0x0, symName: __ZN5boost4asio19buffer_sequence_endINS_5beast19buffers_prefix_viewIRKNS2_14buffers_suffixINS0_12const_bufferEEEEEEEDTcldtfp_3endEERKT_NS0_10constraintIXntsr14is_convertibleIPSC_PKNS0_14mutable_bufferEEE5valueEiE4typeENSE_IXntsr14is_convertibleISF_PKS5_EE5valueEiE4typeENSE_IXntsr14is_convertibleISB_SG_EE5valueEiE4typeENSE_IXntsr14is_convertibleISB_S5_EE5valueEiE4typeE, symObjAddr: 0x4E860, symBinAddr: 0x100052394, symSize: 0x3C }
  - { offsetInCU: 0x111C0, offset: 0x22DAB, size: 0x8, addend: 0x0, symName: __ZN5boost4asio21buffer_sequence_beginINS_5beast16buffers_cat_viewIJNS2_6detail11buffers_refINS3_IJNS0_12const_bufferES6_S6_NS2_4http12basic_fieldsINSt3__19allocatorIcEEE6writer11field_rangeENS7_10chunk_crlfEEEEEENS7_6detail10chunk_sizeES6_SF_S6_SF_S6_S6_SF_EEEEEDTcldtfp_5beginEERT_NS0_10constraintIXntsr14is_convertibleIPKSM_PKNS0_14mutable_bufferEEE5valueEiE4typeENSO_IXntsr14is_convertibleISQ_PKS6_EE5valueEiE4typeENSO_IXntsr14is_convertibleISM_SR_EE5valueEiE4typeENSO_IXntsr14is_convertibleISM_S6_EE5valueEiE4typeE, symObjAddr: 0x4EBE8, symBinAddr: 0x10005271C, symSize: 0x44 }
  - { offsetInCU: 0x11229, offset: 0x22E14, size: 0x8, addend: 0x0, symName: __ZN5boost4asio21buffer_sequence_beginINS_5beast4http6detail10chunk_sizeEEEDTcldtfp_5beginEERKT_NS0_10constraintIXntsr14is_convertibleIPS8_PKNS0_14mutable_bufferEEE5valueEiE4typeENSA_IXntsr14is_convertibleISB_PKNS0_12const_bufferEEE5valueEiE4typeENSA_IXntsr14is_convertibleIS7_SC_EE5valueEiE4typeENSA_IXntsr14is_convertibleIS7_SH_EE5valueEiE4typeE, symObjAddr: 0x50080, symBinAddr: 0x100053BB4, symSize: 0x44 }
  - { offsetInCU: 0x11292, offset: 0x22E7D, size: 0x8, addend: 0x0, symName: __ZN5boost4asio19buffer_sequence_endINS_5beast4http6detail10chunk_sizeEEEDTcldtfp_3endEERKT_NS0_10constraintIXntsr14is_convertibleIPS8_PKNS0_14mutable_bufferEEE5valueEiE4typeENSA_IXntsr14is_convertibleISB_PKNS0_12const_bufferEEE5valueEiE4typeENSA_IXntsr14is_convertibleIS7_SC_EE5valueEiE4typeENSA_IXntsr14is_convertibleIS7_SH_EE5valueEiE4typeE, symObjAddr: 0x50284, symBinAddr: 0x100053DB8, symSize: 0x44 }
  - { offsetInCU: 0x112FB, offset: 0x22EE6, size: 0x8, addend: 0x0, symName: __ZN5boost4asio21buffer_sequence_beginINS_5beast16buffers_cat_viewIJNS2_6detail11buffers_refINS3_IJNS0_12const_bufferES6_S6_NS2_4http12basic_fieldsINSt3__19allocatorIcEEE6writer11field_rangeENS7_10chunk_crlfEEEEEENS7_6detail10chunk_sizeES6_SF_S6_SF_EEEEEDTcldtfp_5beginEERT_NS0_10constraintIXntsr14is_convertibleIPKSM_PKNS0_14mutable_bufferEEE5valueEiE4typeENSO_IXntsr14is_convertibleISQ_PKS6_EE5valueEiE4typeENSO_IXntsr14is_convertibleISM_SR_EE5valueEiE4typeENSO_IXntsr14is_convertibleISM_S6_EE5valueEiE4typeE, symObjAddr: 0x5111C, symBinAddr: 0x100054C50, symSize: 0x44 }
  - { offsetInCU: 0x11364, offset: 0x22F4F, size: 0x8, addend: 0x0, symName: __ZN5boost4asio21buffer_sequence_beginINS_5beast14buffers_suffixINS2_16buffers_cat_viewIJNS2_6detail11buffers_refINS4_IJNS0_12const_bufferES7_S7_NS2_4http12basic_fieldsINSt3__19allocatorIcEEE6writer11field_rangeENS8_10chunk_crlfEEEEEENS8_6detail10chunk_sizeES7_SG_S7_SG_EEEEEEEDTcldtfp_5beginEERKT_NS0_10constraintIXntsr14is_convertibleIPSP_PKNS0_14mutable_bufferEEE5valueEiE4typeENSR_IXntsr14is_convertibleISS_PKS7_EE5valueEiE4typeENSR_IXntsr14is_convertibleISO_ST_EE5valueEiE4typeENSR_IXntsr14is_convertibleISO_S7_EE5valueEiE4typeE, symObjAddr: 0x524F4, symBinAddr: 0x100056028, symSize: 0x44 }
  - { offsetInCU: 0x113CD, offset: 0x22FB8, size: 0x8, addend: 0x0, symName: __ZN5boost4asio19buffer_sequence_endINS_5beast16buffers_cat_viewIJNS2_6detail11buffers_refINS3_IJNS0_12const_bufferES6_S6_NS2_4http12basic_fieldsINSt3__19allocatorIcEEE6writer11field_rangeENS7_10chunk_crlfEEEEEENS7_6detail10chunk_sizeES6_SF_S6_SF_EEEEEDTcldtfp_3endEERKT_NS0_10constraintIXntsr14is_convertibleIPSN_PKNS0_14mutable_bufferEEE5valueEiE4typeENSP_IXntsr14is_convertibleISQ_PKS6_EE5valueEiE4typeENSP_IXntsr14is_convertibleISM_SR_EE5valueEiE4typeENSP_IXntsr14is_convertibleISM_S6_EE5valueEiE4typeE, symObjAddr: 0x52DFC, symBinAddr: 0x100056930, symSize: 0x44 }
  - { offsetInCU: 0x11436, offset: 0x23021, size: 0x8, addend: 0x0, symName: __ZN5boost4asio21buffer_sequence_beginINS_5beast6detail11buffers_refINS2_19buffers_prefix_viewIRKNS2_14buffers_suffixINS2_16buffers_cat_viewIJNS4_INS7_IJNS0_12const_bufferES8_S8_NS2_4http12basic_fieldsINSt3__19allocatorIcEEE6writer11field_rangeENS9_10chunk_crlfEEEEEENS9_6detail10chunk_sizeES8_SH_S8_SH_EEEEEEEEEEEDTcldtfp_5beginEERKT_NS0_10constraintIXntsr14is_convertibleIPSU_PKNS0_14mutable_bufferEEE5valueEiE4typeENSW_IXntsr14is_convertibleISX_PKS8_EE5valueEiE4typeENSW_IXntsr14is_convertibleIST_SY_EE5valueEiE4typeENSW_IXntsr14is_convertibleIST_S8_EE5valueEiE4typeE, symObjAddr: 0x545E8, symBinAddr: 0x10005811C, symSize: 0x44 }
  - { offsetInCU: 0x1149F, offset: 0x2308A, size: 0x8, addend: 0x0, symName: __ZN5boost4asio19buffer_sequence_endINS_5beast6detail11buffers_refINS2_19buffers_prefix_viewIRKNS2_14buffers_suffixINS2_16buffers_cat_viewIJNS4_INS7_IJNS0_12const_bufferES8_S8_NS2_4http12basic_fieldsINSt3__19allocatorIcEEE6writer11field_rangeENS9_10chunk_crlfEEEEEENS9_6detail10chunk_sizeES8_SH_S8_SH_EEEEEEEEEEEDTcldtfp_3endEERKT_NS0_10constraintIXntsr14is_convertibleIPSU_PKNS0_14mutable_bufferEEE5valueEiE4typeENSW_IXntsr14is_convertibleISX_PKS8_EE5valueEiE4typeENSW_IXntsr14is_convertibleIST_SY_EE5valueEiE4typeENSW_IXntsr14is_convertibleIST_S8_EE5valueEiE4typeE, symObjAddr: 0x5462C, symBinAddr: 0x100058160, symSize: 0x44 }
  - { offsetInCU: 0x11508, offset: 0x230F3, size: 0x8, addend: 0x0, symName: __ZN5boost4asio21buffer_sequence_beginINS_5beast19buffers_prefix_viewIRKNS2_14buffers_suffixINS2_16buffers_cat_viewIJNS2_6detail11buffers_refINS5_IJNS0_12const_bufferES8_S8_NS2_4http12basic_fieldsINSt3__19allocatorIcEEE6writer11field_rangeENS9_10chunk_crlfEEEEEENS9_6detail10chunk_sizeES8_SH_S8_SH_EEEEEEEEEDTcldtfp_5beginEERKT_NS0_10constraintIXntsr14is_convertibleIPST_PKNS0_14mutable_bufferEEE5valueEiE4typeENSV_IXntsr14is_convertibleISW_PKS8_EE5valueEiE4typeENSV_IXntsr14is_convertibleISS_SX_EE5valueEiE4typeENSV_IXntsr14is_convertibleISS_S8_EE5valueEiE4typeE, symObjAddr: 0x5496C, symBinAddr: 0x1000584A0, symSize: 0x44 }
  - { offsetInCU: 0x11571, offset: 0x2315C, size: 0x8, addend: 0x0, symName: __ZN5boost4asio19buffer_sequence_endINS_5beast19buffers_prefix_viewIRKNS2_14buffers_suffixINS2_16buffers_cat_viewIJNS2_6detail11buffers_refINS5_IJNS0_12const_bufferES8_S8_NS2_4http12basic_fieldsINSt3__19allocatorIcEEE6writer11field_rangeENS9_10chunk_crlfEEEEEENS9_6detail10chunk_sizeES8_SH_S8_SH_EEEEEEEEEDTcldtfp_3endEERKT_NS0_10constraintIXntsr14is_convertibleIPST_PKNS0_14mutable_bufferEEE5valueEiE4typeENSV_IXntsr14is_convertibleISW_PKS8_EE5valueEiE4typeENSV_IXntsr14is_convertibleISS_SX_EE5valueEiE4typeENSV_IXntsr14is_convertibleISS_S8_EE5valueEiE4typeE, symObjAddr: 0x54ABC, symBinAddr: 0x1000585F0, symSize: 0x44 }
  - { offsetInCU: 0x115DA, offset: 0x231C5, size: 0x8, addend: 0x0, symName: __ZN5boost4asio21buffer_sequence_beginINS_5beast16buffers_cat_viewIJNS2_4http6detail10chunk_sizeENS0_12const_bufferENS4_10chunk_crlfES7_S8_S7_S7_S8_EEEEEDTcldtfp_5beginEERT_NS0_10constraintIXntsr14is_convertibleIPKSB_PKNS0_14mutable_bufferEEE5valueEiE4typeENSD_IXntsr14is_convertibleISF_PKS7_EE5valueEiE4typeENSD_IXntsr14is_convertibleISB_SG_EE5valueEiE4typeENSD_IXntsr14is_convertibleISB_S7_EE5valueEiE4typeE, symObjAddr: 0x54E30, symBinAddr: 0x100058964, symSize: 0x44 }
  - { offsetInCU: 0x11643, offset: 0x2322E, size: 0x8, addend: 0x0, symName: __ZN5boost4asio21buffer_sequence_beginINS_5beast16buffers_cat_viewIJNS2_4http6detail10chunk_sizeENS0_12const_bufferENS4_10chunk_crlfES7_S8_EEEEEDTcldtfp_5beginEERT_NS0_10constraintIXntsr14is_convertibleIPKSB_PKNS0_14mutable_bufferEEE5valueEiE4typeENSD_IXntsr14is_convertibleISF_PKS7_EE5valueEiE4typeENSD_IXntsr14is_convertibleISB_SG_EE5valueEiE4typeENSD_IXntsr14is_convertibleISB_S7_EE5valueEiE4typeE, symObjAddr: 0x562A0, symBinAddr: 0x100059DD4, symSize: 0x44 }
  - { offsetInCU: 0x116AC, offset: 0x23297, size: 0x8, addend: 0x0, symName: __ZN5boost4asio21buffer_sequence_beginINS_5beast14buffers_suffixINS2_16buffers_cat_viewIJNS2_4http6detail10chunk_sizeENS0_12const_bufferENS5_10chunk_crlfES8_S9_EEEEEEEDTcldtfp_5beginEERKT_NS0_10constraintIXntsr14is_convertibleIPSE_PKNS0_14mutable_bufferEEE5valueEiE4typeENSG_IXntsr14is_convertibleISH_PKS8_EE5valueEiE4typeENSG_IXntsr14is_convertibleISD_SI_EE5valueEiE4typeENSG_IXntsr14is_convertibleISD_S8_EE5valueEiE4typeE, symObjAddr: 0x573C0, symBinAddr: 0x10005AEF4, symSize: 0x44 }
  - { offsetInCU: 0x11715, offset: 0x23300, size: 0x8, addend: 0x0, symName: __ZN5boost4asio19buffer_sequence_endINS_5beast16buffers_cat_viewIJNS2_4http6detail10chunk_sizeENS0_12const_bufferENS4_10chunk_crlfES7_S8_EEEEEDTcldtfp_3endEERKT_NS0_10constraintIXntsr14is_convertibleIPSC_PKNS0_14mutable_bufferEEE5valueEiE4typeENSE_IXntsr14is_convertibleISF_PKS7_EE5valueEiE4typeENSE_IXntsr14is_convertibleISB_SG_EE5valueEiE4typeENSE_IXntsr14is_convertibleISB_S7_EE5valueEiE4typeE, symObjAddr: 0x57C68, symBinAddr: 0x10005B79C, symSize: 0x44 }
  - { offsetInCU: 0x1177E, offset: 0x23369, size: 0x8, addend: 0x0, symName: __ZN5boost4asio21buffer_sequence_beginINS_5beast6detail11buffers_refINS2_19buffers_prefix_viewIRKNS2_14buffers_suffixINS2_16buffers_cat_viewIJNS2_4http6detail10chunk_sizeENS0_12const_bufferENS8_10chunk_crlfESB_SC_EEEEEEEEEEEDTcldtfp_5beginEERKT_NS0_10constraintIXntsr14is_convertibleIPSL_PKNS0_14mutable_bufferEEE5valueEiE4typeENSN_IXntsr14is_convertibleISO_PKSB_EE5valueEiE4typeENSN_IXntsr14is_convertibleISK_SP_EE5valueEiE4typeENSN_IXntsr14is_convertibleISK_SB_EE5valueEiE4typeE, symObjAddr: 0x592D8, symBinAddr: 0x10005CE0C, symSize: 0x44 }
  - { offsetInCU: 0x117E7, offset: 0x233D2, size: 0x8, addend: 0x0, symName: __ZN5boost4asio19buffer_sequence_endINS_5beast6detail11buffers_refINS2_19buffers_prefix_viewIRKNS2_14buffers_suffixINS2_16buffers_cat_viewIJNS2_4http6detail10chunk_sizeENS0_12const_bufferENS8_10chunk_crlfESB_SC_EEEEEEEEEEEDTcldtfp_3endEERKT_NS0_10constraintIXntsr14is_convertibleIPSL_PKNS0_14mutable_bufferEEE5valueEiE4typeENSN_IXntsr14is_convertibleISO_PKSB_EE5valueEiE4typeENSN_IXntsr14is_convertibleISK_SP_EE5valueEiE4typeENSN_IXntsr14is_convertibleISK_SB_EE5valueEiE4typeE, symObjAddr: 0x5931C, symBinAddr: 0x10005CE50, symSize: 0x44 }
  - { offsetInCU: 0x11850, offset: 0x2343B, size: 0x8, addend: 0x0, symName: __ZN5boost4asio21buffer_sequence_beginINS_5beast19buffers_prefix_viewIRKNS2_14buffers_suffixINS2_16buffers_cat_viewIJNS2_4http6detail10chunk_sizeENS0_12const_bufferENS6_10chunk_crlfES9_SA_EEEEEEEEEDTcldtfp_5beginEERKT_NS0_10constraintIXntsr14is_convertibleIPSI_PKNS0_14mutable_bufferEEE5valueEiE4typeENSK_IXntsr14is_convertibleISL_PKS9_EE5valueEiE4typeENSK_IXntsr14is_convertibleISH_SM_EE5valueEiE4typeENSK_IXntsr14is_convertibleISH_S9_EE5valueEiE4typeE, symObjAddr: 0x5965C, symBinAddr: 0x10005D190, symSize: 0x44 }
  - { offsetInCU: 0x118B9, offset: 0x234A4, size: 0x8, addend: 0x0, symName: __ZN5boost4asio19buffer_sequence_endINS_5beast19buffers_prefix_viewIRKNS2_14buffers_suffixINS2_16buffers_cat_viewIJNS2_4http6detail10chunk_sizeENS0_12const_bufferENS6_10chunk_crlfES9_SA_EEEEEEEEEDTcldtfp_3endEERKT_NS0_10constraintIXntsr14is_convertibleIPSI_PKNS0_14mutable_bufferEEE5valueEiE4typeENSK_IXntsr14is_convertibleISL_PKS9_EE5valueEiE4typeENSK_IXntsr14is_convertibleISH_SM_EE5valueEiE4typeENSK_IXntsr14is_convertibleISH_S9_EE5valueEiE4typeE, symObjAddr: 0x597AC, symBinAddr: 0x10005D2E0, symSize: 0x44 }
  - { offsetInCU: 0x11922, offset: 0x2350D, size: 0x8, addend: 0x0, symName: __ZN5boost4asio21buffer_sequence_beginINS_5beast14buffers_suffixINS2_16buffers_cat_viewIJNS2_4http6detail10chunk_sizeENS0_12const_bufferENS5_10chunk_crlfES8_S9_S8_S8_S9_EEEEEEEDTcldtfp_5beginEERKT_NS0_10constraintIXntsr14is_convertibleIPSE_PKNS0_14mutable_bufferEEE5valueEiE4typeENSG_IXntsr14is_convertibleISH_PKS8_EE5valueEiE4typeENSG_IXntsr14is_convertibleISD_SI_EE5valueEiE4typeENSG_IXntsr14is_convertibleISD_S8_EE5valueEiE4typeE, symObjAddr: 0x59E88, symBinAddr: 0x10005D9BC, symSize: 0x44 }
  - { offsetInCU: 0x1198B, offset: 0x23576, size: 0x8, addend: 0x0, symName: __ZN5boost4asio19buffer_sequence_endINS_5beast16buffers_cat_viewIJNS2_4http6detail10chunk_sizeENS0_12const_bufferENS4_10chunk_crlfES7_S8_S7_S7_S8_EEEEEDTcldtfp_3endEERKT_NS0_10constraintIXntsr14is_convertibleIPSC_PKNS0_14mutable_bufferEEE5valueEiE4typeENSE_IXntsr14is_convertibleISF_PKS7_EE5valueEiE4typeENSE_IXntsr14is_convertibleISB_SG_EE5valueEiE4typeENSE_IXntsr14is_convertibleISB_S7_EE5valueEiE4typeE, symObjAddr: 0x5A850, symBinAddr: 0x10005E384, symSize: 0x44 }
  - { offsetInCU: 0x119F4, offset: 0x235DF, size: 0x8, addend: 0x0, symName: __ZN5boost4asio21buffer_sequence_beginINS_5beast6detail11buffers_refINS2_19buffers_prefix_viewIRKNS2_14buffers_suffixINS2_16buffers_cat_viewIJNS2_4http6detail10chunk_sizeENS0_12const_bufferENS8_10chunk_crlfESB_SC_SB_SB_SC_EEEEEEEEEEEDTcldtfp_5beginEERKT_NS0_10constraintIXntsr14is_convertibleIPSL_PKNS0_14mutable_bufferEEE5valueEiE4typeENSN_IXntsr14is_convertibleISO_PKSB_EE5valueEiE4typeENSN_IXntsr14is_convertibleISK_SP_EE5valueEiE4typeENSN_IXntsr14is_convertibleISK_SB_EE5valueEiE4typeE, symObjAddr: 0x5C34C, symBinAddr: 0x10005FE80, symSize: 0x44 }
  - { offsetInCU: 0x11A5D, offset: 0x23648, size: 0x8, addend: 0x0, symName: __ZN5boost4asio19buffer_sequence_endINS_5beast6detail11buffers_refINS2_19buffers_prefix_viewIRKNS2_14buffers_suffixINS2_16buffers_cat_viewIJNS2_4http6detail10chunk_sizeENS0_12const_bufferENS8_10chunk_crlfESB_SC_SB_SB_SC_EEEEEEEEEEEDTcldtfp_3endEERKT_NS0_10constraintIXntsr14is_convertibleIPSL_PKNS0_14mutable_bufferEEE5valueEiE4typeENSN_IXntsr14is_convertibleISO_PKSB_EE5valueEiE4typeENSN_IXntsr14is_convertibleISK_SP_EE5valueEiE4typeENSN_IXntsr14is_convertibleISK_SB_EE5valueEiE4typeE, symObjAddr: 0x5C390, symBinAddr: 0x10005FEC4, symSize: 0x44 }
  - { offsetInCU: 0x11AC6, offset: 0x236B1, size: 0x8, addend: 0x0, symName: __ZN5boost4asio21buffer_sequence_beginINS_5beast19buffers_prefix_viewIRKNS2_14buffers_suffixINS2_16buffers_cat_viewIJNS2_4http6detail10chunk_sizeENS0_12const_bufferENS6_10chunk_crlfES9_SA_S9_S9_SA_EEEEEEEEEDTcldtfp_5beginEERKT_NS0_10constraintIXntsr14is_convertibleIPSI_PKNS0_14mutable_bufferEEE5valueEiE4typeENSK_IXntsr14is_convertibleISL_PKS9_EE5valueEiE4typeENSK_IXntsr14is_convertibleISH_SM_EE5valueEiE4typeENSK_IXntsr14is_convertibleISH_S9_EE5valueEiE4typeE, symObjAddr: 0x5C6D0, symBinAddr: 0x100060204, symSize: 0x44 }
  - { offsetInCU: 0x11B2F, offset: 0x2371A, size: 0x8, addend: 0x0, symName: __ZN5boost4asio19buffer_sequence_endINS_5beast19buffers_prefix_viewIRKNS2_14buffers_suffixINS2_16buffers_cat_viewIJNS2_4http6detail10chunk_sizeENS0_12const_bufferENS6_10chunk_crlfES9_SA_S9_S9_SA_EEEEEEEEEDTcldtfp_3endEERKT_NS0_10constraintIXntsr14is_convertibleIPSI_PKNS0_14mutable_bufferEEE5valueEiE4typeENSK_IXntsr14is_convertibleISL_PKS9_EE5valueEiE4typeENSK_IXntsr14is_convertibleISH_SM_EE5valueEiE4typeENSK_IXntsr14is_convertibleISH_S9_EE5valueEiE4typeE, symObjAddr: 0x5C820, symBinAddr: 0x100060354, symSize: 0x44 }
  - { offsetInCU: 0x11B98, offset: 0x23783, size: 0x8, addend: 0x0, symName: __ZN5boost4asio21buffer_sequence_beginINS_5beast14buffers_suffixINS2_16buffers_cat_viewIJNS2_6detail11buffers_refINS4_IJNS0_12const_bufferES7_S7_NS2_4http12basic_fieldsINSt3__19allocatorIcEEE6writer11field_rangeENS8_10chunk_crlfEEEEEENS8_6detail10chunk_sizeES7_SG_S7_SG_S7_S7_SG_EEEEEEEDTcldtfp_5beginEERKT_NS0_10constraintIXntsr14is_convertibleIPSP_PKNS0_14mutable_bufferEEE5valueEiE4typeENSR_IXntsr14is_convertibleISS_PKS7_EE5valueEiE4typeENSR_IXntsr14is_convertibleISO_ST_EE5valueEiE4typeENSR_IXntsr14is_convertibleISO_S7_EE5valueEiE4typeE, symObjAddr: 0x5CF10, symBinAddr: 0x100060A44, symSize: 0x44 }
  - { offsetInCU: 0x11C01, offset: 0x237EC, size: 0x8, addend: 0x0, symName: __ZN5boost4asio19buffer_sequence_endINS_5beast16buffers_cat_viewIJNS2_6detail11buffers_refINS3_IJNS0_12const_bufferES6_S6_NS2_4http12basic_fieldsINSt3__19allocatorIcEEE6writer11field_rangeENS7_10chunk_crlfEEEEEENS7_6detail10chunk_sizeES6_SF_S6_SF_S6_S6_SF_EEEEEDTcldtfp_3endEERKT_NS0_10constraintIXntsr14is_convertibleIPSN_PKNS0_14mutable_bufferEEE5valueEiE4typeENSP_IXntsr14is_convertibleISQ_PKS6_EE5valueEiE4typeENSP_IXntsr14is_convertibleISM_SR_EE5valueEiE4typeENSP_IXntsr14is_convertibleISM_S6_EE5valueEiE4typeE, symObjAddr: 0x5D938, symBinAddr: 0x10006146C, symSize: 0x44 }
  - { offsetInCU: 0x11C6A, offset: 0x23855, size: 0x8, addend: 0x0, symName: __ZN5boost4asio21buffer_sequence_beginINS_5beast6detail11buffers_refINS2_19buffers_prefix_viewIRKNS2_14buffers_suffixINS2_16buffers_cat_viewIJNS4_INS7_IJNS0_12const_bufferES8_S8_NS2_4http12basic_fieldsINSt3__19allocatorIcEEE6writer11field_rangeENS9_10chunk_crlfEEEEEENS9_6detail10chunk_sizeES8_SH_S8_SH_S8_S8_SH_EEEEEEEEEEEDTcldtfp_5beginEERKT_NS0_10constraintIXntsr14is_convertibleIPSU_PKNS0_14mutable_bufferEEE5valueEiE4typeENSW_IXntsr14is_convertibleISX_PKS8_EE5valueEiE4typeENSW_IXntsr14is_convertibleIST_SY_EE5valueEiE4typeENSW_IXntsr14is_convertibleIST_S8_EE5valueEiE4typeE, symObjAddr: 0x5F5B0, symBinAddr: 0x1000630E4, symSize: 0x44 }
  - { offsetInCU: 0x11CD3, offset: 0x238BE, size: 0x8, addend: 0x0, symName: __ZN5boost4asio19buffer_sequence_endINS_5beast6detail11buffers_refINS2_19buffers_prefix_viewIRKNS2_14buffers_suffixINS2_16buffers_cat_viewIJNS4_INS7_IJNS0_12const_bufferES8_S8_NS2_4http12basic_fieldsINSt3__19allocatorIcEEE6writer11field_rangeENS9_10chunk_crlfEEEEEENS9_6detail10chunk_sizeES8_SH_S8_SH_S8_S8_SH_EEEEEEEEEEEDTcldtfp_3endEERKT_NS0_10constraintIXntsr14is_convertibleIPSU_PKNS0_14mutable_bufferEEE5valueEiE4typeENSW_IXntsr14is_convertibleISX_PKS8_EE5valueEiE4typeENSW_IXntsr14is_convertibleIST_SY_EE5valueEiE4typeENSW_IXntsr14is_convertibleIST_S8_EE5valueEiE4typeE, symObjAddr: 0x5F5F4, symBinAddr: 0x100063128, symSize: 0x44 }
  - { offsetInCU: 0x11D3C, offset: 0x23927, size: 0x8, addend: 0x0, symName: __ZN5boost4asio21buffer_sequence_beginINS_5beast19buffers_prefix_viewIRKNS2_14buffers_suffixINS2_16buffers_cat_viewIJNS2_6detail11buffers_refINS5_IJNS0_12const_bufferES8_S8_NS2_4http12basic_fieldsINSt3__19allocatorIcEEE6writer11field_rangeENS9_10chunk_crlfEEEEEENS9_6detail10chunk_sizeES8_SH_S8_SH_S8_S8_SH_EEEEEEEEEDTcldtfp_5beginEERKT_NS0_10constraintIXntsr14is_convertibleIPST_PKNS0_14mutable_bufferEEE5valueEiE4typeENSV_IXntsr14is_convertibleISW_PKS8_EE5valueEiE4typeENSV_IXntsr14is_convertibleISS_SX_EE5valueEiE4typeENSV_IXntsr14is_convertibleISS_S8_EE5valueEiE4typeE, symObjAddr: 0x5F934, symBinAddr: 0x100063468, symSize: 0x44 }
  - { offsetInCU: 0x11DA5, offset: 0x23990, size: 0x8, addend: 0x0, symName: __ZN5boost4asio19buffer_sequence_endINS_5beast19buffers_prefix_viewIRKNS2_14buffers_suffixINS2_16buffers_cat_viewIJNS2_6detail11buffers_refINS5_IJNS0_12const_bufferES8_S8_NS2_4http12basic_fieldsINSt3__19allocatorIcEEE6writer11field_rangeENS9_10chunk_crlfEEEEEENS9_6detail10chunk_sizeES8_SH_S8_SH_S8_S8_SH_EEEEEEEEEDTcldtfp_3endEERKT_NS0_10constraintIXntsr14is_convertibleIPST_PKNS0_14mutable_bufferEEE5valueEiE4typeENSV_IXntsr14is_convertibleISW_PKS8_EE5valueEiE4typeENSV_IXntsr14is_convertibleISS_SX_EE5valueEiE4typeENSV_IXntsr14is_convertibleISS_S8_EE5valueEiE4typeE, symObjAddr: 0x5FA84, symBinAddr: 0x1000635B8, symSize: 0x44 }
  - { offsetInCU: 0x11E0E, offset: 0x239F9, size: 0x8, addend: 0x0, symName: __ZN5boost4asio21buffer_sequence_beginINS_5beast16buffers_cat_viewIJNS0_12const_bufferES4_NS2_4http10chunk_crlfEEEEEEDTcldtfp_5beginEERT_NS0_10constraintIXntsr14is_convertibleIPKS9_PKNS0_14mutable_bufferEEE5valueEiE4typeENSB_IXntsr14is_convertibleISD_PKS4_EE5valueEiE4typeENSB_IXntsr14is_convertibleIS9_SE_EE5valueEiE4typeENSB_IXntsr14is_convertibleIS9_S4_EE5valueEiE4typeE, symObjAddr: 0x5FD18, symBinAddr: 0x10006384C, symSize: 0x44 }
  - { offsetInCU: 0x11E77, offset: 0x23A62, size: 0x8, addend: 0x0, symName: __ZN5boost4asio21buffer_sequence_beginINS_5beast14buffers_suffixINS2_16buffers_cat_viewIJNS0_12const_bufferES5_NS2_4http10chunk_crlfEEEEEEEEDTcldtfp_5beginEERKT_NS0_10constraintIXntsr14is_convertibleIPSC_PKNS0_14mutable_bufferEEE5valueEiE4typeENSE_IXntsr14is_convertibleISF_PKS5_EE5valueEiE4typeENSE_IXntsr14is_convertibleISB_SG_EE5valueEiE4typeENSE_IXntsr14is_convertibleISB_S5_EE5valueEiE4typeE, symObjAddr: 0x60A50, symBinAddr: 0x100064584, symSize: 0x44 }
  - { offsetInCU: 0x11EE0, offset: 0x23ACB, size: 0x8, addend: 0x0, symName: __ZN5boost4asio19buffer_sequence_endINS_5beast16buffers_cat_viewIJNS0_12const_bufferES4_NS2_4http10chunk_crlfEEEEEEDTcldtfp_3endEERKT_NS0_10constraintIXntsr14is_convertibleIPSA_PKNS0_14mutable_bufferEEE5valueEiE4typeENSC_IXntsr14is_convertibleISD_PKS4_EE5valueEiE4typeENSC_IXntsr14is_convertibleIS9_SE_EE5valueEiE4typeENSC_IXntsr14is_convertibleIS9_S4_EE5valueEiE4typeE, symObjAddr: 0x61238, symBinAddr: 0x100064D6C, symSize: 0x44 }
  - { offsetInCU: 0x11F49, offset: 0x23B34, size: 0x8, addend: 0x0, symName: __ZN5boost4asio21buffer_sequence_beginINS_5beast6detail11buffers_refINS2_19buffers_prefix_viewIRKNS2_14buffers_suffixINS2_16buffers_cat_viewIJNS0_12const_bufferES8_NS2_4http10chunk_crlfEEEEEEEEEEEEDTcldtfp_5beginEERKT_NS0_10constraintIXntsr14is_convertibleIPSJ_PKNS0_14mutable_bufferEEE5valueEiE4typeENSL_IXntsr14is_convertibleISM_PKS8_EE5valueEiE4typeENSL_IXntsr14is_convertibleISI_SN_EE5valueEiE4typeENSL_IXntsr14is_convertibleISI_S8_EE5valueEiE4typeE, symObjAddr: 0x625A0, symBinAddr: 0x1000660D4, symSize: 0x44 }
  - { offsetInCU: 0x11FB2, offset: 0x23B9D, size: 0x8, addend: 0x0, symName: __ZN5boost4asio19buffer_sequence_endINS_5beast6detail11buffers_refINS2_19buffers_prefix_viewIRKNS2_14buffers_suffixINS2_16buffers_cat_viewIJNS0_12const_bufferES8_NS2_4http10chunk_crlfEEEEEEEEEEEEDTcldtfp_3endEERKT_NS0_10constraintIXntsr14is_convertibleIPSJ_PKNS0_14mutable_bufferEEE5valueEiE4typeENSL_IXntsr14is_convertibleISM_PKS8_EE5valueEiE4typeENSL_IXntsr14is_convertibleISI_SN_EE5valueEiE4typeENSL_IXntsr14is_convertibleISI_S8_EE5valueEiE4typeE, symObjAddr: 0x625E4, symBinAddr: 0x100066118, symSize: 0x44 }
  - { offsetInCU: 0x1201B, offset: 0x23C06, size: 0x8, addend: 0x0, symName: __ZN5boost4asio21buffer_sequence_beginINS_5beast19buffers_prefix_viewIRKNS2_14buffers_suffixINS2_16buffers_cat_viewIJNS0_12const_bufferES6_NS2_4http10chunk_crlfEEEEEEEEEEDTcldtfp_5beginEERKT_NS0_10constraintIXntsr14is_convertibleIPSG_PKNS0_14mutable_bufferEEE5valueEiE4typeENSI_IXntsr14is_convertibleISJ_PKS6_EE5valueEiE4typeENSI_IXntsr14is_convertibleISF_SK_EE5valueEiE4typeENSI_IXntsr14is_convertibleISF_S6_EE5valueEiE4typeE, symObjAddr: 0x62924, symBinAddr: 0x100066458, symSize: 0x44 }
  - { offsetInCU: 0x12084, offset: 0x23C6F, size: 0x8, addend: 0x0, symName: __ZN5boost4asio19buffer_sequence_endINS_5beast19buffers_prefix_viewIRKNS2_14buffers_suffixINS2_16buffers_cat_viewIJNS0_12const_bufferES6_NS2_4http10chunk_crlfEEEEEEEEEEDTcldtfp_3endEERKT_NS0_10constraintIXntsr14is_convertibleIPSG_PKNS0_14mutable_bufferEEE5valueEiE4typeENSI_IXntsr14is_convertibleISJ_PKS6_EE5valueEiE4typeENSI_IXntsr14is_convertibleISF_SK_EE5valueEiE4typeENSI_IXntsr14is_convertibleISF_S6_EE5valueEiE4typeE, symObjAddr: 0x62A74, symBinAddr: 0x1000665A8, symSize: 0x44 }
  - { offsetInCU: 0x120ED, offset: 0x23CD8, size: 0x8, addend: 0x0, symName: __ZN5boost4asio11buffer_sizeINS_5beast14buffers_suffixINS2_16buffers_cat_viewIJNS2_6detail11buffers_refINS4_IJNS0_12const_bufferES7_S7_NS2_4http12basic_fieldsINSt3__19allocatorIcEEE6writer11field_rangeENS8_10chunk_crlfEEEEEES7_EEEEEEEmRKT_, symObjAddr: 0x639E4, symBinAddr: 0x100067518, symSize: 0xBC }
  - { offsetInCU: 0x12126, offset: 0x23D11, size: 0x8, addend: 0x0, symName: __ZN5boost4asio19buffer_sequence_endINS_5beast14buffers_suffixINS2_16buffers_cat_viewIJNS2_6detail11buffers_refINS4_IJNS0_12const_bufferES7_S7_NS2_4http12basic_fieldsINSt3__19allocatorIcEEE6writer11field_rangeENS8_10chunk_crlfEEEEEES7_EEEEEEEDTcldtfp_3endEERKT_NS0_10constraintIXntsr14is_convertibleIPSN_PKNS0_14mutable_bufferEEE5valueEiE4typeENSP_IXntsr14is_convertibleISQ_PKS7_EE5valueEiE4typeENSP_IXntsr14is_convertibleISM_SR_EE5valueEiE4typeENSP_IXntsr14is_convertibleISM_S7_EE5valueEiE4typeE, symObjAddr: 0x63BA0, symBinAddr: 0x1000676D4, symSize: 0x44 }
  - { offsetInCU: 0x1218F, offset: 0x23D7A, size: 0x8, addend: 0x0, symName: __ZN5boost4asio19buffer_sequence_endINS_5beast16buffers_cat_viewIJNS2_6detail11buffers_refINS3_IJNS0_12const_bufferES6_S6_NS2_4http12basic_fieldsINSt3__19allocatorIcEEE6writer11field_rangeENS7_10chunk_crlfEEEEEES6_EEEEEDTcldtfp_3endEERT_NS0_10constraintIXntsr14is_convertibleIPKSK_PKNS0_14mutable_bufferEEE5valueEiE4typeENSM_IXntsr14is_convertibleISO_PKS6_EE5valueEiE4typeENSM_IXntsr14is_convertibleISK_SP_EE5valueEiE4typeENSM_IXntsr14is_convertibleISK_S6_EE5valueEiE4typeE, symObjAddr: 0x63BE4, symBinAddr: 0x100067718, symSize: 0x44 }
  - { offsetInCU: 0x121F8, offset: 0x23DE3, size: 0x8, addend: 0x0, symName: __ZN5boost4asio11buffer_sizeINS_5beast14buffers_suffixINS2_6detail11buffers_refINS2_16buffers_cat_viewIJNS0_12const_bufferES7_S7_NS2_4http12basic_fieldsINSt3__19allocatorIcEEE6writer11field_rangeENS8_10chunk_crlfEEEEEEEEEEmRKT_, symObjAddr: 0x63C5C, symBinAddr: 0x100067790, symSize: 0xBC }
  - { offsetInCU: 0x12231, offset: 0x23E1C, size: 0x8, addend: 0x0, symName: __ZN5boost4asio19buffer_sequence_endINS_5beast14buffers_suffixINS2_6detail11buffers_refINS2_16buffers_cat_viewIJNS0_12const_bufferES7_S7_NS2_4http12basic_fieldsINSt3__19allocatorIcEEE6writer11field_rangeENS8_10chunk_crlfEEEEEEEEEEDTcldtfp_3endEERKT_NS0_10constraintIXntsr14is_convertibleIPSM_PKNS0_14mutable_bufferEEE5valueEiE4typeENSO_IXntsr14is_convertibleISP_PKS7_EE5valueEiE4typeENSO_IXntsr14is_convertibleISL_SQ_EE5valueEiE4typeENSO_IXntsr14is_convertibleISL_S7_EE5valueEiE4typeE, symObjAddr: 0x63E18, symBinAddr: 0x10006794C, symSize: 0x44 }
  - { offsetInCU: 0x1229A, offset: 0x23E85, size: 0x8, addend: 0x0, symName: __ZN5boost4asio19buffer_sequence_endINS_5beast6detail11buffers_refINS2_16buffers_cat_viewIJNS0_12const_bufferES6_S6_NS2_4http12basic_fieldsINSt3__19allocatorIcEEE6writer11field_rangeENS7_10chunk_crlfEEEEEEEEDTcldtfp_3endEERT_NS0_10constraintIXntsr14is_convertibleIPKSJ_PKNS0_14mutable_bufferEEE5valueEiE4typeENSL_IXntsr14is_convertibleISN_PKS6_EE5valueEiE4typeENSL_IXntsr14is_convertibleISJ_SO_EE5valueEiE4typeENSL_IXntsr14is_convertibleISJ_S6_EE5valueEiE4typeE, symObjAddr: 0x63E5C, symBinAddr: 0x100067990, symSize: 0x3C }
  - { offsetInCU: 0x12303, offset: 0x23EEE, size: 0x8, addend: 0x0, symName: __ZN5boost4asio11buffer_sizeINS_5beast14buffers_suffixINS0_12const_bufferEEEEEmRKT_, symObjAddr: 0x63EF8, symBinAddr: 0x100067A2C, symSize: 0x74 }
  - { offsetInCU: 0x1233C, offset: 0x23F27, size: 0x8, addend: 0x0, symName: __ZN5boost4asio19buffer_sequence_endINS_5beast14buffers_suffixINS0_12const_bufferEEEEEDTcldtfp_3endEERKT_NS0_10constraintIXntsr14is_convertibleIPS8_PKNS0_14mutable_bufferEEE5valueEiE4typeENSA_IXntsr14is_convertibleISB_PKS4_EE5valueEiE4typeENSA_IXntsr14is_convertibleIS7_SC_EE5valueEiE4typeENSA_IXntsr14is_convertibleIS7_S4_EE5valueEiE4typeE, symObjAddr: 0x64004, symBinAddr: 0x100067B38, symSize: 0x5C }
  - { offsetInCU: 0x123A5, offset: 0x23F90, size: 0x8, addend: 0x0, symName: __ZN5boost4asio11buffer_sizeINS_5beast14buffers_suffixINS2_16buffers_cat_viewIJNS2_6detail11buffers_refINS4_IJNS0_12const_bufferES7_S7_NS2_4http12basic_fieldsINSt3__19allocatorIcEEE6writer11field_rangeENS8_10chunk_crlfEEEEEENS8_6detail10chunk_sizeES7_SG_S7_SG_EEEEEEEmRKT_, symObjAddr: 0x64060, symBinAddr: 0x100067B94, symSize: 0xBC }
  - { offsetInCU: 0x123DE, offset: 0x23FC9, size: 0x8, addend: 0x0, symName: __ZN5boost4asio19buffer_sequence_endINS_5beast14buffers_suffixINS2_16buffers_cat_viewIJNS2_6detail11buffers_refINS4_IJNS0_12const_bufferES7_S7_NS2_4http12basic_fieldsINSt3__19allocatorIcEEE6writer11field_rangeENS8_10chunk_crlfEEEEEENS8_6detail10chunk_sizeES7_SG_S7_SG_EEEEEEEDTcldtfp_3endEERKT_NS0_10constraintIXntsr14is_convertibleIPSP_PKNS0_14mutable_bufferEEE5valueEiE4typeENSR_IXntsr14is_convertibleISS_PKS7_EE5valueEiE4typeENSR_IXntsr14is_convertibleISO_ST_EE5valueEiE4typeENSR_IXntsr14is_convertibleISO_S7_EE5valueEiE4typeE, symObjAddr: 0x6421C, symBinAddr: 0x100067D50, symSize: 0x44 }
  - { offsetInCU: 0x12447, offset: 0x24032, size: 0x8, addend: 0x0, symName: __ZN5boost4asio19buffer_sequence_endINS_5beast16buffers_cat_viewIJNS2_6detail11buffers_refINS3_IJNS0_12const_bufferES6_S6_NS2_4http12basic_fieldsINSt3__19allocatorIcEEE6writer11field_rangeENS7_10chunk_crlfEEEEEENS7_6detail10chunk_sizeES6_SF_S6_SF_EEEEEDTcldtfp_3endEERT_NS0_10constraintIXntsr14is_convertibleIPKSM_PKNS0_14mutable_bufferEEE5valueEiE4typeENSO_IXntsr14is_convertibleISQ_PKS6_EE5valueEiE4typeENSO_IXntsr14is_convertibleISM_SR_EE5valueEiE4typeENSO_IXntsr14is_convertibleISM_S6_EE5valueEiE4typeE, symObjAddr: 0x64260, symBinAddr: 0x100067D94, symSize: 0x44 }
  - { offsetInCU: 0x124B0, offset: 0x2409B, size: 0x8, addend: 0x0, symName: __ZN5boost4asio11buffer_sizeINS_5beast14buffers_suffixINS2_16buffers_cat_viewIJNS2_4http6detail10chunk_sizeENS0_12const_bufferENS5_10chunk_crlfES8_S9_EEEEEEEmRKT_, symObjAddr: 0x642D8, symBinAddr: 0x100067E0C, symSize: 0xBC }
  - { offsetInCU: 0x124E9, offset: 0x240D4, size: 0x8, addend: 0x0, symName: __ZN5boost4asio19buffer_sequence_endINS_5beast14buffers_suffixINS2_16buffers_cat_viewIJNS2_4http6detail10chunk_sizeENS0_12const_bufferENS5_10chunk_crlfES8_S9_EEEEEEEDTcldtfp_3endEERKT_NS0_10constraintIXntsr14is_convertibleIPSE_PKNS0_14mutable_bufferEEE5valueEiE4typeENSG_IXntsr14is_convertibleISH_PKS8_EE5valueEiE4typeENSG_IXntsr14is_convertibleISD_SI_EE5valueEiE4typeENSG_IXntsr14is_convertibleISD_S8_EE5valueEiE4typeE, symObjAddr: 0x64494, symBinAddr: 0x100067FC8, symSize: 0x44 }
  - { offsetInCU: 0x12552, offset: 0x2413D, size: 0x8, addend: 0x0, symName: __ZN5boost4asio19buffer_sequence_endINS_5beast16buffers_cat_viewIJNS2_4http6detail10chunk_sizeENS0_12const_bufferENS4_10chunk_crlfES7_S8_EEEEEDTcldtfp_3endEERT_NS0_10constraintIXntsr14is_convertibleIPKSB_PKNS0_14mutable_bufferEEE5valueEiE4typeENSD_IXntsr14is_convertibleISF_PKS7_EE5valueEiE4typeENSD_IXntsr14is_convertibleISB_SG_EE5valueEiE4typeENSD_IXntsr14is_convertibleISB_S7_EE5valueEiE4typeE, symObjAddr: 0x644D8, symBinAddr: 0x10006800C, symSize: 0x44 }
  - { offsetInCU: 0x125BB, offset: 0x241A6, size: 0x8, addend: 0x0, symName: __ZN5boost4asio11buffer_sizeINS_5beast14buffers_suffixINS2_16buffers_cat_viewIJNS2_4http6detail10chunk_sizeENS0_12const_bufferENS5_10chunk_crlfES8_S9_S8_S8_S9_EEEEEEEmRKT_, symObjAddr: 0x64550, symBinAddr: 0x100068084, symSize: 0xBC }
  - { offsetInCU: 0x125F4, offset: 0x241DF, size: 0x8, addend: 0x0, symName: __ZN5boost4asio19buffer_sequence_endINS_5beast14buffers_suffixINS2_16buffers_cat_viewIJNS2_4http6detail10chunk_sizeENS0_12const_bufferENS5_10chunk_crlfES8_S9_S8_S8_S9_EEEEEEEDTcldtfp_3endEERKT_NS0_10constraintIXntsr14is_convertibleIPSE_PKNS0_14mutable_bufferEEE5valueEiE4typeENSG_IXntsr14is_convertibleISH_PKS8_EE5valueEiE4typeENSG_IXntsr14is_convertibleISD_SI_EE5valueEiE4typeENSG_IXntsr14is_convertibleISD_S8_EE5valueEiE4typeE, symObjAddr: 0x6470C, symBinAddr: 0x100068240, symSize: 0x44 }
  - { offsetInCU: 0x1265D, offset: 0x24248, size: 0x8, addend: 0x0, symName: __ZN5boost4asio19buffer_sequence_endINS_5beast16buffers_cat_viewIJNS2_4http6detail10chunk_sizeENS0_12const_bufferENS4_10chunk_crlfES7_S8_S7_S7_S8_EEEEEDTcldtfp_3endEERT_NS0_10constraintIXntsr14is_convertibleIPKSB_PKNS0_14mutable_bufferEEE5valueEiE4typeENSD_IXntsr14is_convertibleISF_PKS7_EE5valueEiE4typeENSD_IXntsr14is_convertibleISB_SG_EE5valueEiE4typeENSD_IXntsr14is_convertibleISB_S7_EE5valueEiE4typeE, symObjAddr: 0x64750, symBinAddr: 0x100068284, symSize: 0x44 }
  - { offsetInCU: 0x126C6, offset: 0x242B1, size: 0x8, addend: 0x0, symName: __ZN5boost4asio11buffer_sizeINS_5beast14buffers_suffixINS2_16buffers_cat_viewIJNS2_6detail11buffers_refINS4_IJNS0_12const_bufferES7_S7_NS2_4http12basic_fieldsINSt3__19allocatorIcEEE6writer11field_rangeENS8_10chunk_crlfEEEEEENS8_6detail10chunk_sizeES7_SG_S7_SG_S7_S7_SG_EEEEEEEmRKT_, symObjAddr: 0x647C8, symBinAddr: 0x1000682FC, symSize: 0xBC }
  - { offsetInCU: 0x126FF, offset: 0x242EA, size: 0x8, addend: 0x0, symName: __ZN5boost4asio19buffer_sequence_endINS_5beast14buffers_suffixINS2_16buffers_cat_viewIJNS2_6detail11buffers_refINS4_IJNS0_12const_bufferES7_S7_NS2_4http12basic_fieldsINSt3__19allocatorIcEEE6writer11field_rangeENS8_10chunk_crlfEEEEEENS8_6detail10chunk_sizeES7_SG_S7_SG_S7_S7_SG_EEEEEEEDTcldtfp_3endEERKT_NS0_10constraintIXntsr14is_convertibleIPSP_PKNS0_14mutable_bufferEEE5valueEiE4typeENSR_IXntsr14is_convertibleISS_PKS7_EE5valueEiE4typeENSR_IXntsr14is_convertibleISO_ST_EE5valueEiE4typeENSR_IXntsr14is_convertibleISO_S7_EE5valueEiE4typeE, symObjAddr: 0x64984, symBinAddr: 0x1000684B8, symSize: 0x44 }
  - { offsetInCU: 0x12768, offset: 0x24353, size: 0x8, addend: 0x0, symName: __ZN5boost4asio19buffer_sequence_endINS_5beast16buffers_cat_viewIJNS2_6detail11buffers_refINS3_IJNS0_12const_bufferES6_S6_NS2_4http12basic_fieldsINSt3__19allocatorIcEEE6writer11field_rangeENS7_10chunk_crlfEEEEEENS7_6detail10chunk_sizeES6_SF_S6_SF_S6_S6_SF_EEEEEDTcldtfp_3endEERT_NS0_10constraintIXntsr14is_convertibleIPKSM_PKNS0_14mutable_bufferEEE5valueEiE4typeENSO_IXntsr14is_convertibleISQ_PKS6_EE5valueEiE4typeENSO_IXntsr14is_convertibleISM_SR_EE5valueEiE4typeENSO_IXntsr14is_convertibleISM_S6_EE5valueEiE4typeE, symObjAddr: 0x649C8, symBinAddr: 0x1000684FC, symSize: 0x44 }
  - { offsetInCU: 0x127D1, offset: 0x243BC, size: 0x8, addend: 0x0, symName: __ZN5boost4asio11buffer_sizeINS_5beast14buffers_suffixINS2_16buffers_cat_viewIJNS0_12const_bufferES5_NS2_4http10chunk_crlfEEEEEEEEmRKT_, symObjAddr: 0x64A40, symBinAddr: 0x100068574, symSize: 0xBC }
  - { offsetInCU: 0x1280A, offset: 0x243F5, size: 0x8, addend: 0x0, symName: __ZN5boost4asio19buffer_sequence_endINS_5beast14buffers_suffixINS2_16buffers_cat_viewIJNS0_12const_bufferES5_NS2_4http10chunk_crlfEEEEEEEEDTcldtfp_3endEERKT_NS0_10constraintIXntsr14is_convertibleIPSC_PKNS0_14mutable_bufferEEE5valueEiE4typeENSE_IXntsr14is_convertibleISF_PKS5_EE5valueEiE4typeENSE_IXntsr14is_convertibleISB_SG_EE5valueEiE4typeENSE_IXntsr14is_convertibleISB_S5_EE5valueEiE4typeE, symObjAddr: 0x64BFC, symBinAddr: 0x100068730, symSize: 0x44 }
  - { offsetInCU: 0x12873, offset: 0x2445E, size: 0x8, addend: 0x0, symName: __ZN5boost4asio19buffer_sequence_endINS_5beast16buffers_cat_viewIJNS0_12const_bufferES4_NS2_4http10chunk_crlfEEEEEEDTcldtfp_3endEERT_NS0_10constraintIXntsr14is_convertibleIPKS9_PKNS0_14mutable_bufferEEE5valueEiE4typeENSB_IXntsr14is_convertibleISD_PKS4_EE5valueEiE4typeENSB_IXntsr14is_convertibleIS9_SE_EE5valueEiE4typeENSB_IXntsr14is_convertibleIS9_S4_EE5valueEiE4typeE, symObjAddr: 0x64C40, symBinAddr: 0x100068774, symSize: 0x44 }
  - { offsetInCU: 0x128DC, offset: 0x244C7, size: 0x8, addend: 0x0, symName: __ZN5boost4asio6bufferEPKvm, symObjAddr: 0x67B70, symBinAddr: 0x10006B6A4, symSize: 0x38 }
  - { offsetInCU: 0x1291C, offset: 0x24507, size: 0x8, addend: 0x0, symName: __ZN5boost4asio21buffer_sequence_beginINS_5beast6detail12buffers_pairILb1EEEEEDTcldtfp_5beginEERKT_NS0_10constraintIXntsr14is_convertibleIPS8_PKNS0_14mutable_bufferEEE5valueEiE4typeENSA_IXntsr14is_convertibleISB_PKNS0_12const_bufferEEE5valueEiE4typeENSA_IXntsr14is_convertibleIS7_SC_EE5valueEiE4typeENSA_IXntsr14is_convertibleIS7_SH_EE5valueEiE4typeE, symObjAddr: 0x68D10, symBinAddr: 0x10006C844, symSize: 0x34 }
  - { offsetInCU: 0x12985, offset: 0x24570, size: 0x8, addend: 0x0, symName: __ZN5boost4asio19buffer_sequence_endINS_5beast6detail12buffers_pairILb1EEEEEDTcldtfp_3endEERKT_NS0_10constraintIXntsr14is_convertibleIPS8_PKNS0_14mutable_bufferEEE5valueEiE4typeENSA_IXntsr14is_convertibleISB_PKNS0_12const_bufferEEE5valueEiE4typeENSA_IXntsr14is_convertibleIS7_SC_EE5valueEiE4typeENSA_IXntsr14is_convertibleIS7_SH_EE5valueEiE4typeE, symObjAddr: 0x68D44, symBinAddr: 0x10006C878, symSize: 0x34 }
  - { offsetInCU: 0x129EE, offset: 0x245D9, size: 0x8, addend: 0x0, symName: __ZN5boost4asio6bufferEPvm, symObjAddr: 0x69460, symBinAddr: 0x10006CF94, symSize: 0x38 }
  - { offsetInCU: 0x12A2E, offset: 0x24619, size: 0x8, addend: 0x0, symName: __ZN5boost4asio11buffer_sizeINS_5beast6detail12buffers_pairILb1EEEEEmRKT_, symObjAddr: 0x6E5B4, symBinAddr: 0x1000720E8, symSize: 0x60 }
  - { offsetInCU: 0x12A67, offset: 0x24652, size: 0x8, addend: 0x0, symName: __ZN5boost4asio11buffer_copyINS0_14mutable_bufferES2_EEmRKT_RKT0_, symObjAddr: 0x70158, symBinAddr: 0x100073C8C, symSize: 0x74 }
  - { offsetInCU: 0x12AB9, offset: 0x246A4, size: 0x8, addend: 0x0, symName: __ZN5boost4asio5writeINS0_3ssl6streamINS0_19basic_stream_socketINS0_2ip3tcpENS0_15any_io_executorEEEEENS0_14mutable_bufferEEEmRT_RKT0_RNS_6system10error_codeENS0_10constraintIXsr24is_const_buffer_sequenceISD_EE5valueEiE4typeE, symObjAddr: 0x7701C, symBinAddr: 0x10007AB50, symSize: 0x54 }
  - { offsetInCU: 0x12B27, offset: 0x24712, size: 0x8, addend: 0x0, symName: __ZN5boost4asio6bufferIhLm14EEENS0_14mutable_bufferERAT0__T_, symObjAddr: 0x78AA8, symBinAddr: 0x10007C5DC, symSize: 0x34 }
  - { offsetInCU: 0x12B6A, offset: 0x24755, size: 0x8, addend: 0x0, symName: __ZN5boost4asio5writeINS0_3ssl6streamINS0_19basic_stream_socketINS0_2ip3tcpENS0_15any_io_executorEEEEENS0_14mutable_bufferENS0_6detail14transfer_all_tEEEmRT_RKT0_T1_RNS_6system10error_codeENS0_10constraintIXsr24is_const_buffer_sequenceISF_EE5valueEiE4typeENSM_IXsr23is_completion_conditionISI_EE5valueEiE4typeE, symObjAddr: 0x78DE4, symBinAddr: 0x10007C918, symSize: 0x64 }
  - { offsetInCU: 0x12BFD, offset: 0x247E8, size: 0x8, addend: 0x0, symName: __ZN5boost4asio6bufferIhLm1EEENS0_14mutable_bufferERAT0__T_, symObjAddr: 0x792DC, symBinAddr: 0x10007CE10, symSize: 0x34 }
  - { offsetInCU: 0x12C40, offset: 0x2482B, size: 0x8, addend: 0x0, symName: __ZN5boost4asio11buffer_copyINS0_14mutable_bufferENS_5beast14buffers_suffixINS3_6detail12buffers_pairILb0EEEEEEEmRKT_RKT0_, symObjAddr: 0x794F4, symBinAddr: 0x10007D028, symSize: 0xA8 }
  - { offsetInCU: 0x12C92, offset: 0x2487D, size: 0x8, addend: 0x0, symName: __ZN5boost4asio6bufferIhLm2EEENS0_14mutable_bufferERAT0__T_, symObjAddr: 0x7959C, symBinAddr: 0x10007D0D0, symSize: 0x34 }
  - { offsetInCU: 0x12CD5, offset: 0x248C0, size: 0x8, addend: 0x0, symName: __ZN5boost4asio21buffer_sequence_beginINS_5beast6detail12buffers_pairILb0EEEEEDTcldtfp_5beginEERT_NS0_10constraintIXntsr14is_convertibleIPKS7_PKNS0_14mutable_bufferEEE5valueEiE4typeENS9_IXntsr14is_convertibleISB_PKNS0_12const_bufferEEE5valueEiE4typeENS9_IXntsr14is_convertibleIS7_SC_EE5valueEiE4typeENS9_IXntsr14is_convertibleIS7_SH_EE5valueEiE4typeE, symObjAddr: 0x79910, symBinAddr: 0x10007D444, symSize: 0x34 }
  - { offsetInCU: 0x12D3E, offset: 0x24929, size: 0x8, addend: 0x0, symName: __ZN5boost4asio19buffer_sequence_endINS_5beast6detail12buffers_pairILb0EEEEEDTcldtfp_3endEERT_NS0_10constraintIXntsr14is_convertibleIPKS7_PKNS0_14mutable_bufferEEE5valueEiE4typeENS9_IXntsr14is_convertibleISB_PKNS0_12const_bufferEEE5valueEiE4typeENS9_IXntsr14is_convertibleIS7_SC_EE5valueEiE4typeENS9_IXntsr14is_convertibleIS7_SH_EE5valueEiE4typeE, symObjAddr: 0x79958, symBinAddr: 0x10007D48C, symSize: 0x34 }
  - { offsetInCU: 0x12DA7, offset: 0x24992, size: 0x8, addend: 0x0, symName: __ZN5boost4asio21buffer_sequence_beginINS_5beast14buffers_suffixINS2_6detail12buffers_pairILb0EEEEEEEDTcldtfp_5beginEERKT_NS0_10constraintIXntsr14is_convertibleIPSA_PKNS0_14mutable_bufferEEE5valueEiE4typeENSC_IXntsr14is_convertibleISD_PKNS0_12const_bufferEEE5valueEiE4typeENSC_IXntsr14is_convertibleIS9_SE_EE5valueEiE4typeENSC_IXntsr14is_convertibleIS9_SJ_EE5valueEiE4typeE, symObjAddr: 0x79B04, symBinAddr: 0x10007D638, symSize: 0x5C }
  - { offsetInCU: 0x12E10, offset: 0x249FB, size: 0x8, addend: 0x0, symName: __ZN5boost4asio19buffer_sequence_endINS_5beast14buffers_suffixINS2_6detail12buffers_pairILb0EEEEEEEDTcldtfp_3endEERKT_NS0_10constraintIXntsr14is_convertibleIPSA_PKNS0_14mutable_bufferEEE5valueEiE4typeENSC_IXntsr14is_convertibleISD_PKNS0_12const_bufferEEE5valueEiE4typeENSC_IXntsr14is_convertibleIS9_SE_EE5valueEiE4typeENSC_IXntsr14is_convertibleIS9_SJ_EE5valueEiE4typeE, symObjAddr: 0x79B60, symBinAddr: 0x10007D694, symSize: 0x5C }
  - { offsetInCU: 0x12E79, offset: 0x24A64, size: 0x8, addend: 0x0, symName: __ZN5boost4asio19buffer_sequence_endINS_5beast6detail12buffers_pairILb0EEEEEDTcldtfp_3endEERKT_NS0_10constraintIXntsr14is_convertibleIPS8_PKNS0_14mutable_bufferEEE5valueEiE4typeENSA_IXntsr14is_convertibleISB_PKNS0_12const_bufferEEE5valueEiE4typeENSA_IXntsr14is_convertibleIS7_SC_EE5valueEiE4typeENSA_IXntsr14is_convertibleIS7_SH_EE5valueEiE4typeE, symObjAddr: 0x79DEC, symBinAddr: 0x10007D920, symSize: 0x34 }
  - { offsetInCU: 0x12EE2, offset: 0x24ACD, size: 0x8, addend: 0x0, symName: __ZN5boost4asio11buffer_sizeINS_5beast14buffers_suffixINS2_6detail12buffers_pairILb0EEEEEEEmRKT_, symObjAddr: 0x79E20, symBinAddr: 0x10007D954, symSize: 0x74 }
  - { offsetInCU: 0x12F1B, offset: 0x24B06, size: 0x8, addend: 0x0, symName: __ZN5boost4asio6bufferIcLm2048EEENS0_14mutable_bufferERAT0__T_, symObjAddr: 0x7A64C, symBinAddr: 0x10007E180, symSize: 0x34 }
  - { offsetInCU: 0x12F5F, offset: 0x24B4A, size: 0x8, addend: 0x0, symName: __ZN5boost4asio21buffer_sequence_beginINS_5beast6detail12buffers_pairILb1EEEEEDTcldtfp_5beginEERT_NS0_10constraintIXntsr14is_convertibleIPKS7_PKNS0_14mutable_bufferEEE5valueEiE4typeENS9_IXntsr14is_convertibleISB_PKNS0_12const_bufferEEE5valueEiE4typeENS9_IXntsr14is_convertibleIS7_SC_EE5valueEiE4typeENS9_IXntsr14is_convertibleIS7_SH_EE5valueEiE4typeE, symObjAddr: 0x7A948, symBinAddr: 0x10007E47C, symSize: 0x34 }
  - { offsetInCU: 0x12FC8, offset: 0x24BB3, size: 0x8, addend: 0x0, symName: __ZN5boost4asio21buffer_sequence_beginINS_5beast19buffers_prefix_viewINS2_6detail12buffers_pairILb1EEEEEEEDTcldtfp_5beginEERKT_NS0_10constraintIXntsr14is_convertibleIPSA_PKNS0_14mutable_bufferEEE5valueEiE4typeENSC_IXntsr14is_convertibleISD_PKNS0_12const_bufferEEE5valueEiE4typeENSC_IXntsr14is_convertibleIS9_SE_EE5valueEiE4typeENSC_IXntsr14is_convertibleIS9_SJ_EE5valueEiE4typeE, symObjAddr: 0x7AB40, symBinAddr: 0x10007E674, symSize: 0x3C }
  - { offsetInCU: 0x13031, offset: 0x24C1C, size: 0x8, addend: 0x0, symName: __ZN5boost4asio19buffer_sequence_endINS_5beast19buffers_prefix_viewINS2_6detail12buffers_pairILb1EEEEEEEDTcldtfp_3endEERKT_NS0_10constraintIXntsr14is_convertibleIPSA_PKNS0_14mutable_bufferEEE5valueEiE4typeENSC_IXntsr14is_convertibleISD_PKNS0_12const_bufferEEE5valueEiE4typeENSC_IXntsr14is_convertibleIS9_SE_EE5valueEiE4typeENSC_IXntsr14is_convertibleIS9_SJ_EE5valueEiE4typeE, symObjAddr: 0x7ACA0, symBinAddr: 0x10007E7D4, symSize: 0x3C }
  - { offsetInCU: 0x1309A, offset: 0x24C85, size: 0x8, addend: 0x0, symName: __ZN5boost4asio11buffer_copyINSt3__15arrayINS0_14mutable_bufferELm2EEENS_5beast19buffers_prefix_viewINS6_6detail12buffers_pairILb1EEEEEEEmRKT_RKT0_, symObjAddr: 0x7AFBC, symBinAddr: 0x10007EAF0, symSize: 0xB0 }
  - { offsetInCU: 0x130EC, offset: 0x24CD7, size: 0x8, addend: 0x0, symName: __ZN5boost4asio11buffer_sizeINS_5beast19buffers_prefix_viewINS2_6detail12buffers_pairILb1EEEEEEEmRKT_, symObjAddr: 0x7B224, symBinAddr: 0x10007ED58, symSize: 0x6C }
  - { offsetInCU: 0x13125, offset: 0x24D10, size: 0x8, addend: 0x0, symName: __ZN5boost4asio21buffer_sequence_beginINSt3__15arrayINS0_14mutable_bufferELm2EEEEEDTcldtfp_5beginEERKT_NS0_10constraintIXntsr14is_convertibleIPS8_PKS4_EE5valueEiE4typeENSA_IXntsr14is_convertibleISB_PKNS0_12const_bufferEEE5valueEiE4typeENSA_IXntsr14is_convertibleIS7_S4_EE5valueEiE4typeENSA_IXntsr14is_convertibleIS7_SG_EE5valueEiE4typeE, symObjAddr: 0x7B754, symBinAddr: 0x10007F288, symSize: 0x34 }
  - { offsetInCU: 0x1318E, offset: 0x24D79, size: 0x8, addend: 0x0, symName: __ZN5boost4asio19buffer_sequence_endINSt3__15arrayINS0_14mutable_bufferELm2EEEEEDTcldtfp_3endEERKT_NS0_10constraintIXntsr14is_convertibleIPS8_PKS4_EE5valueEiE4typeENSA_IXntsr14is_convertibleISB_PKNS0_12const_bufferEEE5valueEiE4typeENSA_IXntsr14is_convertibleIS7_S4_EE5valueEiE4typeENSA_IXntsr14is_convertibleIS7_SG_EE5valueEiE4typeE, symObjAddr: 0x7B788, symBinAddr: 0x10007F2BC, symSize: 0x34 }
  - { offsetInCU: 0x131F7, offset: 0x24DE2, size: 0x8, addend: 0x0, symName: __ZN5boost4asioplERKNS0_14mutable_bufferEm, symObjAddr: 0x7B7BC, symBinAddr: 0x10007F2F0, symSize: 0xA8 }
  - { offsetInCU: 0x14187, offset: 0x25D72, size: 0x8, addend: 0x0, symName: __ZN5boost6system6detail16interop_categoryEv, symObjAddr: 0x5F04, symBinAddr: 0x10000A7FC, symSize: 0xC }
  - { offsetInCU: 0x141A3, offset: 0x25D8E, size: 0x8, addend: 0x0, symName: __ZN5boost6system6detail10append_intERNSt3__112basic_stringIcNS2_11char_traitsIcEENS2_9allocatorIcEEEEi, symObjAddr: 0x6004, symBinAddr: 0x10000A8FC, symSize: 0x88 }
  - { offsetInCU: 0x141E8, offset: 0x25DD3, size: 0x8, addend: 0x0, symName: __ZN5boost6system6detail11failed_implEiRKNS0_14error_categoryE, symObjAddr: 0xE9EC, symBinAddr: 0x100012B28, symSize: 0xB8 }
  - { offsetInCU: 0x1473C, offset: 0x26327, size: 0x8, addend: 0x0, symName: __ZN5boost6system16generic_categoryEv, symObjAddr: 0x6E528, symBinAddr: 0x10007205C, symSize: 0xC }
  - { offsetInCU: 0x1476F, offset: 0x2635A, size: 0x8, addend: 0x0, symName: __ZN5boost6systemeqERKNS0_10error_codeES3_, symObjAddr: 0x23538, symBinAddr: 0x10002706C, symSize: 0x144 }
  - { offsetInCU: 0x147FE, offset: 0x263E9, size: 0x8, addend: 0x0, symName: __ZN5boost6systemneERKNS0_10error_codeES3_, symObjAddr: 0x2D048, symBinAddr: 0x100030B7C, symSize: 0x34 }
  - { offsetInCU: 0x14B64, offset: 0x2674F, size: 0x8, addend: 0x0, symName: __ZN5boost5beast6detail6base6412get_alphabetEv, symObjAddr: 0x3C044, symBinAddr: 0x10003FB78, symSize: 0xC }
  - { offsetInCU: 0x14B91, offset: 0x2677C, size: 0x8, addend: 0x0, symName: __ZZN5boost5beast6detail6base6412get_alphabetEvE3tab, symObjAddr: 0x87630, symBinAddr: 0x100093290, symSize: 0x0 }
  - { offsetInCU: 0x14B9B, offset: 0x26786, size: 0x8, addend: 0x0, symName: __ZN5boost5beast6detail6base646encodeEPvPKvm, symObjAddr: 0x37CA0, symBinAddr: 0x10003B7D4, symSize: 0x2D4 }
  - { offsetInCU: 0x1509C, offset: 0x26C87, size: 0x8, addend: 0x0, symName: __ZN5boost5beast6detail22dynamic_buffer_prepareINS0_13static_bufferILm1536EEENS0_4http5errorEEENS_8optionalINT_20mutable_buffers_typeEEERS8_mRNS_6system10error_codeET0_, symObjAddr: 0x68928, symBinAddr: 0x10006C45C, symSize: 0x150 }
  - { offsetInCU: 0x150C9, offset: 0x26CB4, size: 0x8, addend: 0x0, symName: __ZZN5boost5beast6detail22dynamic_buffer_prepareINS0_13static_bufferILm1536EEENS0_4http5errorEEENS_8optionalINT_20mutable_buffers_typeEEERS8_mRNS_6system10error_codeET0_E6loc_70, symObjAddr: 0x8A260, symBinAddr: 0x1000A0020, symSize: 0x0 }
  - { offsetInCU: 0x1514A, offset: 0x26D35, size: 0x8, addend: 0x0, symName: __ZN5boost5beast6detail22dynamic_buffer_prepareINS0_17basic_flat_bufferINSt3__19allocatorIcEEEENS0_4http5errorEEENS_8optionalINT_20mutable_buffers_typeEEERSB_mRNS_6system10error_codeET0_, symObjAddr: 0x6FE54, symBinAddr: 0x100073988, symSize: 0x158 }
  - { offsetInCU: 0x15177, offset: 0x26D62, size: 0x8, addend: 0x0, symName: __ZZN5boost5beast6detail22dynamic_buffer_prepareINS0_17basic_flat_bufferINSt3__19allocatorIcEEEENS0_4http5errorEEENS_8optionalINT_20mutable_buffers_typeEEERSB_mRNS_6system10error_codeET0_E6loc_70, symObjAddr: 0x8A308, symBinAddr: 0x1000A00C8, symSize: 0x0 }
  - { offsetInCU: 0x15228, offset: 0x26E13, size: 0x8, addend: 0x0, symName: __ZN5boost5beast6detail4sha110make_blockEPKhPj, symObjAddr: 0x736A8, symBinAddr: 0x1000771DC, symSize: 0xB0 }
  - { offsetInCU: 0x15282, offset: 0x26E6D, size: 0x8, addend: 0x0, symName: __ZN5boost5beast6detail4sha19transformEPjS3_, symObjAddr: 0x73758, symBinAddr: 0x10007728C, symSize: 0xB20 }
  - { offsetInCU: 0x1530E, offset: 0x26EF9, size: 0x8, addend: 0x0, symName: __ZN5boost5beast6detail4sha12R0EPjjRjjjS4_m, symObjAddr: 0x74278, symBinAddr: 0x100077DAC, symSize: 0xB0 }
  - { offsetInCU: 0x1539A, offset: 0x26F85, size: 0x8, addend: 0x0, symName: __ZN5boost5beast6detail4sha12R1EPjjRjjjS4_m, symObjAddr: 0x74328, symBinAddr: 0x100077E5C, symSize: 0xC8 }
  - { offsetInCU: 0x15426, offset: 0x27011, size: 0x8, addend: 0x0, symName: __ZN5boost5beast6detail4sha12R2EPjjRjjjS4_m, symObjAddr: 0x743F0, symBinAddr: 0x100077F24, symSize: 0xC0 }
  - { offsetInCU: 0x154B2, offset: 0x2709D, size: 0x8, addend: 0x0, symName: __ZN5boost5beast6detail4sha12R3EPjjRjjjS4_m, symObjAddr: 0x744B0, symBinAddr: 0x100077FE4, symSize: 0xD4 }
  - { offsetInCU: 0x1553E, offset: 0x27129, size: 0x8, addend: 0x0, symName: __ZN5boost5beast6detail4sha12R4EPjjRjjjS4_m, symObjAddr: 0x74584, symBinAddr: 0x1000780B8, symSize: 0xC0 }
  - { offsetInCU: 0x155CA, offset: 0x271B5, size: 0x8, addend: 0x0, symName: __ZN5boost5beast6detail4sha13rolEjm, symObjAddr: 0x74644, symBinAddr: 0x100078178, symSize: 0x38 }
  - { offsetInCU: 0x1560A, offset: 0x271F5, size: 0x8, addend: 0x0, symName: __ZN5boost5beast6detail4sha13blkEPjm, symObjAddr: 0x7467C, symBinAddr: 0x1000781B0, symSize: 0x7C }
  - { offsetInCU: 0x1B08D, offset: 0x2CC78, size: 0x8, addend: 0x0, symName: __ZN5boost5beast6detail21get_lowest_layer_implINS0_9websocket6streamINS_4asio3ssl6streamINS5_19basic_stream_socketINS5_2ip3tcpENS5_15any_io_executorEEEEELb1EEEEERNS1_22lowest_layer_type_implIT_Xsr14has_next_layerISG_EE5valueEE4typeERSG_NSt3__117integral_constantIbLb1EEE, symObjAddr: 0x2B754, symBinAddr: 0x10002F288, symSize: 0x28 }
  - { offsetInCU: 0x1B0D2, offset: 0x2CCBD, size: 0x8, addend: 0x0, symName: __ZN5boost5beast6detail21get_lowest_layer_implINS_4asio3ssl6streamINS3_19basic_stream_socketINS3_2ip3tcpENS3_15any_io_executorEEEEEEERNS1_22lowest_layer_type_implIT_Xsr14has_next_layerISD_EE5valueEE4typeERSD_NSt3__117integral_constantIbLb1EEE, symObjAddr: 0x2B77C, symBinAddr: 0x10002F2B0, symSize: 0x38 }
  - { offsetInCU: 0x1B117, offset: 0x2CD02, size: 0x8, addend: 0x0, symName: __ZN5boost5beast6detail21get_lowest_layer_implINS_4asio19basic_stream_socketINS3_2ip3tcpENS3_15any_io_executorEEEEERT_SA_NSt3__117integral_constantIbLb0EEE, symObjAddr: 0x2B7B4, symBinAddr: 0x10002F2E8, symSize: 0x14 }
  - { offsetInCU: 0x1B15C, offset: 0x2CD47, size: 0x8, addend: 0x0, symName: __ZN5boost5beast6detail13ascii_tolowerEc, symObjAddr: 0x34604, symBinAddr: 0x100038138, symSize: 0x50 }
  - { offsetInCU: 0x1B191, offset: 0x2CD7C, size: 0x8, addend: 0x0, symName: __ZN5boost5beast6detail15string_literalsli3_svEPKcm, symObjAddr: 0x42734, symBinAddr: 0x100046268, symSize: 0x38 }
  - { offsetInCU: 0x1B1D2, offset: 0x2CDBD, size: 0x8, addend: 0x0, symName: __ZN5boost5beast6detail12launder_castIPNS0_14buffers_suffixINS1_11buffers_refINS0_16buffers_cat_viewIJNS_4asio12const_bufferES7_S7_NS0_4http12basic_fieldsINSt3__19allocatorIcEEE6writer11field_rangeENS8_10chunk_crlfEEEEEEEENS_6detail15aligned_storage19aligned_storage_impILm160ELm8EEEEET_PT0_, symObjAddr: 0x43A0C, symBinAddr: 0x100047540, symSize: 0x24 }
  - { offsetInCU: 0x1B214, offset: 0x2CDFF, size: 0x8, addend: 0x0, symName: __ZN5boost5beast6detail12launder_castIPPKNS_4asio12const_bufferENS_6detail15aligned_storage19aligned_storage_impILm8ELm8EEEEET_PT0_, symObjAddr: 0x43DF4, symBinAddr: 0x100047928, symSize: 0x24 }
  - { offsetInCU: 0x1B256, offset: 0x2CE41, size: 0x8, addend: 0x0, symName: __ZN5boost5beast6detail12launder_castIPNS0_4http12basic_fieldsINSt3__19allocatorIcEEE6writer14field_iteratorENS_6detail15aligned_storage19aligned_storage_impILm8ELm8EEEEET_PT0_, symObjAddr: 0x43E50, symBinAddr: 0x100047984, symSize: 0x24 }
  - { offsetInCU: 0x1B298, offset: 0x2CE83, size: 0x8, addend: 0x0, symName: __ZN5boost5beast6detail12launder_castIPNS1_30buffers_cat_view_iterator_base8past_endENS_6detail15aligned_storage19aligned_storage_impILm8ELm8EEEEET_PT0_, symObjAddr: 0x43EAC, symBinAddr: 0x1000479E0, symSize: 0x24 }
  - { offsetInCU: 0x1B2DA, offset: 0x2CEC5, size: 0x8, addend: 0x0, symName: __ZN5boost5beast6detail12launder_castIPNS0_14buffers_suffixINS0_16buffers_cat_viewIJNS1_11buffers_refINS4_IJNS_4asio12const_bufferES7_S7_NS0_4http12basic_fieldsINSt3__19allocatorIcEEE6writer11field_rangeENS8_10chunk_crlfEEEEEES7_EEEEENS_6detail15aligned_storage19aligned_storage_impILm160ELm8EEEEET_PT0_, symObjAddr: 0x43F08, symBinAddr: 0x100047A3C, symSize: 0x24 }
  - { offsetInCU: 0x1B31C, offset: 0x2CF07, size: 0x8, addend: 0x0, symName: __ZN5boost5beast6detail12launder_castIPNS0_16buffers_cat_viewIJNS_4asio12const_bufferES5_S5_NS0_4http12basic_fieldsINSt3__19allocatorIcEEE6writer11field_rangeENS6_10chunk_crlfEEE14const_iteratorENS_6detail15aligned_storage19aligned_storage_impILm24ELm8EEEEET_PT0_, symObjAddr: 0x44254, symBinAddr: 0x100047D88, symSize: 0x24 }
  - { offsetInCU: 0x1B35E, offset: 0x2CF49, size: 0x8, addend: 0x0, symName: __ZN5boost5beast6detail12launder_castIPPKNS_4asio12const_bufferENS_6detail15aligned_storage19aligned_storage_impILm24ELm8EEEEET_PT0_, symObjAddr: 0x442B0, symBinAddr: 0x100047DE4, symSize: 0x24 }
  - { offsetInCU: 0x1B3A0, offset: 0x2CF8B, size: 0x8, addend: 0x0, symName: __ZN5boost5beast6detail12launder_castIPNS1_30buffers_cat_view_iterator_base8past_endENS_6detail15aligned_storage19aligned_storage_impILm24ELm8EEEEET_PT0_, symObjAddr: 0x442D4, symBinAddr: 0x100047E08, symSize: 0x24 }
  - { offsetInCU: 0x1B3E2, offset: 0x2CFCD, size: 0x8, addend: 0x0, symName: __ZN5boost5beast6detail12launder_castIPNS0_14buffers_suffixINS_4asio12const_bufferEEENS_6detail15aligned_storage19aligned_storage_impILm160ELm8EEEEET_PT0_, symObjAddr: 0x442F8, symBinAddr: 0x100047E2C, symSize: 0x24 }
  - { offsetInCU: 0x1B424, offset: 0x2D00F, size: 0x8, addend: 0x0, symName: __ZN5boost5beast6detail12launder_castIPNS0_14buffers_suffixINS0_16buffers_cat_viewIJNS1_11buffers_refINS4_IJNS_4asio12const_bufferES7_S7_NS0_4http12basic_fieldsINSt3__19allocatorIcEEE6writer11field_rangeENS8_10chunk_crlfEEEEEENS8_6detail10chunk_sizeES7_SG_S7_SG_EEEEENS_6detail15aligned_storage19aligned_storage_impILm160ELm8EEEEET_PT0_, symObjAddr: 0x44354, symBinAddr: 0x100047E88, symSize: 0x24 }
  - { offsetInCU: 0x1B466, offset: 0x2D051, size: 0x8, addend: 0x0, symName: __ZN5boost5beast6detail12launder_castIPNS0_14buffers_suffixINS0_16buffers_cat_viewIJNS0_4http6detail10chunk_sizeENS_4asio12const_bufferENS5_10chunk_crlfES9_SA_EEEEENS_6detail15aligned_storage19aligned_storage_impILm160ELm8EEEEET_PT0_, symObjAddr: 0x4494C, symBinAddr: 0x100048480, symSize: 0x24 }
  - { offsetInCU: 0x1B4A8, offset: 0x2D093, size: 0x8, addend: 0x0, symName: __ZN5boost5beast6detail12launder_castIPNS0_14buffers_suffixINS0_16buffers_cat_viewIJNS0_4http6detail10chunk_sizeENS_4asio12const_bufferENS5_10chunk_crlfES9_SA_S9_S9_SA_EEEEENS_6detail15aligned_storage19aligned_storage_impILm160ELm8EEEEET_PT0_, symObjAddr: 0x44E2C, symBinAddr: 0x100048960, symSize: 0x24 }
  - { offsetInCU: 0x1B4EA, offset: 0x2D0D5, size: 0x8, addend: 0x0, symName: __ZN5boost5beast6detail12launder_castIPNS0_14buffers_suffixINS0_16buffers_cat_viewIJNS1_11buffers_refINS4_IJNS_4asio12const_bufferES7_S7_NS0_4http12basic_fieldsINSt3__19allocatorIcEEE6writer11field_rangeENS8_10chunk_crlfEEEEEENS8_6detail10chunk_sizeES7_SG_S7_SG_S7_S7_SG_EEEEENS_6detail15aligned_storage19aligned_storage_impILm160ELm8EEEEET_PT0_, symObjAddr: 0x45388, symBinAddr: 0x100048EBC, symSize: 0x24 }
  - { offsetInCU: 0x1B52C, offset: 0x2D117, size: 0x8, addend: 0x0, symName: __ZN5boost5beast6detail12launder_castIPNS0_14buffers_suffixINS0_16buffers_cat_viewIJNS_4asio12const_bufferES6_NS0_4http10chunk_crlfEEEEEENS_6detail15aligned_storage19aligned_storage_impILm160ELm8EEEEET_PT0_, symObjAddr: 0x45924, symBinAddr: 0x100049458, symSize: 0x24 }
  - { offsetInCU: 0x1B56E, offset: 0x2D159, size: 0x8, addend: 0x0, symName: __ZN5boost5beast6detail3getILm0ENS1_11buffers_refINS0_16buffers_cat_viewIJNS_4asio12const_bufferES6_S6_NS0_4http12basic_fieldsINSt3__19allocatorIcEEE6writer11field_rangeENS7_10chunk_crlfEEEEEEEERKT0_RKNS1_18tuple_element_implIXT_ESI_EE, symObjAddr: 0x460B0, symBinAddr: 0x100049BE4, symSize: 0x14 }
  - { offsetInCU: 0x1B5B1, offset: 0x2D19C, size: 0x8, addend: 0x0, symName: __ZN5boost5beast6detail12launder_castIPKPKNS_4asio12const_bufferEKNS_6detail15aligned_storage19aligned_storage_impILm8ELm8EEEEET_PT0_, symObjAddr: 0x46684, symBinAddr: 0x10004A1B8, symSize: 0x24 }
  - { offsetInCU: 0x1B5F3, offset: 0x2D1DE, size: 0x8, addend: 0x0, symName: __ZN5boost5beast6detail12launder_castIPKNS0_4http12basic_fieldsINSt3__19allocatorIcEEE6writer14field_iteratorEKNS_6detail15aligned_storage19aligned_storage_impILm8ELm8EEEEET_PT0_, symObjAddr: 0x466E0, symBinAddr: 0x10004A214, symSize: 0x24 }
  - { offsetInCU: 0x1B635, offset: 0x2D220, size: 0x8, addend: 0x0, symName: __ZN5boost5beast6detail12launder_castIPKNS1_30buffers_cat_view_iterator_base8past_endEKNS_6detail15aligned_storage19aligned_storage_impILm8ELm8EEEEET_PT0_, symObjAddr: 0x4673C, symBinAddr: 0x10004A270, symSize: 0x24 }
  - { offsetInCU: 0x1B677, offset: 0x2D262, size: 0x8, addend: 0x0, symName: __ZN5boost5beast6detail3getILm0ENS_4asio12const_bufferEEERKT0_RKNS1_18tuple_element_implIXT_ES5_EE, symObjAddr: 0x469CC, symBinAddr: 0x10004A500, symSize: 0x14 }
  - { offsetInCU: 0x1B6BA, offset: 0x2D2A5, size: 0x8, addend: 0x0, symName: __ZN5boost5beast6detail3getILm1ENS_4asio12const_bufferEEERKT0_RKNS1_18tuple_element_implIXT_ES5_EE, symObjAddr: 0x46BC0, symBinAddr: 0x10004A6F4, symSize: 0x14 }
  - { offsetInCU: 0x1B6FD, offset: 0x2D2E8, size: 0x8, addend: 0x0, symName: __ZN5boost5beast6detail3getILm2ENS_4asio12const_bufferEEERKT0_RKNS1_18tuple_element_implIXT_ES5_EE, symObjAddr: 0x46D84, symBinAddr: 0x10004A8B8, symSize: 0x14 }
  - { offsetInCU: 0x1B740, offset: 0x2D32B, size: 0x8, addend: 0x0, symName: __ZN5boost5beast6detail3getILm3ENS0_4http12basic_fieldsINSt3__19allocatorIcEEE6writer11field_rangeEEERKT0_RKNS1_18tuple_element_implIXT_ESB_EE, symObjAddr: 0x46F9C, symBinAddr: 0x10004AAD0, symSize: 0x14 }
  - { offsetInCU: 0x1B783, offset: 0x2D36E, size: 0x8, addend: 0x0, symName: __ZN5boost5beast6detail3getILm4ENS0_4http10chunk_crlfEEERKT0_RKNS1_18tuple_element_implIXT_ES5_EE, symObjAddr: 0x47338, symBinAddr: 0x10004AE6C, symSize: 0x14 }
  - { offsetInCU: 0x1B7C6, offset: 0x2D3B1, size: 0x8, addend: 0x0, symName: __ZN5boost5beast6detail16make_buffers_refINS0_19buffers_prefix_viewIRKNS0_14buffers_suffixINS0_16buffers_cat_viewIJNS1_11buffers_refINS5_IJNS_4asio12const_bufferES8_S8_NS0_4http12basic_fieldsINSt3__19allocatorIcEEE6writer11field_rangeENS9_10chunk_crlfEEEEEES8_EEEEEEEEENS6_IT_EERKSP_, symObjAddr: 0x48B74, symBinAddr: 0x10004C6A8, symSize: 0x2C }
  - { offsetInCU: 0x1B7FF, offset: 0x2D3EA, size: 0x8, addend: 0x0, symName: __ZN5boost5beast6detail12launder_castIPNS0_19buffers_prefix_viewIRKNS0_14buffers_suffixINS1_11buffers_refINS0_16buffers_cat_viewIJNS_4asio12const_bufferES8_S8_NS0_4http12basic_fieldsINSt3__19allocatorIcEEE6writer11field_rangeENS9_10chunk_crlfEEEEEEEEEENS_6detail15aligned_storage19aligned_storage_impILm72ELm8EEEEET_PT0_, symObjAddr: 0x48FA0, symBinAddr: 0x10004CAD4, symSize: 0x24 }
  - { offsetInCU: 0x1B841, offset: 0x2D42C, size: 0x8, addend: 0x0, symName: __ZN5boost5beast6detail12launder_castIPNS0_19buffers_prefix_viewIRKNS0_14buffers_suffixINS0_16buffers_cat_viewIJNS1_11buffers_refINS5_IJNS_4asio12const_bufferES8_S8_NS0_4http12basic_fieldsINSt3__19allocatorIcEEE6writer11field_rangeENS9_10chunk_crlfEEEEEES8_EEEEEEENS_6detail15aligned_storage19aligned_storage_impILm72ELm8EEEEET_PT0_, symObjAddr: 0x490B0, symBinAddr: 0x10004CBE4, symSize: 0x24 }
  - { offsetInCU: 0x1B883, offset: 0x2D46E, size: 0x8, addend: 0x0, symName: __ZN5boost5beast6detail12launder_castIPNS0_19buffers_prefix_viewIRKNS0_14buffers_suffixINS_4asio12const_bufferEEEEENS_6detail15aligned_storage19aligned_storage_impILm72ELm8EEEEET_PT0_, symObjAddr: 0x491C0, symBinAddr: 0x10004CCF4, symSize: 0x24 }
  - { offsetInCU: 0x1B8C5, offset: 0x2D4B0, size: 0x8, addend: 0x0, symName: __ZN5boost5beast6detail12launder_castIPNS0_19buffers_prefix_viewIRKNS0_14buffers_suffixINS0_16buffers_cat_viewIJNS1_11buffers_refINS5_IJNS_4asio12const_bufferES8_S8_NS0_4http12basic_fieldsINSt3__19allocatorIcEEE6writer11field_rangeENS9_10chunk_crlfEEEEEENS9_6detail10chunk_sizeES8_SH_S8_SH_EEEEEEENS_6detail15aligned_storage19aligned_storage_impILm72ELm8EEEEET_PT0_, symObjAddr: 0x4921C, symBinAddr: 0x10004CD50, symSize: 0x24 }
  - { offsetInCU: 0x1B907, offset: 0x2D4F2, size: 0x8, addend: 0x0, symName: __ZN5boost5beast6detail12launder_castIPNS0_19buffers_prefix_viewIRKNS0_14buffers_suffixINS0_16buffers_cat_viewIJNS0_4http6detail10chunk_sizeENS_4asio12const_bufferENS6_10chunk_crlfESA_SB_EEEEEEENS_6detail15aligned_storage19aligned_storage_impILm72ELm8EEEEET_PT0_, symObjAddr: 0x4932C, symBinAddr: 0x10004CE60, symSize: 0x24 }
  - { offsetInCU: 0x1B949, offset: 0x2D534, size: 0x8, addend: 0x0, symName: __ZN5boost5beast6detail12launder_castIPNS0_19buffers_prefix_viewIRKNS0_14buffers_suffixINS0_16buffers_cat_viewIJNS0_4http6detail10chunk_sizeENS_4asio12const_bufferENS6_10chunk_crlfESA_SB_SA_SA_SB_EEEEEEENS_6detail15aligned_storage19aligned_storage_impILm72ELm8EEEEET_PT0_, symObjAddr: 0x4943C, symBinAddr: 0x10004CF70, symSize: 0x24 }
  - { offsetInCU: 0x1B98B, offset: 0x2D576, size: 0x8, addend: 0x0, symName: __ZN5boost5beast6detail12launder_castIPNS0_19buffers_prefix_viewIRKNS0_14buffers_suffixINS0_16buffers_cat_viewIJNS1_11buffers_refINS5_IJNS_4asio12const_bufferES8_S8_NS0_4http12basic_fieldsINSt3__19allocatorIcEEE6writer11field_rangeENS9_10chunk_crlfEEEEEENS9_6detail10chunk_sizeES8_SH_S8_SH_S8_S8_SH_EEEEEEENS_6detail15aligned_storage19aligned_storage_impILm72ELm8EEEEET_PT0_, symObjAddr: 0x4954C, symBinAddr: 0x10004D080, symSize: 0x24 }
  - { offsetInCU: 0x1B9CD, offset: 0x2D5B8, size: 0x8, addend: 0x0, symName: __ZN5boost5beast6detail12launder_castIPNS0_19buffers_prefix_viewIRKNS0_14buffers_suffixINS0_16buffers_cat_viewIJNS_4asio12const_bufferES7_NS0_4http10chunk_crlfEEEEEEEENS_6detail15aligned_storage19aligned_storage_impILm72ELm8EEEEET_PT0_, symObjAddr: 0x4965C, symBinAddr: 0x10004D190, symSize: 0x24 }
  - { offsetInCU: 0x1BA0F, offset: 0x2D5FA, size: 0x8, addend: 0x0, symName: __ZN5boost5beast6detail12launder_castIPKNS0_16buffers_cat_viewIJNS_4asio12const_bufferES5_S5_NS0_4http12basic_fieldsINSt3__19allocatorIcEEE6writer11field_rangeENS6_10chunk_crlfEEE14const_iteratorEKNS_6detail15aligned_storage19aligned_storage_impILm24ELm8EEEEET_PT0_, symObjAddr: 0x4A17C, symBinAddr: 0x10004DCB0, symSize: 0x24 }
  - { offsetInCU: 0x1BA51, offset: 0x2D63C, size: 0x8, addend: 0x0, symName: __ZN5boost5beast6detail12launder_castIPKPKNS_4asio12const_bufferEKNS_6detail15aligned_storage19aligned_storage_impILm24ELm8EEEEET_PT0_, symObjAddr: 0x4A1D8, symBinAddr: 0x10004DD0C, symSize: 0x24 }
  - { offsetInCU: 0x1BA93, offset: 0x2D67E, size: 0x8, addend: 0x0, symName: __ZN5boost5beast6detail12launder_castIPKNS1_30buffers_cat_view_iterator_base8past_endEKNS_6detail15aligned_storage19aligned_storage_impILm24ELm8EEEEET_PT0_, symObjAddr: 0x4A1FC, symBinAddr: 0x10004DD30, symSize: 0x24 }
  - { offsetInCU: 0x1BAD5, offset: 0x2D6C0, size: 0x8, addend: 0x0, symName: __ZN5boost5beast6detail16make_buffers_refINS0_19buffers_prefix_viewIRKNS0_14buffers_suffixINS1_11buffers_refINS0_16buffers_cat_viewIJNS_4asio12const_bufferES8_S8_NS0_4http12basic_fieldsINSt3__19allocatorIcEEE6writer11field_rangeENS9_10chunk_crlfEEEEEEEEEEEENS5_IT_EERKSO_, symObjAddr: 0x4C0A0, symBinAddr: 0x10004FBD4, symSize: 0x2C }
  - { offsetInCU: 0x1BB0E, offset: 0x2D6F9, size: 0x8, addend: 0x0, symName: __ZN5boost5beast6detail16make_buffers_refINS0_19buffers_prefix_viewIRKNS0_14buffers_suffixINS_4asio12const_bufferEEEEEEENS1_11buffers_refIT_EERKSC_, symObjAddr: 0x4D97C, symBinAddr: 0x1000514B0, symSize: 0x2C }
  - { offsetInCU: 0x1BB47, offset: 0x2D732, size: 0x8, addend: 0x0, symName: __ZN5boost5beast6detail3getILm1ENS0_4http6detail10chunk_sizeEEERKT0_RKNS1_18tuple_element_implIXT_ES6_EE, symObjAddr: 0x500C4, symBinAddr: 0x100053BF8, symSize: 0x14 }
  - { offsetInCU: 0x1BB8A, offset: 0x2D775, size: 0x8, addend: 0x0, symName: __ZN5boost5beast6detail3getILm3ENS0_4http10chunk_crlfEEERKT0_RKNS1_18tuple_element_implIXT_ES5_EE, symObjAddr: 0x504F8, symBinAddr: 0x10005402C, symSize: 0x14 }
  - { offsetInCU: 0x1BBCD, offset: 0x2D7B8, size: 0x8, addend: 0x0, symName: __ZN5boost5beast6detail3getILm4ENS_4asio12const_bufferEEERKT0_RKNS1_18tuple_element_implIXT_ES5_EE, symObjAddr: 0x506C8, symBinAddr: 0x1000541FC, symSize: 0x14 }
  - { offsetInCU: 0x1BC10, offset: 0x2D7FB, size: 0x8, addend: 0x0, symName: __ZN5boost5beast6detail3getILm5ENS0_4http10chunk_crlfEEERKT0_RKNS1_18tuple_element_implIXT_ES5_EE, symObjAddr: 0x50898, symBinAddr: 0x1000543CC, symSize: 0x14 }
  - { offsetInCU: 0x1BC53, offset: 0x2D83E, size: 0x8, addend: 0x0, symName: __ZN5boost5beast6detail3getILm6ENS_4asio12const_bufferEEERKT0_RKNS1_18tuple_element_implIXT_ES5_EE, symObjAddr: 0x50A68, symBinAddr: 0x10005459C, symSize: 0x14 }
  - { offsetInCU: 0x1BC96, offset: 0x2D881, size: 0x8, addend: 0x0, symName: __ZN5boost5beast6detail3getILm7ENS_4asio12const_bufferEEERKT0_RKNS1_18tuple_element_implIXT_ES5_EE, symObjAddr: 0x50C2C, symBinAddr: 0x100054760, symSize: 0x14 }
  - { offsetInCU: 0x1BCD9, offset: 0x2D8C4, size: 0x8, addend: 0x0, symName: __ZN5boost5beast6detail3getILm8ENS0_4http10chunk_crlfEEERKT0_RKNS1_18tuple_element_implIXT_ES5_EE, symObjAddr: 0x50DFC, symBinAddr: 0x100054930, symSize: 0x14 }
  - { offsetInCU: 0x1BD1C, offset: 0x2D907, size: 0x8, addend: 0x0, symName: __ZN5boost5beast6detail16make_buffers_refINS0_19buffers_prefix_viewIRKNS0_14buffers_suffixINS0_16buffers_cat_viewIJNS1_11buffers_refINS5_IJNS_4asio12const_bufferES8_S8_NS0_4http12basic_fieldsINSt3__19allocatorIcEEE6writer11field_rangeENS9_10chunk_crlfEEEEEENS9_6detail10chunk_sizeES8_SH_S8_SH_EEEEEEEEENS6_IT_EERKSR_, symObjAddr: 0x520B8, symBinAddr: 0x100055BEC, symSize: 0x2C }
  - { offsetInCU: 0x1BD55, offset: 0x2D940, size: 0x8, addend: 0x0, symName: __ZN5boost5beast6detail3getILm0ENS0_4http6detail10chunk_sizeEEERKT0_RKNS1_18tuple_element_implIXT_ES6_EE, symObjAddr: 0x55324, symBinAddr: 0x100058E58, symSize: 0x14 }
  - { offsetInCU: 0x1BD98, offset: 0x2D983, size: 0x8, addend: 0x0, symName: __ZN5boost5beast6detail3getILm2ENS0_4http10chunk_crlfEEERKT0_RKNS1_18tuple_element_implIXT_ES5_EE, symObjAddr: 0x556C4, symBinAddr: 0x1000591F8, symSize: 0x14 }
  - { offsetInCU: 0x1BDDB, offset: 0x2D9C6, size: 0x8, addend: 0x0, symName: __ZN5boost5beast6detail3getILm3ENS_4asio12const_bufferEEERKT0_RKNS1_18tuple_element_implIXT_ES5_EE, symObjAddr: 0x55894, symBinAddr: 0x1000593C8, symSize: 0x14 }
  - { offsetInCU: 0x1BE1E, offset: 0x2DA09, size: 0x8, addend: 0x0, symName: __ZN5boost5beast6detail3getILm5ENS_4asio12const_bufferEEERKT0_RKNS1_18tuple_element_implIXT_ES5_EE, symObjAddr: 0x55C20, symBinAddr: 0x100059754, symSize: 0x14 }
  - { offsetInCU: 0x1BE61, offset: 0x2DA4C, size: 0x8, addend: 0x0, symName: __ZN5boost5beast6detail3getILm7ENS0_4http10chunk_crlfEEERKT0_RKNS1_18tuple_element_implIXT_ES5_EE, symObjAddr: 0x55FA0, symBinAddr: 0x100059AD4, symSize: 0x14 }
  - { offsetInCU: 0x1BEA4, offset: 0x2DA8F, size: 0x8, addend: 0x0, symName: __ZN5boost5beast6detail16make_buffers_refINS0_19buffers_prefix_viewIRKNS0_14buffers_suffixINS0_16buffers_cat_viewIJNS0_4http6detail10chunk_sizeENS_4asio12const_bufferENS6_10chunk_crlfESA_SB_EEEEEEEEENS1_11buffers_refIT_EERKSI_, symObjAddr: 0x56F98, symBinAddr: 0x10005AACC, symSize: 0x2C }
  - { offsetInCU: 0x1BEDD, offset: 0x2DAC8, size: 0x8, addend: 0x0, symName: __ZN5boost5beast6detail16make_buffers_refINS0_19buffers_prefix_viewIRKNS0_14buffers_suffixINS0_16buffers_cat_viewIJNS0_4http6detail10chunk_sizeENS_4asio12const_bufferENS6_10chunk_crlfESA_SB_SA_SA_SB_EEEEEEEEENS1_11buffers_refIT_EERKSI_, symObjAddr: 0x59A60, symBinAddr: 0x10005D594, symSize: 0x2C }
  - { offsetInCU: 0x1BF16, offset: 0x2DB01, size: 0x8, addend: 0x0, symName: __ZN5boost5beast6detail16make_buffers_refINS0_19buffers_prefix_viewIRKNS0_14buffers_suffixINS0_16buffers_cat_viewIJNS1_11buffers_refINS5_IJNS_4asio12const_bufferES8_S8_NS0_4http12basic_fieldsINSt3__19allocatorIcEEE6writer11field_rangeENS9_10chunk_crlfEEEEEENS9_6detail10chunk_sizeES8_SH_S8_SH_S8_S8_SH_EEEEEEEEENS6_IT_EERKSR_, symObjAddr: 0x5CAD4, symBinAddr: 0x100060608, symSize: 0x2C }
  - { offsetInCU: 0x1BF4F, offset: 0x2DB3A, size: 0x8, addend: 0x0, symName: __ZN5boost5beast6detail16make_buffers_refINS0_19buffers_prefix_viewIRKNS0_14buffers_suffixINS0_16buffers_cat_viewIJNS_4asio12const_bufferES7_NS0_4http10chunk_crlfEEEEEEEEEENS1_11buffers_refIT_EERKSG_, symObjAddr: 0x60628, symBinAddr: 0x10006415C, symSize: 0x2C }
  - { offsetInCU: 0x1BF88, offset: 0x2DB73, size: 0x8, addend: 0x0, symName: __ZN5boost5beast6detail5clampIyEEmT_, symObjAddr: 0x6781C, symBinAddr: 0x10006B350, symSize: 0x58 }
  - { offsetInCU: 0x1BFC1, offset: 0x2DBAC, size: 0x8, addend: 0x0, symName: __ZN5boost5beast6detail5clampIyEEmT_m, symObjAddr: 0x6D4D8, symBinAddr: 0x10007100C, symSize: 0x48 }
  - { offsetInCU: 0x1C00A, offset: 0x2DBF5, size: 0x8, addend: 0x0, symName: __ZN5boost5beast6detail9read_sizeINS0_13static_bufferILm1536EEEEEmRT_mNSt3__117integral_constantIbLb0EEE, symObjAddr: 0x6E8C8, symBinAddr: 0x1000723FC, symSize: 0xDC }
  - { offsetInCU: 0x1C07F, offset: 0x2DC6A, size: 0x8, addend: 0x0, symName: __ZN5boost5beast6detail9read_sizeINS0_17basic_flat_bufferINSt3__19allocatorIcEEEEEEmRT_mNS4_17integral_constantIbLb0EEE, symObjAddr: 0x70218, symBinAddr: 0x100073D4C, symSize: 0xDC }
  - { offsetInCU: 0x1C0F5, offset: 0x2DCE0, size: 0x8, addend: 0x0, symName: __ZN5boost5beast6detail4initERNS1_12sha1_contextE, symObjAddr: 0x73238, symBinAddr: 0x100076D6C, symSize: 0x70 }
  - { offsetInCU: 0x1C120, offset: 0x2DD0B, size: 0x8, addend: 0x0, symName: __ZN5boost5beast6detail6updateERNS1_12sha1_contextEPKvm, symObjAddr: 0x732A8, symBinAddr: 0x100076DDC, symSize: 0x14C }
  - { offsetInCU: 0x1C1A3, offset: 0x2DD8E, size: 0x8, addend: 0x0, symName: __ZN5boost5beast6detail6finishERNS1_12sha1_contextEPv, symObjAddr: 0x733F4, symBinAddr: 0x100076F28, symSize: 0x24C }
  - { offsetInCU: 0x1C289, offset: 0x2DE74, size: 0x8, addend: 0x0, symName: __ZN5boost5beast6detail11sum_exceedsIyymEEbT_T0_T1_, symObjAddr: 0x797D0, symBinAddr: 0x10007D304, symSize: 0x60 }
  - { offsetInCU: 0x1CBBD, offset: 0x2E7A8, size: 0x8, addend: 0x0, symName: __ZN5boost5beast9websocket6detail15secure_generateEv, symObjAddr: 0x37F98, symBinAddr: 0x10003BACC, symSize: 0x94 }
  - { offsetInCU: 0x1CBF5, offset: 0x2E7E0, size: 0x8, addend: 0x0, symName: __ZN5boost5beast9websocket6detail9prng_seedEPNSt3__18seed_seqE, symObjAddr: 0x380B8, symBinAddr: 0x10003BBEC, symSize: 0xA4 }
  - { offsetInCU: 0x1CC22, offset: 0x2E80D, size: 0x8, addend: 0x0, symName: __ZZN5boost5beast9websocket6detail9prng_seedEPNSt3__18seed_seqEE1d, symObjAddr: 0x8FE98, symBinAddr: 0x1000A9770, symSize: 0x0 }
  - { offsetInCU: 0x1CC6A, offset: 0x2E855, size: 0x8, addend: 0x0, symName: __ZN5boost5beast9websocket6detail10make_nonceEv, symObjAddr: 0x3815C, symBinAddr: 0x10003BC90, symSize: 0x1C }
  - { offsetInCU: 0x1CC97, offset: 0x2E882, size: 0x8, addend: 0x0, symName: __ZZN5boost5beast9websocket6detail10make_nonceEvE5nonce, symObjAddr: 0x8FEC0, symBinAddr: 0x1000A9798, symSize: 0x0 }
  - { offsetInCU: 0x1CCA1, offset: 0x2E88C, size: 0x8, addend: 0x0, symName: __ZN5boost5beast9websocket6detail13fast_generateEv, symObjAddr: 0x3802C, symBinAddr: 0x10003BB60, symSize: 0x8C }
  - { offsetInCU: 0x1CE34, offset: 0x2EA1F, size: 0x8, addend: 0x0, symName: __ZN5boost5beast9websocket6detail10read_closeINS0_19buffers_prefix_viewINS0_6detail12buffers_pairILb1EEEEEEEvRNS1_12close_reasonERKT_RNS_6system10error_codeE, symObjAddr: 0x78044, symBinAddr: 0x10007BB78, symSize: 0x2AC }
  - { offsetInCU: 0x1CE5D, offset: 0x2EA48, size: 0x8, addend: 0x0, symName: __ZZN5boost5beast9websocket6detail10read_closeINS0_19buffers_prefix_viewINS0_6detail12buffers_pairILb1EEEEEEEvRNS1_12close_reasonERKT_RNS_6system10error_codeEE7loc_212, symObjAddr: 0x8A6E0, symBinAddr: 0x1000A04A0, symSize: 0x0 }
  - { offsetInCU: 0x1CE74, offset: 0x2EA5F, size: 0x8, addend: 0x0, symName: __ZZN5boost5beast9websocket6detail10read_closeINS0_19buffers_prefix_viewINS0_6detail12buffers_pairILb1EEEEEEEvRNS1_12close_reasonERKT_RNS_6system10error_codeEE7loc_228, symObjAddr: 0x8A6F8, symBinAddr: 0x1000A04B8, symSize: 0x0 }
  - { offsetInCU: 0x1CE8B, offset: 0x2EA76, size: 0x8, addend: 0x0, symName: __ZZN5boost5beast9websocket6detail10read_closeINS0_19buffers_prefix_viewINS0_6detail12buffers_pairILb1EEEEEEEvRNS1_12close_reasonERKT_RNS_6system10error_codeEE7loc_236, symObjAddr: 0x8A710, symBinAddr: 0x1000A04D0, symSize: 0x0 }
  - { offsetInCU: 0x1CF04, offset: 0x2EAEF, size: 0x8, addend: 0x0, symName: __ZN5boost5beast9websocket6detail15make_sec_ws_keyERNS_14static_strings19basic_static_stringILm24EcNSt3__111char_traitsIcEEEE, symObjAddr: 0x30FBC, symBinAddr: 0x100034AF0, symSize: 0x108 }
  - { offsetInCU: 0x1CFA5, offset: 0x2EB90, size: 0x8, addend: 0x0, symName: __ZN5boost5beast9websocket6detail9make_prngEb, symObjAddr: 0x37C14, symBinAddr: 0x10003B748, symSize: 0x48 }
  - { offsetInCU: 0x1CFD5, offset: 0x2EBC0, size: 0x8, addend: 0x0, symName: __ZN5boost5beast9websocket6detail8make_pcgEv, symObjAddr: 0x3B4AC, symBinAddr: 0x10003EFE0, symSize: 0xB4 }
  - { offsetInCU: 0x1D005, offset: 0x2EBF0, size: 0x8, addend: 0x0, symName: __ZN5boost5beast9websocket6detail9pmd_writeINSt3__19allocatorIcEEEEvRNS0_4http12basic_fieldsIT_EERKNS2_9pmd_offerE, symObjAddr: 0x3C0A4, symBinAddr: 0x10003FBD8, symSize: 0x9C }
  - { offsetInCU: 0x1D05A, offset: 0x2EC45, size: 0x8, addend: 0x0, symName: __ZN5boost5beast9websocket6detail14pmd_write_implERKNS2_9pmd_offerE, symObjAddr: 0x3C140, symBinAddr: 0x10003FC74, symSize: 0x1B0 }
  - { offsetInCU: 0x1D09B, offset: 0x2EC86, size: 0x8, addend: 0x0, symName: __ZN5boost5beast9websocket6detail8pmd_readINSt3__19allocatorIcEEEEvRNS2_9pmd_offerERKNS0_4http12basic_fieldsIT_EE, symObjAddr: 0x3CEB4, symBinAddr: 0x1000409E8, symSize: 0x70 }
  - { offsetInCU: 0x1D0F0, offset: 0x2ECDB, size: 0x8, addend: 0x0, symName: __ZN5boost5beast9websocket6detail13pmd_read_implERNS2_9pmd_offerERKNS0_4http8ext_listE, symObjAddr: 0x3CFFC, symBinAddr: 0x100040B30, symSize: 0x4CC }
  - { offsetInCU: 0x1D1C5, offset: 0x2EDB0, size: 0x8, addend: 0x0, symName: __ZN5boost5beast9websocket6detail10parse_bitsENS_4core17basic_string_viewIcEE, symObjAddr: 0x3E140, symBinAddr: 0x100041C74, symSize: 0x1A4 }
  - { offsetInCU: 0x1D279, offset: 0x2EE64, size: 0x8, addend: 0x0, symName: __ZN5boost5beast9websocket6detail18make_sec_ws_acceptERNS_14static_strings19basic_static_stringILm28EcNSt3__111char_traitsIcEEEENS_4core17basic_string_viewIcEE, symObjAddr: 0x71D28, symBinAddr: 0x10007585C, symSize: 0x174 }
  - { offsetInCU: 0x1D2F4, offset: 0x2EEDF, size: 0x8, addend: 0x0, symName: __ZN5boost5beast9websocket6detail13pmd_normalizeERNS2_9pmd_offerE, symObjAddr: 0x74A10, symBinAddr: 0x100078544, symSize: 0x8C }
  - { offsetInCU: 0x1D321, offset: 0x2EF0C, size: 0x8, addend: 0x0, symName: __ZN5boost5beast9websocket6detail10is_controlENS2_6opcodeE, symObjAddr: 0x77F50, symBinAddr: 0x10007BA84, symSize: 0x20 }
  - { offsetInCU: 0x1D351, offset: 0x2EF3C, size: 0x8, addend: 0x0, symName: __ZN5boost5beast9websocket6detail12mask_inplaceINS0_19buffers_prefix_viewINS0_6detail12buffers_pairILb1EEEEEEEvRKT_RNSt3__15arrayIhLm4EEE, symObjAddr: 0x77FB0, symBinAddr: 0x10007BAE4, symSize: 0x94 }
  - { offsetInCU: 0x1D3EB, offset: 0x2EFD6, size: 0x8, addend: 0x0, symName: __ZN5boost5beast9websocket6detail5writeINS0_23flat_static_buffer_baseEEEvRT_RKNS2_12frame_headerE, symObjAddr: 0x78370, symBinAddr: 0x10007BEA4, symSize: 0x264 }
  - { offsetInCU: 0x1D4AE, offset: 0x2F099, size: 0x8, addend: 0x0, symName: __ZN5boost5beast9websocket6detail11prepare_keyERNSt3__15arrayIhLm4EEEj, symObjAddr: 0x785D4, symBinAddr: 0x10007C108, symSize: 0xB0 }
  - { offsetInCU: 0x1D4EA, offset: 0x2F0D5, size: 0x8, addend: 0x0, symName: __ZN5boost5beast9websocket6detail12mask_inplaceERKNS_4asio14mutable_bufferERNSt3__15arrayIhLm4EEE, symObjAddr: 0x78838, symBinAddr: 0x10007C36C, symSize: 0x150 }
  - { offsetInCU: 0x1D594, offset: 0x2F17F, size: 0x8, addend: 0x0, symName: __ZN5boost5beast9websocket6detail3rolERNSt3__15arrayIhLm4EEEm, symObjAddr: 0x78D00, symBinAddr: 0x10007C834, symSize: 0xB8 }
  - { offsetInCU: 0x1D5FF, offset: 0x2F1EA, size: 0x8, addend: 0x0, symName: __ZN5boost5beast9websocket6detail11is_reservedENS2_6opcodeE, symObjAddr: 0x79688, symBinAddr: 0x10007D1BC, symSize: 0x84 }
  - { offsetInCU: 0x1D62F, offset: 0x2F21A, size: 0x8, addend: 0x0, symName: __ZN5boost5beast9websocket6detail19is_valid_close_codeEt, symObjAddr: 0x7B06C, symBinAddr: 0x10007EBA0, symSize: 0x11C }
  - { offsetInCU: 0x1D65F, offset: 0x2F24A, size: 0x8, addend: 0x0, symName: __ZN5boost5beast9websocket6detail10check_utf8EPKcm, symObjAddr: 0x7B188, symBinAddr: 0x10007ECBC, symSize: 0x78 }
  - { offsetInCU: 0x1E5D2, offset: 0x301BD, size: 0x8, addend: 0x0, symName: __ZN5boost5beast9websocket15make_error_codeENS1_5errorE, symObjAddr: 0x7288C, symBinAddr: 0x1000763C0, symSize: 0xB0 }
  - { offsetInCU: 0x1E5FF, offset: 0x301EA, size: 0x8, addend: 0x0, symName: __ZZN5boost5beast9websocket15make_error_codeENS1_5errorEE3cat, symObjAddr: 0x8FFF8, symBinAddr: 0x1000A98D0, symSize: 0x0 }
  - { offsetInCU: 0x1E619, offset: 0x30204, size: 0x8, addend: 0x0, symName: __ZN5boost5beast9websocket20make_error_conditionENS1_9conditionE, symObjAddr: 0x72E5C, symBinAddr: 0x100076990, symSize: 0xB4 }
  - { offsetInCU: 0x1E646, offset: 0x30231, size: 0x8, addend: 0x0, symName: __ZZN5boost5beast9websocket20make_error_conditionENS1_9conditionEE3cat, symObjAddr: 0x90038, symBinAddr: 0x1000A9910, symSize: 0x0 }
  - { offsetInCU: 0x1E67B, offset: 0x30266, size: 0x8, addend: 0x0, symName: __ZN5boost5beast9websocket8teardownINS_4asio2ip3tcpENS3_15any_io_executorEEEvNS0_9role_typeERNS3_19basic_stream_socketIT_T0_EERNS_6system10error_codeE, symObjAddr: 0x7A0D0, symBinAddr: 0x10007DC04, symSize: 0x1AC }
  - { offsetInCU: 0x208E9, offset: 0x324D4, size: 0x8, addend: 0x0, symName: __ZN5boost5beast4http6detail15get_field_tableEv, symObjAddr: 0x3769C, symBinAddr: 0x10003B1D0, symSize: 0x9C }
  - { offsetInCU: 0x20918, offset: 0x32503, size: 0x8, addend: 0x0, symName: __ZZN5boost5beast4http6detail15get_field_tableEvE3tab, symObjAddr: 0x8A9A8, symBinAddr: 0x1000A4280, symSize: 0x0 }
  - { offsetInCU: 0x20A37, offset: 0x32622, size: 0x8, addend: 0x0, symName: __ZN5boost5beast4http6detail13is_token_charEc, symObjAddr: 0x3E730, symBinAddr: 0x100042264, symSize: 0x24 }
  - { offsetInCU: 0x20A64, offset: 0x3264F, size: 0x8, addend: 0x0, symName: __ZZN5boost5beast4http6detail13is_token_charEcE3tab, symObjAddr: 0x87671, symBinAddr: 0x1000932D1, symSize: 0x0 }
  - { offsetInCU: 0x20A7E, offset: 0x32669, size: 0x8, addend: 0x0, symName: __ZN5boost5beast4http6detail9is_qdcharEc, symObjAddr: 0x3ED0C, symBinAddr: 0x100042840, symSize: 0x24 }
  - { offsetInCU: 0x20AAB, offset: 0x32696, size: 0x8, addend: 0x0, symName: __ZZN5boost5beast4http6detail9is_qdcharEcE3tab, symObjAddr: 0x87771, symBinAddr: 0x1000933D1, symSize: 0x0 }
  - { offsetInCU: 0x20AC5, offset: 0x326B0, size: 0x8, addend: 0x0, symName: __ZN5boost5beast4http6detail9is_qpcharEc, symObjAddr: 0x3ED30, symBinAddr: 0x100042864, symSize: 0x24 }
  - { offsetInCU: 0x20AF2, offset: 0x326DD, size: 0x8, addend: 0x0, symName: __ZZN5boost5beast4http6detail9is_qpcharEcE3tab, symObjAddr: 0x87871, symBinAddr: 0x1000934D1, symSize: 0x0 }
  - { offsetInCU: 0x20B0C, offset: 0x326F7, size: 0x8, addend: 0x0, symName: __ZN5boost5beast4http6detail10chunk_lastEv, symObjAddr: 0x41468, symBinAddr: 0x100044F9C, symSize: 0x80 }
  - { offsetInCU: 0x20B39, offset: 0x32724, size: 0x8, addend: 0x0, symName: __ZZN5boost5beast4http6detail10chunk_lastEvE2cb, symObjAddr: 0x8FEE0, symBinAddr: 0x1000A97B8, symSize: 0x0 }
  - { offsetInCU: 0x20E19, offset: 0x32A04, size: 0x8, addend: 0x0, symName: __ZN5boost5beast4http6detail9read_someINS_4asio3ssl6streamINS4_19basic_stream_socketINS4_2ip3tcpENS4_15any_io_executorEEEEENS0_13static_bufferILm1536EEELb0EEEmRT_RT0_RNS1_12basic_parserIXT1_EEERNS_6system10error_codeE, symObjAddr: 0x682F8, symBinAddr: 0x10006BE2C, symSize: 0x3F4 }
  - { offsetInCU: 0x20E48, offset: 0x32A33, size: 0x8, addend: 0x0, symName: __ZZN5boost5beast4http6detail9read_someINS_4asio3ssl6streamINS4_19basic_stream_socketINS4_2ip3tcpENS4_15any_io_executorEEEEENS0_13static_bufferILm1536EEELb0EEEmRT_RT0_RNS1_12basic_parserIXT1_EEERNS_6system10error_codeEE7loc_358, symObjAddr: 0x89C18, symBinAddr: 0x10009F9D8, symSize: 0x0 }
  - { offsetInCU: 0x20E60, offset: 0x32A4B, size: 0x8, addend: 0x0, symName: __ZZN5boost5beast4http6detail9read_someINS_4asio3ssl6streamINS4_19basic_stream_socketINS4_2ip3tcpENS4_15any_io_executorEEEEENS0_13static_bufferILm1536EEELb0EEEmRT_RT0_RNS1_12basic_parserIXT1_EEERNS_6system10error_codeEE7loc_383, symObjAddr: 0x89C30, symBinAddr: 0x10009F9F0, symSize: 0x0 }
  - { offsetInCU: 0x21063, offset: 0x32C4E, size: 0x8, addend: 0x0, symName: __ZN5boost5beast4http6detail9read_someINS_4asio3ssl6streamINS4_19basic_stream_socketINS4_2ip3tcpENS4_15any_io_executorEEEEENS0_17basic_flat_bufferINSt3__19allocatorIcEEEELb0EEEmRT_RT0_RNS1_12basic_parserIXT1_EEERNS_6system10error_codeE, symObjAddr: 0x6F7D4, symBinAddr: 0x100073308, symSize: 0x3F0 }
  - { offsetInCU: 0x21092, offset: 0x32C7D, size: 0x8, addend: 0x0, symName: __ZZN5boost5beast4http6detail9read_someINS_4asio3ssl6streamINS4_19basic_stream_socketINS4_2ip3tcpENS4_15any_io_executorEEEEENS0_17basic_flat_bufferINSt3__19allocatorIcEEEELb0EEEmRT_RT0_RNS1_12basic_parserIXT1_EEERNS_6system10error_codeEE7loc_358, symObjAddr: 0x8A2D8, symBinAddr: 0x1000A0098, symSize: 0x0 }
  - { offsetInCU: 0x210AA, offset: 0x32C95, size: 0x8, addend: 0x0, symName: __ZZN5boost5beast4http6detail9read_someINS_4asio3ssl6streamINS4_19basic_stream_socketINS4_2ip3tcpENS4_15any_io_executorEEEEENS0_17basic_flat_bufferINSt3__19allocatorIcEEEELb0EEEmRT_RT0_RNS1_12basic_parserIXT1_EEERNS_6system10error_codeEE7loc_383, symObjAddr: 0x8A2F0, symBinAddr: 0x1000A00B0, symSize: 0x0 }
  - { offsetInCU: 0x214AE, offset: 0x33099, size: 0x8, addend: 0x0, symName: __ZN5boost5beast4http6detail4trimENS_4core17basic_string_viewIcEE, symObjAddr: 0x3705C, symBinAddr: 0x10003AB90, symSize: 0x110 }
  - { offsetInCU: 0x2151E, offset: 0x33109, size: 0x8, addend: 0x0, symName: __ZN5boost5beast4http6detail8skip_owsIPKcEEvRT_S6_, symObjAddr: 0x371EC, symBinAddr: 0x10003AD20, symSize: 0x84 }
  - { offsetInCU: 0x21562, offset: 0x3314D, size: 0x8, addend: 0x0, symName: __ZN5boost5beast4http6detail9to_stringENS1_5fieldE, symObjAddr: 0x37614, symBinAddr: 0x10003B148, symSize: 0x88 }
  - { offsetInCU: 0x2162B, offset: 0x33216, size: 0x8, addend: 0x0, symName: __ZN5boost5beast4http6detail10skip_tokenIPKcEEvRT_S6_, symObjAddr: 0x3EC84, symBinAddr: 0x1000427B8, symSize: 0x88 }
  - { offsetInCU: 0x21670, offset: 0x3325B, size: 0x8, addend: 0x0, symName: __ZN5boost5beast4http6detail15write_some_implINS_4asio3ssl6streamINS4_19basic_stream_socketINS4_2ip3tcpENS4_15any_io_executorEEEEELb1ENS1_10empty_bodyENS1_12basic_fieldsINSt3__19allocatorIcEEEEEEmRT_RNS1_10serializerIXT0_ET1_T2_EERNS_6system10error_codeE, symObjAddr: 0x3F794, symBinAddr: 0x1000432C8, symSize: 0xC0 }
  - { offsetInCU: 0x218A4, offset: 0x3348F, size: 0x8, addend: 0x0, symName: __ZN5boost5beast4http6detail12sync_read_opINS2_14parser_is_doneENS_4asio3ssl6streamINS5_19basic_stream_socketINS5_2ip3tcpENS5_15any_io_executorEEEEENS0_13static_bufferILm1536EEELb0EEEmRT0_RT1_RNS1_12basic_parserIXT2_EEERNS_6system10error_codeE, symObjAddr: 0x681D8, symBinAddr: 0x10006BD0C, symSize: 0xB4 }
  - { offsetInCU: 0x21971, offset: 0x3355C, size: 0x8, addend: 0x0, symName: __ZN5boost5beast4http6detail12sync_read_opINS2_14parser_is_doneENS_4asio3ssl6streamINS5_19basic_stream_socketINS5_2ip3tcpENS5_15any_io_executorEEEEENS0_17basic_flat_bufferINSt3__19allocatorIcEEEELb0EEEmRT0_RT1_RNS1_12basic_parserIXT2_EEERNS_6system10error_codeE, symObjAddr: 0x6F720, symBinAddr: 0x100073254, symSize: 0xB4 }
  - { offsetInCU: 0x22622, offset: 0x3420D, size: 0x8, addend: 0x0, symName: __ZN5boost5beast4http15make_error_codeENS1_5errorE, symObjAddr: 0x6DF6C, symBinAddr: 0x100071AA0, symSize: 0xB0 }
  - { offsetInCU: 0x2264F, offset: 0x3423A, size: 0x8, addend: 0x0, symName: __ZZN5boost5beast4http15make_error_codeENS1_5errorEE3cat, symObjAddr: 0x8FF80, symBinAddr: 0x1000A9858, symSize: 0x0 }
  - { offsetInCU: 0x22D91, offset: 0x3497C, size: 0x8, addend: 0x0, symName: __ZN5boost5beast4http5writeINS_4asio3ssl6streamINS3_19basic_stream_socketINS3_2ip3tcpENS3_15any_io_executorEEEEELb1ENS1_10empty_bodyENS1_12basic_fieldsINSt3__19allocatorIcEEEEEENSE_9enable_ifIXntsr22is_mutable_body_writerIT1_EE5valueEmE4typeERT_RKNS1_7messageIXT0_ESJ_T2_EERNS_6system10error_codeE, symObjAddr: 0x2F970, symBinAddr: 0x1000334A4, symSize: 0xB4 }
  - { offsetInCU: 0x22E1C, offset: 0x34A07, size: 0x8, addend: 0x0, symName: __ZN5boost5beast4http4readINS_4asio3ssl6streamINS3_19basic_stream_socketINS3_2ip3tcpENS3_15any_io_executorEEEEENS0_13static_bufferILm1536EEELb0EEEmRT_RT0_RNS1_12basic_parserIXT1_EEERNS_6system10error_codeE, symObjAddr: 0x2FC34, symBinAddr: 0x100033768, symSize: 0x4C }
  - { offsetInCU: 0x22E9D, offset: 0x34A88, size: 0x8, addend: 0x0, symName: __ZN5boost5beast4http4readINS_4asio3ssl6streamINS3_19basic_stream_socketINS3_2ip3tcpENS3_15any_io_executorEEEEENS0_17basic_flat_bufferINSt3__19allocatorIcEEEELb0EEEmRT_RT0_RNS1_12basic_parserIXT1_EEERNS_6system10error_codeE, symObjAddr: 0x302FC, symBinAddr: 0x100033E30, symSize: 0x4C }
  - { offsetInCU: 0x22F1E, offset: 0x34B09, size: 0x8, addend: 0x0, symName: __ZN5boost5beast4http9to_stringENS1_5fieldE, symObjAddr: 0x33694, symBinAddr: 0x1000371C8, symSize: 0x34 }
  - { offsetInCU: 0x2338A, offset: 0x34F75, size: 0x8, addend: 0x0, symName: __ZN5boost5beast4http5writeINS_4asio3ssl6streamINS3_19basic_stream_socketINS3_2ip3tcpENS3_15any_io_executorEEEEELb1ENS1_10empty_bodyENS1_12basic_fieldsINSt3__19allocatorIcEEEEEEmRT_RNS1_10serializerIXT0_ET1_T2_EERNS_6system10error_codeE, symObjAddr: 0x3F404, symBinAddr: 0x100042F38, symSize: 0x9C }
  - { offsetInCU: 0x23414, offset: 0x34FFF, size: 0x8, addend: 0x0, symName: __ZN5boost5beast4http10write_someINS_4asio3ssl6streamINS3_19basic_stream_socketINS3_2ip3tcpENS3_15any_io_executorEEEEELb1ENS1_10empty_bodyENS1_12basic_fieldsINSt3__19allocatorIcEEEEEEmRT_RNS1_10serializerIXT0_ET1_T2_EERNS_6system10error_codeE, symObjAddr: 0x3F73C, symBinAddr: 0x100043270, symSize: 0x34 }
  - { offsetInCU: 0x2348D, offset: 0x35078, size: 0x8, addend: 0x0, symName: __ZN5boost5beast4http9to_stringENS1_4verbE, symObjAddr: 0x420F8, symBinAddr: 0x100045C2C, symSize: 0x474 }
  - { offsetInCU: 0x234C6, offset: 0x350B1, size: 0x8, addend: 0x0, symName: __ZN5boost5beast4http15string_to_fieldENS_4core17basic_string_viewIcEE, symObjAddr: 0x6B748, symBinAddr: 0x10006F27C, symSize: 0x3C }
  - { offsetInCU: 0x234F8, offset: 0x350E3, size: 0x8, addend: 0x0, symName: __ZN5boost5beast4http13validate_listINS1_6detail21opt_token_list_policyEEEbRKNS3_17basic_parsed_listIT_EE, symObjAddr: 0x6C7A4, symBinAddr: 0x1000702D8, symSize: 0xDC }
  - { offsetInCU: 0x23555, offset: 0x35140, size: 0x8, addend: 0x0, symName: __ZN5boost5beast4http13int_to_statusEj, symObjAddr: 0x72110, symBinAddr: 0x100075C44, symSize: 0x70 }
  - { offsetInCU: 0x256EE, offset: 0x372D9, size: 0x8, addend: 0x0, symName: __ZN5boost5beast15make_error_codeENS0_5errorE, symObjAddr: 0x6533C, symBinAddr: 0x100068E70, symSize: 0xB0 }
  - { offsetInCU: 0x2571B, offset: 0x37306, size: 0x8, addend: 0x0, symName: __ZZN5boost5beast15make_error_codeENS0_5errorEE3cat, symObjAddr: 0x8FEF8, symBinAddr: 0x1000A97D0, symSize: 0x0 }
  - { offsetInCU: 0x2574B, offset: 0x37336, size: 0x8, addend: 0x0, symName: __ZN5boost5beast20make_error_conditionENS0_9conditionE, symObjAddr: 0x65794, symBinAddr: 0x1000692C8, symSize: 0xB4 }
  - { offsetInCU: 0x25778, offset: 0x37363, size: 0x8, addend: 0x0, symName: __ZZN5boost5beast20make_error_conditionENS0_9conditionEE3cat, symObjAddr: 0x8FF38, symBinAddr: 0x1000A9810, symSize: 0x0 }
  - { offsetInCU: 0x2B276, offset: 0x3CE61, size: 0x8, addend: 0x0, symName: __ZN5boost5beast16get_lowest_layerINS0_9websocket6streamINS_4asio3ssl6streamINS4_19basic_stream_socketINS4_2ip3tcpENS4_15any_io_executorEEEEELb1EEEEERNS0_6detail22lowest_layer_type_implIT_Xsr14has_next_layerISG_EE5valueEE4typeERSG_, symObjAddr: 0xDAC, symBinAddr: 0x100006A38, symSize: 0x24 }
  - { offsetInCU: 0x2B6AC, offset: 0x3D297, size: 0x8, addend: 0x0, symName: __ZN5boost5beast14to_string_viewINS_14static_strings19basic_static_stringILm24EcNSt3__111char_traitsIcEEEEEENS_4core17basic_string_viewIcEERKT_, symObjAddr: 0x310C4, symBinAddr: 0x100034BF8, symSize: 0x48 }
  - { offsetInCU: 0x2B6E1, offset: 0x3D2CC, size: 0x8, addend: 0x0, symName: __ZN5boost5beast7iequalsENS_4core17basic_string_viewIcEES3_, symObjAddr: 0x3384C, symBinAddr: 0x100037380, symSize: 0x1B0 }
  - { offsetInCU: 0x2B782, offset: 0x3D36D, size: 0x8, addend: 0x0, symName: __ZN5boost5beast14to_string_viewINS_14static_strings19basic_static_stringILm512EcNSt3__111char_traitsIcEEEEEENS_4core17basic_string_viewIcEERKT_, symObjAddr: 0x3C2F0, symBinAddr: 0x10003FE24, symSize: 0x48 }
  - { offsetInCU: 0x2B7B7, offset: 0x3D3A2, size: 0x8, addend: 0x0, symName: __ZN5boost5beast16to_static_stringIiEEDTclsr5boost14static_stringsE16to_static_stringfp_EET_, symObjAddr: 0x3C398, symBinAddr: 0x10003FECC, symSize: 0x2C }
  - { offsetInCU: 0x2B7F0, offset: 0x3D3DB, size: 0x8, addend: 0x0, symName: __ZN5boost5beast17buffers_range_refINS_4asio12const_bufferEEENS0_6detail21buffers_range_adaptorIRKT_EES8_, symObjAddr: 0x67C08, symBinAddr: 0x10006B73C, symSize: 0x2C }
  - { offsetInCU: 0x2B829, offset: 0x3D414, size: 0x8, addend: 0x0, symName: __ZN5boost5beast9read_sizeINS0_13static_bufferILm1536EEEEEmRT_m, symObjAddr: 0x688FC, symBinAddr: 0x10006C430, symSize: 0x2C }
  - { offsetInCU: 0x2B872, offset: 0x3D45D, size: 0x8, addend: 0x0, symName: __ZN5boost5beast9read_sizeINS0_17basic_flat_bufferINSt3__19allocatorIcEEEEEEmRT_m, symObjAddr: 0x6FE28, symBinAddr: 0x10007395C, symSize: 0x2C }
  - { offsetInCU: 0x2B8BB, offset: 0x3D4A6, size: 0x8, addend: 0x0, symName: __ZN5boost5beast14to_string_viewINS_14static_strings19basic_static_stringILm28EcNSt3__111char_traitsIcEEEEEENS_4core17basic_string_viewIcEERKT_, symObjAddr: 0x71E9C, symBinAddr: 0x1000759D0, symSize: 0x48 }
  - { offsetInCU: 0x2B8F0, offset: 0x3D4DB, size: 0x8, addend: 0x0, symName: __ZN5boost5beast14buffers_prefixINS0_6detail12buffers_pairILb1EEEEENS0_19buffers_prefix_viewIT_EEmRKS6_, symObjAddr: 0x77F70, symBinAddr: 0x10007BAA4, symSize: 0x40 }
  - { offsetInCU: 0x2B939, offset: 0x3D524, size: 0x8, addend: 0x0, symName: __ZN5boost5beast8teardownINS_4asio19basic_stream_socketINS2_2ip3tcpENS2_15any_io_executorEEEEEvNS0_9role_typeERNS2_3ssl6streamIT_EERNS_6system10error_codeE, symObjAddr: 0x79FAC, symBinAddr: 0x10007DAE0, symSize: 0x88 }
  - { offsetInCU: 0x2B99E, offset: 0x3D589, size: 0x8, addend: 0x0, symName: __ZN5boost5beast17buffers_range_refINS0_19buffers_prefix_viewINS0_6detail12buffers_pairILb1EEEEEEENS3_21buffers_range_adaptorIRKT_EESA_, symObjAddr: 0x7A97C, symBinAddr: 0x10007E4B0, symSize: 0x2C }
  - { offsetInCU: 0x2C4F8, offset: 0x3E0E3, size: 0x8, addend: 0x0, symName: __ZN5boost6detail26sp_enable_shared_from_thisINS_5beast9websocket6streamINS_4asio3ssl6streamINS5_19basic_stream_socketINS5_2ip3tcpENS5_15any_io_executorEEEEELb1EE9impl_typeESF_NS3_6detail7service9impl_typeEEEvPKNS_10shared_ptrIT_EEPKT0_PKNS_23enable_shared_from_thisIT1_EE, symObjAddr: 0x1EA0C, symBinAddr: 0x100022540, symSize: 0x4C }
  - { offsetInCU: 0x2C558, offset: 0x3E143, size: 0x8, addend: 0x0, symName: __ZN5boost6detail20sp_deleter_constructINS_5beast9websocket6streamINS_4asio3ssl6streamINS5_19basic_stream_socketINS5_2ip3tcpENS5_15any_io_executorEEEEELb1EE9impl_typeESF_EEvPNS_10shared_ptrIT_EEPT0_, symObjAddr: 0x1EB40, symBinAddr: 0x100022674, symSize: 0x70 }
  - { offsetInCU: 0x2C6E1, offset: 0x3E2CC, size: 0x8, addend: 0x0, symName: __ZN5boost6detail17get_local_deleterINS0_13sp_ms_deleterINS_5beast9websocket6streamINS_4asio3ssl6streamINS6_19basic_stream_socketINS6_2ip3tcpENS6_15any_io_executorEEEEELb1EE9impl_typeEEEEEPT_SJ_, symObjAddr: 0x1F0C0, symBinAddr: 0x100022BF4, symSize: 0x14 }
  - { offsetInCU: 0x2C716, offset: 0x3E301, size: 0x8, addend: 0x0, symName: __ZN5boost6detail16atomic_decrementEPj, symObjAddr: 0x1F19C, symBinAddr: 0x100022CD0, symSize: 0x30 }
  - { offsetInCU: 0x2C743, offset: 0x3E32E, size: 0x8, addend: 0x0, symName: __ZN5boost6detail16atomic_incrementEPj, symObjAddr: 0x26B34, symBinAddr: 0x10002A668, symSize: 0x28 }
  - { offsetInCU: 0x2C76B, offset: 0x3E356, size: 0x8, addend: 0x0, symName: __ZN5boost6detail28atomic_conditional_incrementEPj, symObjAddr: 0x26D10, symBinAddr: 0x10002A844, symSize: 0xBC }
  - { offsetInCU: 0x2C7A5, offset: 0x3E390, size: 0x8, addend: 0x0, symName: __ZN5boost6detail11atomic_loadEPKj, symObjAddr: 0x2B250, symBinAddr: 0x10002ED84, symSize: 0x20 }
  - { offsetInCU: 0x2C7D2, offset: 0x3E3BD, size: 0x8, addend: 0x0, symName: __ZN5boost6detail21sp_assert_convertibleINS_5beast9websocket6detail7service9impl_typeES6_EEvv, symObjAddr: 0x2B380, symBinAddr: 0x10002EEB4, symSize: 0x4 }
  - { offsetInCU: 0x2F647, offset: 0x41232, size: 0x8, addend: 0x0, symName: __ZN5boost9intrusive6detailL6uncastIPKNS0_11rbtree_nodeIPvEEEENS1_12uncast_typesIT_E17non_const_pointerERKS9_, symObjAddr: 0x34054, symBinAddr: 0x100037B88, symSize: 0x28 }
  - { offsetInCU: 0x2F6AE, offset: 0x41299, size: 0x8, addend: 0x0, symName: __ZN5boost9intrusive6detail15destructor_implINS0_12generic_hookILNS0_10algo_typesE5ENS0_18rbtree_node_traitsIPvLb0EEENS0_7dft_tagELNS0_14link_mode_typeE0ELNS0_14base_hook_typeE3EEEEEvRT_NS1_13link_dispatchILS9_0EEE, symObjAddr: 0x36E00, symBinAddr: 0x10003A934, symSize: 0x10 }
  - { offsetInCU: 0x2F6E8, offset: 0x412D3, size: 0x8, addend: 0x0, symName: __ZN5boost9intrusive6detail15destructor_implINS0_12generic_hookILNS0_10algo_typesE0ENS0_16list_node_traitsIPvEENS0_7dft_tagELNS0_14link_mode_typeE0ELNS0_14base_hook_typeE1EEEEEvRT_NS1_13link_dispatchILS9_0EEE, symObjAddr: 0x36E44, symBinAddr: 0x10003A978, symSize: 0x10 }
  - { offsetInCU: 0x2F722, offset: 0x4130D, size: 0x8, addend: 0x0, symName: __ZN5boost9intrusive6detailL6uncastIPKNS0_9list_nodeIPvEEEENS1_12uncast_typesIT_E17non_const_pointerERKS9_, symObjAddr: 0x3DD2C, symBinAddr: 0x100041860, symSize: 0x28 }
  - { offsetInCU: 0x2F75B, offset: 0x41346, size: 0x8, addend: 0x0, symName: __ZN5boost9intrusive6detailL6uncastIPKNS_5beast4http12basic_fieldsINSt3__19allocatorIcEEE7elementEEENS1_12uncast_typesIT_E17non_const_pointerERKSE_, symObjAddr: 0x3DE68, symBinAddr: 0x10004199C, symSize: 0x28 }
  - { offsetInCU: 0x31527, offset: 0x43112, size: 0x8, addend: 0x0, symName: __ZN5boost9intrusiveeqERKNS0_13tree_iteratorINS0_8bhtraitsINS_5beast4http12basic_fieldsINSt3__19allocatorIcEEE7elementENS0_18rbtree_node_traitsIPvLb0EEELNS0_14link_mode_typeE0ENS0_7dft_tagELj3EEELb0EEESJ_, symObjAddr: 0x3379C, symBinAddr: 0x1000372D0, symSize: 0x48 }
  - { offsetInCU: 0x315E5, offset: 0x431D0, size: 0x8, addend: 0x0, symName: __ZN5boost9intrusiveeqERKNS0_13list_iteratorINS0_8bhtraitsINS_5beast4http12basic_fieldsINSt3__19allocatorIcEEE7elementENS0_16list_node_traitsIPvEELNS0_14link_mode_typeE0ENS0_7dft_tagELj1EEELb1EEESJ_, symObjAddr: 0x3D574, symBinAddr: 0x1000410A8, symSize: 0x48 }
  - { offsetInCU: 0x3161F, offset: 0x4320A, size: 0x8, addend: 0x0, symName: __ZN5boost9intrusiveeqERKNS0_13tree_iteratorINS0_8bhtraitsINS_5beast4http12basic_fieldsINSt3__19allocatorIcEEE7elementENS0_18rbtree_node_traitsIPvLb0EEELNS0_14link_mode_typeE0ENS0_7dft_tagELj3EEELb1EEESJ_, symObjAddr: 0x3D6E4, symBinAddr: 0x100041218, symSize: 0x48 }
  - { offsetInCU: 0x3171D, offset: 0x43308, size: 0x8, addend: 0x0, symName: __ZN5boost9intrusiveneERKNS0_13list_iteratorINS0_8bhtraitsINS_5beast4http12basic_fieldsINSt3__19allocatorIcEEE7elementENS0_16list_node_traitsIPvEELNS0_14link_mode_typeE0ENS0_7dft_tagELj1EEELb0EEESJ_, symObjAddr: 0x65060, symBinAddr: 0x100068B94, symSize: 0x34 }
  - { offsetInCU: 0x31757, offset: 0x43342, size: 0x8, addend: 0x0, symName: __ZN5boost9intrusiveeqERKNS0_13list_iteratorINS0_8bhtraitsINS_5beast4http12basic_fieldsINSt3__19allocatorIcEEE7elementENS0_16list_node_traitsIPvEELNS0_14link_mode_typeE0ENS0_7dft_tagELj1EEELb0EEESJ_, symObjAddr: 0x65164, symBinAddr: 0x100068C98, symSize: 0x48 }
  - { offsetInCU: 0x31791, offset: 0x4337C, size: 0x8, addend: 0x0, symName: __ZN5boost9intrusiveneERKNS0_13tree_iteratorINS0_8bhtraitsINS_5beast4http12basic_fieldsINSt3__19allocatorIcEEE7elementENS0_18rbtree_node_traitsIPvLb0EEELNS0_14link_mode_typeE0ENS0_7dft_tagELj3EEELb1EEESJ_, symObjAddr: 0x66FDC, symBinAddr: 0x10006AB10, symSize: 0x34 }
  - { offsetInCU: 0x31A48, offset: 0x43633, size: 0x8, addend: 0x0, symName: __ZN5boost11move_detail9addressofINS_9intrusive11rbtree_nodeIPvEEEEPT_RS6_, symObjAddr: 0x31854, symBinAddr: 0x100035388, symSize: 0x14 }
  - { offsetInCU: 0x31A81, offset: 0x4366C, size: 0x8, addend: 0x0, symName: __ZN5boost11move_detail9addressofINS_9intrusive9list_nodeIPvEEEEPT_RS6_, symObjAddr: 0x31ACC, symBinAddr: 0x100035600, symSize: 0x14 }
  - { offsetInCU: 0x31B31, offset: 0x4371C, size: 0x8, addend: 0x0, symName: __ZN5boost11move_detail9addressofIKNS_9intrusive8bhtraitsINS_5beast4http12basic_fieldsINSt3__19allocatorIcEEE7elementENS2_18rbtree_node_traitsIPvLb0EEELNS2_14link_mode_typeE0ENS2_7dft_tagELj3EEEEEPT_RSJ_, symObjAddr: 0x347E4, symBinAddr: 0x100038318, symSize: 0x14 }
  - { offsetInCU: 0x31B88, offset: 0x43773, size: 0x8, addend: 0x0, symName: __ZN5boost11move_detail9addressofIKNS_9intrusive8bhtraitsINS_5beast4http12basic_fieldsINSt3__19allocatorIcEEE7elementENS2_16list_node_traitsIPvEELNS2_14link_mode_typeE0ENS2_7dft_tagELj1EEEEEPT_RSJ_, symObjAddr: 0x36BB4, symBinAddr: 0x10003A6E8, symSize: 0x14 }
  - { offsetInCU: 0x31BDF, offset: 0x437CA, size: 0x8, addend: 0x0, symName: __ZN5boost11move_detail9addressofIKNS_9intrusive11rbtree_nodeIPvEEEEPT_RS7_, symObjAddr: 0x3DBFC, symBinAddr: 0x100041730, symSize: 0x14 }
  - { offsetInCU: 0x31C36, offset: 0x43821, size: 0x8, addend: 0x0, symName: __ZN5boost11move_detail9addressofIKNS_9intrusive9list_nodeIPvEEEEPT_RS7_, symObjAddr: 0x3DE10, symBinAddr: 0x100041944, symSize: 0x14 }
  - { offsetInCU: 0x31C6F, offset: 0x4385A, size: 0x8, addend: 0x0, symName: __ZN5boost11move_detail9addressofIKNS_5beast4http12basic_fieldsINSt3__19allocatorIcEEE7elementEEEPT_RSB_, symObjAddr: 0x3DEC8, symBinAddr: 0x1000419FC, symSize: 0x14 }
  - { offsetInCU: 0x32560, offset: 0x4414B, size: 0x8, addend: 0x0, symName: __ZN5boost4core7launderINS_5beast4http12basic_fieldsINSt3__19allocatorIcEEE6writerEEEPT_SB_, symObjAddr: 0x41BF0, symBinAddr: 0x100045724, symSize: 0x14 }
  - { offsetInCU: 0x32599, offset: 0x44184, size: 0x8, addend: 0x0, symName: __ZN5boost4core7launderINS_5beast16buffers_cat_viewIJNS_4asio12const_bufferES5_S5_NS2_4http12basic_fieldsINSt3__19allocatorIcEEE6writer11field_rangeENS6_10chunk_crlfEEEEEEPT_SH_, symObjAddr: 0x41D98, symBinAddr: 0x1000458CC, symSize: 0x14 }
  - { offsetInCU: 0x325D2, offset: 0x441BD, size: 0x8, addend: 0x0, symName: __ZN5boost4core7launderIKNS_5beast16buffers_cat_viewIJNS_4asio12const_bufferES5_S5_NS2_4http12basic_fieldsINSt3__19allocatorIcEEE6writer11field_rangeENS6_10chunk_crlfEEEEEEPT_SI_, symObjAddr: 0x488E8, symBinAddr: 0x10004C41C, symSize: 0x14 }
  - { offsetInCU: 0x3260B, offset: 0x441F6, size: 0x8, addend: 0x0, symName: __ZN5boost4core7launderINSt3__14pairINS_4asio12const_bufferEbEEEEPT_S8_, symObjAddr: 0x48A54, symBinAddr: 0x10004C588, symSize: 0x14 }
  - { offsetInCU: 0x32644, offset: 0x4422F, size: 0x8, addend: 0x0, symName: __ZN5boost4core7launderINS_5beast6detail12buffers_pairILb1EEEEEPT_S7_, symObjAddr: 0x6EBD0, symBinAddr: 0x100072704, symSize: 0x14 }
  - { offsetInCU: 0x3267D, offset: 0x44268, size: 0x8, addend: 0x0, symName: __ZN5boost4core7launderIKNS_5beast6detail12buffers_pairILb1EEEEEPT_S8_, symObjAddr: 0x6F2DC, symBinAddr: 0x100072E10, symSize: 0x14 }
  - { offsetInCU: 0x326B6, offset: 0x442A1, size: 0x8, addend: 0x0, symName: __ZN5boost4core7launderINS_4asio14mutable_bufferEEEPT_S5_, symObjAddr: 0x70530, symBinAddr: 0x100074064, symSize: 0x14 }
  - { offsetInCU: 0x326EF, offset: 0x442DA, size: 0x8, addend: 0x0, symName: __ZN5boost4core7launderIKNS_4asio14mutable_bufferEEEPT_S6_, symObjAddr: 0x709AC, symBinAddr: 0x1000744E0, symSize: 0x14 }
  - { offsetInCU: 0x33C92, offset: 0x4587D, size: 0x8, addend: 0x0, symName: __ZN5boost15optional_detail7forwardIRKNS_5beast4http7messageILb1ENS3_10empty_bodyENS3_12basic_fieldsINSt3__19allocatorIcEEEEEEEEOT_RNS_16remove_referenceISE_E4typeE, symObjAddr: 0x41A68, symBinAddr: 0x10004559C, symSize: 0x14 }
  - { offsetInCU: 0x33CCB, offset: 0x458B6, size: 0x8, addend: 0x0, symName: __ZN5boost15optional_detail7forwardIjEEOT_RNS_16remove_referenceIS2_E4typeE, symObjAddr: 0x41A7C, symBinAddr: 0x1000455B0, symSize: 0x14 }
  - { offsetInCU: 0x33D04, offset: 0x458EF, size: 0x8, addend: 0x0, symName: __ZN5boost15optional_detail7forwardINS_5beast4http4verbEEEOT_RNS_16remove_referenceIS5_E4typeE, symObjAddr: 0x41A90, symBinAddr: 0x1000455C4, symSize: 0x14 }
  - { offsetInCU: 0x33D3D, offset: 0x45928, size: 0x8, addend: 0x0, symName: __ZN5boost15optional_detail7forwardINS_4asio12const_bufferEEEOT_RNS_16remove_referenceIS4_E4typeE, symObjAddr: 0x427FC, symBinAddr: 0x100046330, symSize: 0x14 }
  - { offsetInCU: 0x33D76, offset: 0x45961, size: 0x8, addend: 0x0, symName: __ZN5boost15optional_detail7forwardINS_5beast4http12basic_fieldsINSt3__19allocatorIcEEE6writer11field_rangeEEEOT_RNS_16remove_referenceISB_E4typeE, symObjAddr: 0x42810, symBinAddr: 0x100046344, symSize: 0x14 }
  - { offsetInCU: 0x33DAF, offset: 0x4599A, size: 0x8, addend: 0x0, symName: __ZN5boost15optional_detail7forwardINS_5beast4http10chunk_crlfEEEOT_RNS_16remove_referenceIS5_E4typeE, symObjAddr: 0x42824, symBinAddr: 0x100046358, symSize: 0x14 }
  - { offsetInCU: 0x33DE8, offset: 0x459D3, size: 0x8, addend: 0x0, symName: __ZN5boost15optional_detail7forwardIyEEOT_RNS_16remove_referenceIS2_E4typeE, symObjAddr: 0x660AC, symBinAddr: 0x100069BE0, symSize: 0x14 }
  - { offsetInCU: 0x34295, offset: 0x45E80, size: 0x8, addend: 0x0, symName: __ZN5boost15optional_detail7forwardIRyEEOT_RNS_16remove_referenceIS3_E4typeE, symObjAddr: 0x6D384, symBinAddr: 0x100070EB8, symSize: 0x14 }
  - { offsetInCU: 0x342CE, offset: 0x45EB9, size: 0x8, addend: 0x0, symName: __ZN5boost15optional_detail7forwardINS_5beast6detail12buffers_pairILb1EEEEEOT_RNS_16remove_referenceIS6_E4typeE, symObjAddr: 0x6EAC4, symBinAddr: 0x1000725F8, symSize: 0x14 }
  - { offsetInCU: 0x3477B, offset: 0x46366, size: 0x8, addend: 0x0, symName: __ZN5boost15optional_detail7forwardINS_4asio14mutable_bufferEEEOT_RNS_16remove_referenceIS4_E4typeE, symObjAddr: 0x7042C, symBinAddr: 0x100073F60, symSize: 0x14 }
  - { offsetInCU: 0x3643D, offset: 0x48028, size: 0x8, addend: 0x0, symName: __ZN5boost14static_strings6detail15throw_exceptionISt12length_errorEEvPKc, symObjAddr: 0x3B760, symBinAddr: 0x10003F294, symSize: 0x70 }
  - { offsetInCU: 0x36473, offset: 0x4805E, size: 0x8, addend: 0x0, symName: __ZN5boost14static_strings6detail25to_static_string_int_implILm11EiEENS0_19basic_static_stringIXT_EcNSt3__111char_traitsIcEEEET0_, symObjAddr: 0x3C814, symBinAddr: 0x100040348, symSize: 0xB4 }
  - { offsetInCU: 0x364EB, offset: 0x480D6, size: 0x8, addend: 0x0, symName: __ZN5boost14static_strings6detail17integer_to_stringINSt3__111char_traitsIcEEiEEPcS6_T0_NS3_17integral_constantIbLb1EEE, symObjAddr: 0x3C8E0, symBinAddr: 0x100040414, symSize: 0x204 }
  - { offsetInCU: 0x3A4F8, offset: 0x4C0E3, size: 0x8, addend: 0x0, symName: __ZN5boost14static_strings16to_static_stringEi, symObjAddr: 0x3C7E8, symBinAddr: 0x10004031C, symSize: 0x2C }
  - { offsetInCU: 0x3BD99, offset: 0x4D984, size: 0x8, addend: 0x0, symName: __ZN5boost4noneE, symObjAddr: 0x87973, symBinAddr: 0x1000935D3, symSize: 0x0 }
  - { offsetInCU: 0x3BDB8, offset: 0x4D9A3, size: 0x8, addend: 0x0, symName: __ZN5boost11optional_ns13in_place_initE, symObjAddr: 0x87971, symBinAddr: 0x1000935D1, symSize: 0x0 }
  - { offsetInCU: 0x3C7E6, offset: 0x4E3D1, size: 0x8, addend: 0x0, symName: __ZN5boost4mp1113mp_with_indexILm9ENS_5beast6detail7variantIJNS2_14buffers_suffixINS3_11buffers_refINS2_16buffers_cat_viewIJNS_4asio12const_bufferES9_S9_NS2_4http12basic_fieldsINSt3__19allocatorIcEEE6writer11field_rangeENSA_10chunk_crlfEEEEEEEENS5_INS7_IJSK_S9_EEEEENS5_IS9_EENS5_INS7_IJSK_NSA_6detail10chunk_sizeES9_SI_S9_SI_EEEEENS5_INS7_IJSQ_S9_SI_S9_SI_EEEEENS5_INS7_IJSQ_S9_SI_S9_SI_S9_S9_SI_EEEEENS5_INS7_IJSK_SQ_S9_SI_S9_SI_S9_S9_SI_EEEEENS5_INS7_IJS9_S9_SI_EEEEEEE7destroyEEEDTclclsr3stdE7declvalIT0_EEclL_ZNSC_7declvalINSC_17integral_constantImLm0EEEEEDTclsr3stdE9__declvalIT_ELi0EEEvEEEEmOS13_, symObjAddr: 0x436EC, symBinAddr: 0x100047220, symSize: 0x64 }
  - { offsetInCU: 0x3D908, offset: 0x4F4F3, size: 0x8, addend: 0x0, symName: __ZN5boost4mp1113mp_with_indexILm7ENS_5beast6detail7variantIJPKNS_4asio12const_bufferES8_S8_NS2_4http12basic_fieldsINSt3__19allocatorIcEEE6writer14field_iteratorES8_NS3_30buffers_cat_view_iterator_base8past_endEEE7destroyEEEDTclclsr3stdE7declvalIT0_EEclL_ZNSB_7declvalINSB_17integral_constantImLm0EEEEEDTclsr3stdE9__declvalIT_ELi0EEEvEEEEmOSL_, symObjAddr: 0x43BC0, symBinAddr: 0x1000476F4, symSize: 0x64 }
  - { offsetInCU: 0x3D95A, offset: 0x4F545, size: 0x8, addend: 0x0, symName: __ZN5boost4mp1113mp_with_indexILm4ENS_5beast6detail7variantIJNS2_16buffers_cat_viewIJNS_4asio12const_bufferES7_S7_NS2_4http12basic_fieldsINSt3__19allocatorIcEEE6writer11field_rangeENS8_10chunk_crlfEEE14const_iteratorEPKS7_NS3_30buffers_cat_view_iterator_base8past_endEEE7destroyEEEDTclclsr3stdE7declvalIT0_EEclL_ZNSA_7declvalINSA_17integral_constantImLm0EEEEEDTclsr3stdE9__declvalIT_ELi0EEEvEEEEmOSP_, symObjAddr: 0x440BC, symBinAddr: 0x100047BF0, symSize: 0x64 }
  - { offsetInCU: 0x3D9AC, offset: 0x4F597, size: 0x8, addend: 0x0, symName: __ZN5boost4mp1113mp_with_indexILm8ENS_5beast6detail7variantIJNS2_16buffers_cat_viewIJNS_4asio12const_bufferES7_S7_NS2_4http12basic_fieldsINSt3__19allocatorIcEEE6writer11field_rangeENS8_10chunk_crlfEEE14const_iteratorEPKS7_SK_SK_SK_SK_NS3_30buffers_cat_view_iterator_base8past_endEEE7destroyEEEDTclclsr3stdE7declvalIT0_EEclL_ZNSA_7declvalINSA_17integral_constantImLm0EEEEEDTclsr3stdE9__declvalIT_ELi0EEEvEEEEmOSP_, symObjAddr: 0x4453C, symBinAddr: 0x100048070, symSize: 0x64 }
  - { offsetInCU: 0x3D9FE, offset: 0x4F5E9, size: 0x8, addend: 0x0, symName: __ZN5boost4mp1113mp_with_indexILm7ENS_5beast6detail7variantIJPKNS_4asio12const_bufferES8_S8_S8_S8_NS3_30buffers_cat_view_iterator_base8past_endEEE7destroyEEEDTclclsr3stdE7declvalIT0_EEclL_ZNSt3__17declvalINSE_17integral_constantImLm0EEEEEDTclsr3stdE9__declvalIT_ELi0EEEvEEEEmOSD_, symObjAddr: 0x44B34, symBinAddr: 0x100048668, symSize: 0x64 }
  - { offsetInCU: 0x3DA50, offset: 0x4F63B, size: 0x8, addend: 0x0, symName: __ZN5boost4mp1113mp_with_indexILm10ENS_5beast6detail7variantIJPKNS_4asio12const_bufferES8_S8_S8_S8_S8_S8_S8_NS3_30buffers_cat_view_iterator_base8past_endEEE7destroyEEEDTclclsr3stdE7declvalIT0_EEclL_ZNSt3__17declvalINSE_17integral_constantImLm0EEEEEDTclsr3stdE9__declvalIT_ELi0EEEvEEEEmOSD_, symObjAddr: 0x45014, symBinAddr: 0x100048B48, symSize: 0x64 }
  - { offsetInCU: 0x3DAA2, offset: 0x4F68D, size: 0x8, addend: 0x0, symName: __ZN5boost4mp1113mp_with_indexILm11ENS_5beast6detail7variantIJNS2_16buffers_cat_viewIJNS_4asio12const_bufferES7_S7_NS2_4http12basic_fieldsINSt3__19allocatorIcEEE6writer11field_rangeENS8_10chunk_crlfEEE14const_iteratorEPKS7_SK_SK_SK_SK_SK_SK_SK_NS3_30buffers_cat_view_iterator_base8past_endEEE7destroyEEEDTclclsr3stdE7declvalIT0_EEclL_ZNSA_7declvalINSA_17integral_constantImLm0EEEEEDTclsr3stdE9__declvalIT_ELi0EEEvEEEEmOSP_, symObjAddr: 0x45570, symBinAddr: 0x1000490A4, symSize: 0x64 }
  - { offsetInCU: 0x3DAF4, offset: 0x4F6DF, size: 0x8, addend: 0x0, symName: __ZN5boost4mp1113mp_with_indexILm5ENS_5beast6detail7variantIJPKNS_4asio12const_bufferES8_S8_NS3_30buffers_cat_view_iterator_base8past_endEEE7destroyEEEDTclclsr3stdE7declvalIT0_EEclL_ZNSt3__17declvalINSE_17integral_constantImLm0EEEEEDTclsr3stdE9__declvalIT_ELi0EEEvEEEEmOSD_, symObjAddr: 0x45AD8, symBinAddr: 0x10004960C, symSize: 0x64 }
  - { offsetInCU: 0x3DB60, offset: 0x4F74B, size: 0x8, addend: 0x0, symName: __ZN5boost4mp1113mp_with_indexILm7ENS_5beast6detail7variantIJPKNS_4asio12const_bufferES8_S8_NS2_4http12basic_fieldsINSt3__19allocatorIcEEE6writer14field_iteratorES8_NS3_30buffers_cat_view_iterator_base8past_endEEE4copyEEEDTclclsr3stdE7declvalIT0_EEclL_ZNSB_7declvalINSB_17integral_constantImLm0EEEEEDTclsr3stdE9__declvalIT_ELi0EEEvEEEEmOSL_, symObjAddr: 0x46378, symBinAddr: 0x100049EAC, symSize: 0x64 }
  - { offsetInCU: 0x3DC20, offset: 0x4F80B, size: 0x8, addend: 0x0, symName: __ZN5boost4mp1113mp_with_indexILm7ENS_5beast6detail7variantIJPKNS_4asio12const_bufferES8_S8_NS2_4http12basic_fieldsINSt3__19allocatorIcEEE6writer14field_iteratorES8_NS3_30buffers_cat_view_iterator_base8past_endEEE6equalsEEEDTclclsr3stdE7declvalIT0_EEclL_ZNSB_7declvalINSB_17integral_constantImLm0EEEEEDTclsr3stdE9__declvalIT_ELi0EEEvEEEEmOSL_, symObjAddr: 0x479FC, symBinAddr: 0x10004B530, symSize: 0x68 }
  - { offsetInCU: 0x3DC76, offset: 0x4F861, size: 0x8, addend: 0x0, symName: __ZN5boost4mp1113mp_with_indexILm7ENS_5beast16buffers_cat_viewIJNS_4asio12const_bufferES5_S5_NS2_4http12basic_fieldsINSt3__19allocatorIcEEE6writer11field_rangeENS6_10chunk_crlfEEE14const_iterator11dereferenceEEEDTclclsr3stdE7declvalIT0_EEclL_ZNS8_7declvalINS8_17integral_constantImLm0EEEEEDTclsr3stdE9__declvalIT_ELi0EEEvEEEEmOSI_, symObjAddr: 0x47EE0, symBinAddr: 0x10004BA14, symSize: 0x74 }
  - { offsetInCU: 0x3DCCC, offset: 0x4F8B7, size: 0x8, addend: 0x0, symName: __ZN5boost4mp1113mp_with_indexILm7ENS_5beast16buffers_cat_viewIJNS_4asio12const_bufferES5_S5_NS2_4http12basic_fieldsINSt3__19allocatorIcEEE6writer11field_rangeENS6_10chunk_crlfEEE14const_iterator9incrementEEEDTclclsr3stdE7declvalIT0_EEclL_ZNS8_7declvalINS8_17integral_constantImLm0EEEEEDTclsr3stdE9__declvalIT_ELi0EEEvEEEEmOSI_, symObjAddr: 0x483F8, symBinAddr: 0x10004BF2C, symSize: 0x64 }
  - { offsetInCU: 0x3DD48, offset: 0x4F933, size: 0x8, addend: 0x0, symName: __ZN5boost4mp1113mp_with_indexILm9ENS_5beast6detail7variantIJNS2_19buffers_prefix_viewIRKNS2_14buffers_suffixINS3_11buffers_refINS2_16buffers_cat_viewIJNS_4asio12const_bufferESA_SA_NS2_4http12basic_fieldsINSt3__19allocatorIcEEE6writer11field_rangeENSB_10chunk_crlfEEEEEEEEEENS5_IRKNS6_INS8_IJSL_SA_EEEEEEENS5_IRKNS6_ISA_EEEENS5_IRKNS6_INS8_IJSL_NSB_6detail10chunk_sizeESA_SJ_SA_SJ_EEEEEEENS5_IRKNS6_INS8_IJS10_SA_SJ_SA_SJ_EEEEEEENS5_IRKNS6_INS8_IJS10_SA_SJ_SA_SJ_SA_SA_SJ_EEEEEEENS5_IRKNS6_INS8_IJSL_S10_SA_SJ_SA_SJ_SA_SA_SJ_EEEEEEENS5_IRKNS6_INS8_IJSA_SA_SJ_EEEEEEEEE7destroyEEEDTclclsr3stdE7declvalIT0_EEclL_ZNSD_7declvalINSD_17integral_constantImLm0EEEEEDTclsr3stdE9__declvalIT_ELi0EEEvEEEEmOS1S_, symObjAddr: 0x48C80, symBinAddr: 0x10004C7B4, symSize: 0x64 }
  - { offsetInCU: 0x3DD9A, offset: 0x4F985, size: 0x8, addend: 0x0, symName: __ZN5boost4mp1113mp_with_indexILm4ENS_5beast6detail7variantIJNS2_16buffers_cat_viewIJNS_4asio12const_bufferES7_S7_NS2_4http12basic_fieldsINSt3__19allocatorIcEEE6writer11field_rangeENS8_10chunk_crlfEEE14const_iteratorEPKS7_NS3_30buffers_cat_view_iterator_base8past_endEEE4copyEEEDTclclsr3stdE7declvalIT0_EEclL_ZNSA_7declvalINSA_17integral_constantImLm0EEEEEDTclsr3stdE9__declvalIT_ELi0EEEvEEEEmOSP_, symObjAddr: 0x49F90, symBinAddr: 0x10004DAC4, symSize: 0x64 }
  - { offsetInCU: 0x3DDEC, offset: 0x4F9D7, size: 0x8, addend: 0x0, symName: __ZN5boost4mp1113mp_with_indexILm4ENS_5beast6detail7variantIJNS2_16buffers_cat_viewIJNS_4asio12const_bufferES7_S7_NS2_4http12basic_fieldsINSt3__19allocatorIcEEE6writer11field_rangeENS8_10chunk_crlfEEE14const_iteratorEPKS7_NS3_30buffers_cat_view_iterator_base8past_endEEE6equalsEEEDTclclsr3stdE7declvalIT0_EEclL_ZNSA_7declvalINSA_17integral_constantImLm0EEEEEDTclsr3stdE9__declvalIT_ELi0EEEvEEEEmOSP_, symObjAddr: 0x4A574, symBinAddr: 0x10004E0A8, symSize: 0x68 }
  - { offsetInCU: 0x3DE42, offset: 0x4FA2D, size: 0x8, addend: 0x0, symName: __ZN5boost4mp1113mp_with_indexILm4ENS_5beast16buffers_cat_viewIJNS2_6detail11buffers_refINS3_IJNS_4asio12const_bufferES7_S7_NS2_4http12basic_fieldsINSt3__19allocatorIcEEE6writer11field_rangeENS8_10chunk_crlfEEEEEES7_EE14const_iterator9incrementEEEDTclclsr3stdE7declvalIT0_EEclL_ZNSA_7declvalINSA_17integral_constantImLm0EEEEEDTclsr3stdE9__declvalIT_ELi0EEEvEEEEmOSM_, symObjAddr: 0x4A898, symBinAddr: 0x10004E3CC, symSize: 0x64 }
  - { offsetInCU: 0x3DE94, offset: 0x4FA7F, size: 0x8, addend: 0x0, symName: __ZN5boost4mp1113mp_with_indexILm4ENS_5beast16buffers_cat_viewIJNS2_6detail11buffers_refINS3_IJNS_4asio12const_bufferES7_S7_NS2_4http12basic_fieldsINSt3__19allocatorIcEEE6writer11field_rangeENS8_10chunk_crlfEEEEEES7_EE14const_iterator11dereferenceEEEDTclclsr3stdE7declvalIT0_EEclL_ZNSA_7declvalINSA_17integral_constantImLm0EEEEEDTclsr3stdE9__declvalIT_ELi0EEEvEEEEmOSM_, symObjAddr: 0x4AADC, symBinAddr: 0x10004E610, symSize: 0x74 }
  - { offsetInCU: 0x3E044, offset: 0x4FC2F, size: 0x8, addend: 0x0, symName: __ZN5boost4mp1113mp_with_indexILm8ENS_5beast6detail7variantIJNS2_16buffers_cat_viewIJNS_4asio12const_bufferES7_S7_NS2_4http12basic_fieldsINSt3__19allocatorIcEEE6writer11field_rangeENS8_10chunk_crlfEEE14const_iteratorEPKS7_SK_SK_SK_SK_NS3_30buffers_cat_view_iterator_base8past_endEEE4copyEEEDTclclsr3stdE7declvalIT0_EEclL_ZNSA_7declvalINSA_17integral_constantImLm0EEEEEDTclsr3stdE9__declvalIT_ELi0EEEvEEEEmOSP_, symObjAddr: 0x529A8, symBinAddr: 0x1000564DC, symSize: 0x64 }
  - { offsetInCU: 0x3E096, offset: 0x4FC81, size: 0x8, addend: 0x0, symName: __ZN5boost4mp1113mp_with_indexILm8ENS_5beast6detail7variantIJNS2_16buffers_cat_viewIJNS_4asio12const_bufferES7_S7_NS2_4http12basic_fieldsINSt3__19allocatorIcEEE6writer11field_rangeENS8_10chunk_crlfEEE14const_iteratorEPKS7_SK_SK_SK_SK_NS3_30buffers_cat_view_iterator_base8past_endEEE6equalsEEEDTclclsr3stdE7declvalIT0_EEclL_ZNSA_7declvalINSA_17integral_constantImLm0EEEEEDTclsr3stdE9__declvalIT_ELi0EEEvEEEEmOSP_, symObjAddr: 0x53068, symBinAddr: 0x100056B9C, symSize: 0x68 }
  - { offsetInCU: 0x3E0EC, offset: 0x4FCD7, size: 0x8, addend: 0x0, symName: __ZN5boost4mp1113mp_with_indexILm8ENS_5beast16buffers_cat_viewIJNS2_6detail11buffers_refINS3_IJNS_4asio12const_bufferES7_S7_NS2_4http12basic_fieldsINSt3__19allocatorIcEEE6writer11field_rangeENS8_10chunk_crlfEEEEEENS8_6detail10chunk_sizeES7_SG_S7_SG_EE14const_iterator9incrementEEEDTclclsr3stdE7declvalIT0_EEclL_ZNSA_7declvalINSA_17integral_constantImLm0EEEEEDTclsr3stdE9__declvalIT_ELi0EEEvEEEEmOSO_, symObjAddr: 0x5354C, symBinAddr: 0x100057080, symSize: 0x64 }
  - { offsetInCU: 0x3E13E, offset: 0x4FD29, size: 0x8, addend: 0x0, symName: __ZN5boost4mp1113mp_with_indexILm8ENS_5beast16buffers_cat_viewIJNS2_6detail11buffers_refINS3_IJNS_4asio12const_bufferES7_S7_NS2_4http12basic_fieldsINSt3__19allocatorIcEEE6writer11field_rangeENS8_10chunk_crlfEEEEEENS8_6detail10chunk_sizeES7_SG_S7_SG_EE14const_iterator11dereferenceEEEDTclclsr3stdE7declvalIT0_EEclL_ZNSA_7declvalINSA_17integral_constantImLm0EEEEEDTclsr3stdE9__declvalIT_ELi0EEEvEEEEmOSO_, symObjAddr: 0x538F0, symBinAddr: 0x100057424, symSize: 0x74 }
  - { offsetInCU: 0x3E280, offset: 0x4FE6B, size: 0x8, addend: 0x0, symName: __ZN5boost4mp1113mp_with_indexILm7ENS_5beast6detail7variantIJPKNS_4asio12const_bufferES8_S8_S8_S8_NS3_30buffers_cat_view_iterator_base8past_endEEE4copyEEEDTclclsr3stdE7declvalIT0_EEclL_ZNSt3__17declvalINSE_17integral_constantImLm0EEEEEDTclsr3stdE9__declvalIT_ELi0EEEvEEEEmOSD_, symObjAddr: 0x57874, symBinAddr: 0x10005B3A8, symSize: 0x64 }
  - { offsetInCU: 0x3E2D2, offset: 0x4FEBD, size: 0x8, addend: 0x0, symName: __ZN5boost4mp1113mp_with_indexILm7ENS_5beast6detail7variantIJPKNS_4asio12const_bufferES8_S8_S8_S8_NS3_30buffers_cat_view_iterator_base8past_endEEE6equalsEEEDTclclsr3stdE7declvalIT0_EEclL_ZNSt3__17declvalINSE_17integral_constantImLm0EEEEEDTclsr3stdE9__declvalIT_ELi0EEEvEEEEmOSD_, symObjAddr: 0x57ED0, symBinAddr: 0x10005BA04, symSize: 0x68 }
  - { offsetInCU: 0x3E328, offset: 0x4FF13, size: 0x8, addend: 0x0, symName: __ZN5boost4mp1113mp_with_indexILm7ENS_5beast16buffers_cat_viewIJNS2_4http6detail10chunk_sizeENS_4asio12const_bufferENS4_10chunk_crlfES8_S9_EE14const_iterator9incrementEEEDTclclsr3stdE7declvalIT0_EEclL_ZNSt3__17declvalINSE_17integral_constantImLm0EEEEEDTclsr3stdE9__declvalIT_ELi0EEEvEEEEmOSD_, symObjAddr: 0x5834C, symBinAddr: 0x10005BE80, symSize: 0x64 }
  - { offsetInCU: 0x3E37A, offset: 0x4FF65, size: 0x8, addend: 0x0, symName: __ZN5boost4mp1113mp_with_indexILm7ENS_5beast16buffers_cat_viewIJNS2_4http6detail10chunk_sizeENS_4asio12const_bufferENS4_10chunk_crlfES8_S9_EE14const_iterator11dereferenceEEEDTclclsr3stdE7declvalIT0_EEclL_ZNSt3__17declvalINSE_17integral_constantImLm0EEEEEDTclsr3stdE9__declvalIT_ELi0EEEvEEEEmOSD_, symObjAddr: 0x586A4, symBinAddr: 0x10005C1D8, symSize: 0x74 }
  - { offsetInCU: 0x3E3EC, offset: 0x4FFD7, size: 0x8, addend: 0x0, symName: __ZN5boost4mp1113mp_with_indexILm10ENS_5beast6detail7variantIJPKNS_4asio12const_bufferES8_S8_S8_S8_S8_S8_S8_NS3_30buffers_cat_view_iterator_base8past_endEEE4copyEEEDTclclsr3stdE7declvalIT0_EEclL_ZNSt3__17declvalINSE_17integral_constantImLm0EEEEEDTclsr3stdE9__declvalIT_ELi0EEEvEEEEmOSD_, symObjAddr: 0x5A33C, symBinAddr: 0x10005DE70, symSize: 0x64 }
  - { offsetInCU: 0x3E43E, offset: 0x50029, size: 0x8, addend: 0x0, symName: __ZN5boost4mp1113mp_with_indexILm10ENS_5beast6detail7variantIJPKNS_4asio12const_bufferES8_S8_S8_S8_S8_S8_S8_NS3_30buffers_cat_view_iterator_base8past_endEEE6equalsEEEDTclclsr3stdE7declvalIT0_EEclL_ZNSt3__17declvalINSE_17integral_constantImLm0EEEEEDTclsr3stdE9__declvalIT_ELi0EEEvEEEEmOSD_, symObjAddr: 0x5AAB8, symBinAddr: 0x10005E5EC, symSize: 0x68 }
  - { offsetInCU: 0x3E494, offset: 0x5007F, size: 0x8, addend: 0x0, symName: __ZN5boost4mp1113mp_with_indexILm10ENS_5beast16buffers_cat_viewIJNS2_4http6detail10chunk_sizeENS_4asio12const_bufferENS4_10chunk_crlfES8_S9_S8_S8_S9_EE14const_iterator9incrementEEEDTclclsr3stdE7declvalIT0_EEclL_ZNSt3__17declvalINSE_17integral_constantImLm0EEEEEDTclsr3stdE9__declvalIT_ELi0EEEvEEEEmOSD_, symObjAddr: 0x5B084, symBinAddr: 0x10005EBB8, symSize: 0x64 }
  - { offsetInCU: 0x3E4E6, offset: 0x500D1, size: 0x8, addend: 0x0, symName: __ZN5boost4mp1113mp_with_indexILm10ENS_5beast16buffers_cat_viewIJNS2_4http6detail10chunk_sizeENS_4asio12const_bufferENS4_10chunk_crlfES8_S9_S8_S8_S9_EE14const_iterator11dereferenceEEEDTclclsr3stdE7declvalIT0_EEclL_ZNSt3__17declvalINSE_17integral_constantImLm0EEEEEDTclsr3stdE9__declvalIT_ELi0EEEvEEEEmOSD_, symObjAddr: 0x5B4E4, symBinAddr: 0x10005F018, symSize: 0x74 }
  - { offsetInCU: 0x3E558, offset: 0x50143, size: 0x8, addend: 0x0, symName: __ZN5boost4mp1113mp_with_indexILm11ENS_5beast6detail7variantIJNS2_16buffers_cat_viewIJNS_4asio12const_bufferES7_S7_NS2_4http12basic_fieldsINSt3__19allocatorIcEEE6writer11field_rangeENS8_10chunk_crlfEEE14const_iteratorEPKS7_SK_SK_SK_SK_SK_SK_SK_NS3_30buffers_cat_view_iterator_base8past_endEEE4copyEEEDTclclsr3stdE7declvalIT0_EEclL_ZNSA_7declvalINSA_17integral_constantImLm0EEEEEDTclsr3stdE9__declvalIT_ELi0EEEvEEEEmOSP_, symObjAddr: 0x5D3C4, symBinAddr: 0x100060EF8, symSize: 0x64 }
  - { offsetInCU: 0x3E5AA, offset: 0x50195, size: 0x8, addend: 0x0, symName: __ZN5boost4mp1113mp_with_indexILm11ENS_5beast6detail7variantIJNS2_16buffers_cat_viewIJNS_4asio12const_bufferES7_S7_NS2_4http12basic_fieldsINSt3__19allocatorIcEEE6writer11field_rangeENS8_10chunk_crlfEEE14const_iteratorEPKS7_SK_SK_SK_SK_SK_SK_SK_NS3_30buffers_cat_view_iterator_base8past_endEEE6equalsEEEDTclclsr3stdE7declvalIT0_EEclL_ZNSA_7declvalINSA_17integral_constantImLm0EEEEEDTclsr3stdE9__declvalIT_ELi0EEEvEEEEmOSP_, symObjAddr: 0x5DBA4, symBinAddr: 0x1000616D8, symSize: 0x68 }
  - { offsetInCU: 0x3E600, offset: 0x501EB, size: 0x8, addend: 0x0, symName: __ZN5boost4mp1113mp_with_indexILm11ENS_5beast16buffers_cat_viewIJNS2_6detail11buffers_refINS3_IJNS_4asio12const_bufferES7_S7_NS2_4http12basic_fieldsINSt3__19allocatorIcEEE6writer11field_rangeENS8_10chunk_crlfEEEEEENS8_6detail10chunk_sizeES7_SG_S7_SG_S7_S7_SG_EE14const_iterator9incrementEEEDTclclsr3stdE7declvalIT0_EEclL_ZNSA_7declvalINSA_17integral_constantImLm0EEEEEDTclsr3stdE9__declvalIT_ELi0EEEvEEEEmOSO_, symObjAddr: 0x5E1D8, symBinAddr: 0x100061D0C, symSize: 0x64 }
  - { offsetInCU: 0x3E652, offset: 0x5023D, size: 0x8, addend: 0x0, symName: __ZN5boost4mp1113mp_with_indexILm11ENS_5beast16buffers_cat_viewIJNS2_6detail11buffers_refINS3_IJNS_4asio12const_bufferES7_S7_NS2_4http12basic_fieldsINSt3__19allocatorIcEEE6writer11field_rangeENS8_10chunk_crlfEEEEEENS8_6detail10chunk_sizeES7_SG_S7_SG_S7_S7_SG_EE14const_iterator11dereferenceEEEDTclclsr3stdE7declvalIT0_EEclL_ZNSA_7declvalINSA_17integral_constantImLm0EEEEEDTclsr3stdE9__declvalIT_ELi0EEEvEEEEmOSO_, symObjAddr: 0x5E684, symBinAddr: 0x1000621B8, symSize: 0x74 }
  - { offsetInCU: 0x3E708, offset: 0x502F3, size: 0x8, addend: 0x0, symName: __ZN5boost4mp1113mp_with_indexILm5ENS_5beast6detail7variantIJPKNS_4asio12const_bufferES8_S8_NS3_30buffers_cat_view_iterator_base8past_endEEE4copyEEEDTclclsr3stdE7declvalIT0_EEclL_ZNSt3__17declvalINSE_17integral_constantImLm0EEEEEDTclsr3stdE9__declvalIT_ELi0EEEvEEEEmOSD_, symObjAddr: 0x60F04, symBinAddr: 0x100064A38, symSize: 0x64 }
  - { offsetInCU: 0x3E75A, offset: 0x50345, size: 0x8, addend: 0x0, symName: __ZN5boost4mp1113mp_with_indexILm5ENS_5beast6detail7variantIJPKNS_4asio12const_bufferES8_S8_NS3_30buffers_cat_view_iterator_base8past_endEEE6equalsEEEDTclclsr3stdE7declvalIT0_EEclL_ZNSt3__17declvalINSE_17integral_constantImLm0EEEEEDTclsr3stdE9__declvalIT_ELi0EEEvEEEEmOSD_, symObjAddr: 0x614A0, symBinAddr: 0x100064FD4, symSize: 0x68 }
  - { offsetInCU: 0x3E7B0, offset: 0x5039B, size: 0x8, addend: 0x0, symName: __ZN5boost4mp1113mp_with_indexILm5ENS_5beast16buffers_cat_viewIJNS_4asio12const_bufferES5_NS2_4http10chunk_crlfEEE14const_iterator9incrementEEEDTclclsr3stdE7declvalIT0_EEclL_ZNSt3__17declvalINSC_17integral_constantImLm0EEEEEDTclsr3stdE9__declvalIT_ELi0EEEvEEEEmOSB_, symObjAddr: 0x6183C, symBinAddr: 0x100065370, symSize: 0x64 }
  - { offsetInCU: 0x3E802, offset: 0x503ED, size: 0x8, addend: 0x0, symName: __ZN5boost4mp1113mp_with_indexILm5ENS_5beast16buffers_cat_viewIJNS_4asio12const_bufferES5_NS2_4http10chunk_crlfEEE14const_iterator11dereferenceEEEDTclclsr3stdE7declvalIT0_EEclL_ZNSt3__17declvalINSC_17integral_constantImLm0EEEEEDTclsr3stdE9__declvalIT_ELi0EEEvEEEEmOSB_, symObjAddr: 0x61AE4, symBinAddr: 0x100065618, symSize: 0x74 }
  - { offsetInCU: 0x3EBDB, offset: 0x507C6, size: 0x8, addend: 0x0, symName: __ZN5boost6endian14endian_reverseIyEENSt3__19enable_ifIXntsr3std8is_classIT_EE5valueES4_E4typeES4_, symObjAddr: 0x78B24, symBinAddr: 0x10007C658, symSize: 0x24 }
  - { offsetInCU: 0x3EC6C, offset: 0x50857, size: 0x8, addend: 0x0, symName: __ZN5boost6endian6detail24conditional_reverse_implIyEET_S3_NSt3__117integral_constantIbLb0EEE, symObjAddr: 0x78B00, symBinAddr: 0x10007C634, symSize: 0x24 }
  - { offsetInCU: 0x3ECB1, offset: 0x5089C, size: 0x8, addend: 0x0, symName: __ZN5boost6endian6detail19endian_reverse_implEy, symObjAddr: 0x78B48, symBinAddr: 0x10007C67C, symSize: 0x18 }
  - { offsetInCU: 0x3ECE1, offset: 0x508CC, size: 0x8, addend: 0x0, symName: __ZN5boost6endian6detail24conditional_reverse_implIjEET_S3_NSt3__117integral_constantIbLb1EEE, symObjAddr: 0x78B84, symBinAddr: 0x10007C6B8, symSize: 0x14 }
  - { offsetInCU: 0x3ED26, offset: 0x50911, size: 0x8, addend: 0x0, symName: __ZN5boost6endian6detail24conditional_reverse_implItEET_S3_NSt3__117integral_constantIbLb0EEE, symObjAddr: 0x78BE0, symBinAddr: 0x10007C714, symSize: 0x28 }
  - { offsetInCU: 0x3ED6B, offset: 0x50956, size: 0x8, addend: 0x0, symName: __ZN5boost6endian6detail19endian_reverse_implEt, symObjAddr: 0x78C30, symBinAddr: 0x10007C764, symSize: 0x20 }
  - { offsetInCU: 0x3ED9C, offset: 0x50987, size: 0x8, addend: 0x0, symName: __ZN5boost6endian14endian_reverseItEENSt3__19enable_ifIXntsr3std8is_classIT_EE5valueES4_E4typeES4_, symObjAddr: 0x78C08, symBinAddr: 0x10007C73C, symSize: 0x28 }
  - { offsetInCU: 0x3EDE2, offset: 0x509CD, size: 0x8, addend: 0x0, symName: __ZN5boost6endian13native_to_bigItEET_S2_, symObjAddr: 0x78684, symBinAddr: 0x10007C1B8, symSize: 0x28 }
  - { offsetInCU: 0x3EE1B, offset: 0x50A06, size: 0x8, addend: 0x0, symName: __ZN5boost6endian13native_to_bigIyEET_S2_, symObjAddr: 0x78A60, symBinAddr: 0x10007C594, symSize: 0x24 }
  - { offsetInCU: 0x3EE54, offset: 0x50A3F, size: 0x8, addend: 0x0, symName: __ZN5boost6endian16native_to_littleIjEET_S2_, symObjAddr: 0x78A84, symBinAddr: 0x10007C5B8, symSize: 0x24 }
  - { offsetInCU: 0x3EE8D, offset: 0x50A78, size: 0x8, addend: 0x0, symName: __ZN5boost6endian19conditional_reverseILNS0_5orderE1ELS2_0EyEET1_S3_, symObjAddr: 0x78ADC, symBinAddr: 0x10007C610, symSize: 0x24 }
  - { offsetInCU: 0x3EEDA, offset: 0x50AC5, size: 0x8, addend: 0x0, symName: __ZN5boost6endian19conditional_reverseILNS0_5orderE1ELS2_1EjEET1_S3_, symObjAddr: 0x78B60, symBinAddr: 0x10007C694, symSize: 0x24 }
  - { offsetInCU: 0x3EF27, offset: 0x50B12, size: 0x8, addend: 0x0, symName: __ZN5boost6endian19conditional_reverseILNS0_5orderE1ELS2_0EtEET1_S3_, symObjAddr: 0x78BB8, symBinAddr: 0x10007C6EC, symSize: 0x28 }
  - { offsetInCU: 0x3EF74, offset: 0x50B5F, size: 0x8, addend: 0x0, symName: __ZN5boost6endian13big_to_nativeItEET_S2_, symObjAddr: 0x7970C, symBinAddr: 0x10007D240, symSize: 0x28 }
  - { offsetInCU: 0x3EFAD, offset: 0x50B98, size: 0x8, addend: 0x0, symName: __ZN5boost6endian13big_to_nativeIyEET_S2_, symObjAddr: 0x79734, symBinAddr: 0x10007D268, symSize: 0x24 }
  - { offsetInCU: 0x3EFE6, offset: 0x50BD1, size: 0x8, addend: 0x0, symName: __ZN5boost6endian16little_to_nativeIjEET_S2_, symObjAddr: 0x79758, symBinAddr: 0x10007D28C, symSize: 0x24 }
  - { offsetInCU: 0x3F01F, offset: 0x50C0A, size: 0x8, addend: 0x0, symName: __ZN5boost6endian19conditional_reverseILNS0_5orderE0ELS2_1EtEET1_S3_, symObjAddr: 0x79F60, symBinAddr: 0x10007DA94, symSize: 0x28 }
  - { offsetInCU: 0x3F06C, offset: 0x50C57, size: 0x8, addend: 0x0, symName: __ZN5boost6endian19conditional_reverseILNS0_5orderE0ELS2_1EyEET1_S3_, symObjAddr: 0x79F88, symBinAddr: 0x10007DABC, symSize: 0x24 }
  - { offsetInCU: 0x3F421, offset: 0x5100C, size: 0x8, addend: 0x0, symName: __ZN5boost16exception_detail20copy_boost_exceptionEPNS_9exceptionEPKS1_, symObjAddr: 0x41E8, symBinAddr: 0x100008C8C, symSize: 0x124 }
  - { offsetInCU: 0x3F48A, offset: 0x51075, size: 0x8, addend: 0x0, symName: __ZN5boost16exception_detail8set_infoINS_10wrapexceptINS_6system12system_errorEEEEERKT_S8_RKNS_10error_infoINS_11throw_file_EPKcEE, symObjAddr: 0x6414, symBinAddr: 0x10000AD0C, symSize: 0x28 }
  - { offsetInCU: 0x3F4D6, offset: 0x510C1, size: 0x8, addend: 0x0, symName: __ZN5boost16exception_detail8set_infoINS_10wrapexceptINS_6system12system_errorEEEEERKT_S8_RKNS_10error_infoINS_11throw_line_EiEE, symObjAddr: 0x6470, symBinAddr: 0x10000AD68, symSize: 0x28 }
  - { offsetInCU: 0x3F522, offset: 0x5110D, size: 0x8, addend: 0x0, symName: __ZN5boost16exception_detail8set_infoINS_10wrapexceptINS_6system12system_errorEEEEERKT_S8_RKNS_10error_infoINS_15throw_function_EPKcEE, symObjAddr: 0x64CC, symBinAddr: 0x10000ADC4, symSize: 0x28 }
  - { offsetInCU: 0x3F56E, offset: 0x51159, size: 0x8, addend: 0x0, symName: __ZN5boost16exception_detail8set_infoINS_10wrapexceptINS_6system12system_errorEEEEERKT_S8_RKNS_10error_infoINS_13throw_column_EiEE, symObjAddr: 0x6528, symBinAddr: 0x10000AE20, symSize: 0x28 }
  - { offsetInCU: 0x3F5BA, offset: 0x511A5, size: 0x8, addend: 0x0, symName: __ZN5boost16exception_detail8set_infoINS_10wrapexceptISt12out_of_rangeEEEERKT_S7_RKNS_10error_infoINS_11throw_file_EPKcEE, symObjAddr: 0x321EC, symBinAddr: 0x100035D20, symSize: 0x28 }
  - { offsetInCU: 0x3F606, offset: 0x511F1, size: 0x8, addend: 0x0, symName: __ZN5boost16exception_detail8set_infoINS_10wrapexceptISt12out_of_rangeEEEERKT_S7_RKNS_10error_infoINS_11throw_line_EiEE, symObjAddr: 0x32214, symBinAddr: 0x100035D48, symSize: 0x28 }
  - { offsetInCU: 0x3F652, offset: 0x5123D, size: 0x8, addend: 0x0, symName: __ZN5boost16exception_detail8set_infoINS_10wrapexceptISt12out_of_rangeEEEERKT_S7_RKNS_10error_infoINS_15throw_function_EPKcEE, symObjAddr: 0x3223C, symBinAddr: 0x100035D70, symSize: 0x28 }
  - { offsetInCU: 0x3F69E, offset: 0x51289, size: 0x8, addend: 0x0, symName: __ZN5boost16exception_detail8set_infoINS_10wrapexceptISt12out_of_rangeEEEERKT_S7_RKNS_10error_infoINS_13throw_column_EiEE, symObjAddr: 0x32264, symBinAddr: 0x100035D98, symSize: 0x28 }
  - { offsetInCU: 0x3F6EA, offset: 0x512D5, size: 0x8, addend: 0x0, symName: __ZN5boost16exception_detail8set_infoINS_10wrapexceptISt16invalid_argumentEEEERKT_S7_RKNS_10error_infoINS_11throw_file_EPKcEE, symObjAddr: 0x32D1C, symBinAddr: 0x100036850, symSize: 0x28 }
  - { offsetInCU: 0x3F736, offset: 0x51321, size: 0x8, addend: 0x0, symName: __ZN5boost16exception_detail8set_infoINS_10wrapexceptISt16invalid_argumentEEEERKT_S7_RKNS_10error_infoINS_11throw_line_EiEE, symObjAddr: 0x32D44, symBinAddr: 0x100036878, symSize: 0x28 }
  - { offsetInCU: 0x3F782, offset: 0x5136D, size: 0x8, addend: 0x0, symName: __ZN5boost16exception_detail8set_infoINS_10wrapexceptISt16invalid_argumentEEEERKT_S7_RKNS_10error_infoINS_15throw_function_EPKcEE, symObjAddr: 0x32D6C, symBinAddr: 0x1000368A0, symSize: 0x28 }
  - { offsetInCU: 0x3F7CE, offset: 0x513B9, size: 0x8, addend: 0x0, symName: __ZN5boost16exception_detail8set_infoINS_10wrapexceptISt16invalid_argumentEEEERKT_S7_RKNS_10error_infoINS_13throw_column_EiEE, symObjAddr: 0x32D94, symBinAddr: 0x1000368C8, symSize: 0x28 }
  - { offsetInCU: 0x3F81A, offset: 0x51405, size: 0x8, addend: 0x0, symName: __ZN5boost16exception_detail8set_infoINS_10wrapexceptISt12length_errorEEEERKT_S7_RKNS_10error_infoINS_11throw_file_EPKcEE, symObjAddr: 0x3BB24, symBinAddr: 0x10003F658, symSize: 0x28 }
  - { offsetInCU: 0x3F866, offset: 0x51451, size: 0x8, addend: 0x0, symName: __ZN5boost16exception_detail8set_infoINS_10wrapexceptISt12length_errorEEEERKT_S7_RKNS_10error_infoINS_11throw_line_EiEE, symObjAddr: 0x3BB4C, symBinAddr: 0x10003F680, symSize: 0x28 }
  - { offsetInCU: 0x3F8B2, offset: 0x5149D, size: 0x8, addend: 0x0, symName: __ZN5boost16exception_detail8set_infoINS_10wrapexceptISt12length_errorEEEERKT_S7_RKNS_10error_infoINS_15throw_function_EPKcEE, symObjAddr: 0x3BB74, symBinAddr: 0x10003F6A8, symSize: 0x28 }
  - { offsetInCU: 0x3F8FE, offset: 0x514E9, size: 0x8, addend: 0x0, symName: __ZN5boost16exception_detail8set_infoINS_10wrapexceptISt12length_errorEEEERKT_S7_RKNS_10error_infoINS_13throw_column_EiEE, symObjAddr: 0x3BB9C, symBinAddr: 0x10003F6D0, symSize: 0x28 }
  - { offsetInCU: 0x3F94A, offset: 0x51535, size: 0x8, addend: 0x0, symName: __ZN5boost16exception_detail8set_infoINS_10wrapexceptISt12domain_errorEEEERKT_S7_RKNS_10error_infoINS_11throw_file_EPKcEE, symObjAddr: 0x75D98, symBinAddr: 0x1000798CC, symSize: 0x28 }
  - { offsetInCU: 0x3F996, offset: 0x51581, size: 0x8, addend: 0x0, symName: __ZN5boost16exception_detail8set_infoINS_10wrapexceptISt12domain_errorEEEERKT_S7_RKNS_10error_infoINS_11throw_line_EiEE, symObjAddr: 0x75DC0, symBinAddr: 0x1000798F4, symSize: 0x28 }
  - { offsetInCU: 0x3F9E2, offset: 0x515CD, size: 0x8, addend: 0x0, symName: __ZN5boost16exception_detail8set_infoINS_10wrapexceptISt12domain_errorEEEERKT_S7_RKNS_10error_infoINS_15throw_function_EPKcEE, symObjAddr: 0x75DE8, symBinAddr: 0x10007991C, symSize: 0x28 }
  - { offsetInCU: 0x3FA2E, offset: 0x51619, size: 0x8, addend: 0x0, symName: __ZN5boost16exception_detail8set_infoINS_10wrapexceptISt12domain_errorEEEERKT_S7_RKNS_10error_infoINS_13throw_column_EiEE, symObjAddr: 0x75E10, symBinAddr: 0x100079944, symSize: 0x28 }
  - { offsetInCU: 0x402A8, offset: 0x51E93, size: 0x8, addend: 0x0, symName: __ZN5boost15throw_exceptionINS_4asio21invalid_service_ownerEEEvRKT_, symObjAddr: 0x38DC, symBinAddr: 0x100008380, symSize: 0x6C }
  - { offsetInCU: 0x402DD, offset: 0x51EC8, size: 0x8, addend: 0x0, symName: __ZN5boost15throw_exceptionINS_4asio22service_already_existsEEEvRKT_, symObjAddr: 0x3ADC, symBinAddr: 0x100008580, symSize: 0x6C }
  - { offsetInCU: 0x40312, offset: 0x51EFD, size: 0x8, addend: 0x0, symName: __ZN5boost36throw_exception_assert_compatibilityERKSt9exception, symObjAddr: 0x3BCC, symBinAddr: 0x100008670, symSize: 0x10 }
  - { offsetInCU: 0x4033A, offset: 0x51F25, size: 0x8, addend: 0x0, symName: __ZN5boost15throw_exceptionINS_6system12system_errorEEEvRKT_RKNS_15source_locationE, symObjAddr: 0x5290, symBinAddr: 0x100009CEC, symSize: 0x74 }
  - { offsetInCU: 0x40491, offset: 0x5207C, size: 0x8, addend: 0x0, symName: __ZN5boost15throw_exceptionISt12out_of_rangeEEvRKT_, symObjAddr: 0x87D0, symBinAddr: 0x10000D0C8, symSize: 0x6C }
  - { offsetInCU: 0x404CA, offset: 0x520B5, size: 0x8, addend: 0x0, symName: __ZN5boost9alignment12aligned_freeEPv, symObjAddr: 0xC6FC, symBinAddr: 0x100010C10, symSize: 0x2C }
  - { offsetInCU: 0x404F3, offset: 0x520DE, size: 0x8, addend: 0x0, symName: __ZN5boost9alignment13aligned_allocEmm, symObjAddr: 0x1315C, symBinAddr: 0x100016C90, symSize: 0xB8 }
  - { offsetInCU: 0x40540, offset: 0x5212B, size: 0x8, addend: 0x0, symName: __ZN5boost9alignment6detail12is_alignmentEm, symObjAddr: 0x13280, symBinAddr: 0x100016DB4, symSize: 0x50 }
  - { offsetInCU: 0x40573, offset: 0x5215E, size: 0x8, addend: 0x0, symName: __ZN5boost15throw_exceptionISt9bad_allocEEvRKT_, symObjAddr: 0x13214, symBinAddr: 0x100016D48, symSize: 0x6C }
  - { offsetInCU: 0x405A8, offset: 0x52193, size: 0x8, addend: 0x0, symName: __ZN5boost15throw_exceptionINS_4asio9execution12bad_executorEEEvRKT_, symObjAddr: 0x15190, symBinAddr: 0x100018CC4, symSize: 0x6C }
  - { offsetInCU: 0x405DC, offset: 0x521C7, size: 0x8, addend: 0x0, symName: __ZN5boost11make_sharedINS_5beast9websocket6streamINS_4asio3ssl6streamINS4_19basic_stream_socketINS4_2ip3tcpENS4_15any_io_executorEEEEELb1EE9impl_typeEJRNS4_10io_contextERNS5_7contextEEEENS_6detail15sp_if_not_arrayIT_E4typeEDpOT0_, symObjAddr: 0x1E794, symBinAddr: 0x1000222C8, symSize: 0xFC }
  - { offsetInCU: 0x40676, offset: 0x52261, size: 0x8, addend: 0x0, symName: __ZN5boost9addressofINS_6detail13sp_ms_deleterINS_5beast9websocket6streamINS_4asio3ssl6streamINS6_19basic_stream_socketINS6_2ip3tcpENS6_15any_io_executorEEEEELb1EE9impl_typeEEEEEPT_RSI_, symObjAddr: 0x1F0D4, symBinAddr: 0x100022C08, symSize: 0x14 }
  - { offsetInCU: 0x406AF, offset: 0x5229A, size: 0x8, addend: 0x0, symName: __ZN5boost8exchangeIPNS_5beast13saved_handler4baseEDnEET_RS5_OT0_, symObjAddr: 0x2B064, symBinAddr: 0x10002EB98, symSize: 0x2C }
  - { offsetInCU: 0x40711, offset: 0x522FC, size: 0x8, addend: 0x0, symName: __ZN5boost4moveIRNS_9intrusive18tree_value_compareIPNS_5beast4http12basic_fieldsINSt3__19allocatorIcEEE7elementENS9_11key_compareENS_11move_detail8identityISA_EEbLb1EEEEEONSD_16remove_referenceIT_E4typeEOSJ_, symObjAddr: 0x315AC, symBinAddr: 0x1000350E0, symSize: 0x14 }
  - { offsetInCU: 0x4074B, offset: 0x52336, size: 0x8, addend: 0x0, symName: __ZN5boost15throw_exceptionISt12out_of_rangeEEvRKT_RKNS_15source_locationE, symObjAddr: 0x31F78, symBinAddr: 0x100035AAC, symSize: 0x74 }
  - { offsetInCU: 0x40790, offset: 0x5237B, size: 0x8, addend: 0x0, symName: __ZN5boost15throw_exceptionISt16invalid_argumentEEvRKT_RKNS_15source_locationE, symObjAddr: 0x329E0, symBinAddr: 0x100036514, symSize: 0x74 }
  - { offsetInCU: 0x408E7, offset: 0x524D2, size: 0x8, addend: 0x0, symName: __ZN5boost15throw_exceptionISt12length_errorEEvRKT_RKNS_15source_locationE, symObjAddr: 0x3B860, symBinAddr: 0x10003F394, symSize: 0x74 }
  - { offsetInCU: 0x40D77, offset: 0x52962, size: 0x8, addend: 0x0, symName: __ZN5boost18make_unique_noinitIA_cEENSt3__19enable_ifIXsr6detail21sp_is_unbounded_arrayIT_EE5valueENS2_10unique_ptrIS4_NS2_14default_deleteIS4_EEEEE4typeEm, symObjAddr: 0x693D8, symBinAddr: 0x10006CF0C, symSize: 0x38 }
  - { offsetInCU: 0x40DDC, offset: 0x529C7, size: 0x8, addend: 0x0, symName: __ZN5boostgtIyEEbRKT_RKNS_8optionalIS1_EE, symObjAddr: 0x6D420, symBinAddr: 0x100070F54, symSize: 0x30 }
  - { offsetInCU: 0x40E25, offset: 0x52A10, size: 0x8, addend: 0x0, symName: __ZN5boostltIyEEbRKNS_8optionalIT_EERKS2_, symObjAddr: 0x6D450, symBinAddr: 0x100070F84, symSize: 0x64 }
  - { offsetInCU: 0x411A8, offset: 0x52D93, size: 0x8, addend: 0x0, symName: __ZN5boost8exchangeINS_4core17basic_string_viewIcEES3_EET_RS4_OT0_, symObjAddr: 0x70EB8, symBinAddr: 0x1000749EC, symSize: 0x38 }
  - { offsetInCU: 0x4120A, offset: 0x52DF5, size: 0x8, addend: 0x0, symName: __ZN5boost4moveIRNS_9intrusive11bstree_implINS1_8bhtraitsINS_5beast4http12basic_fieldsINSt3__19allocatorIcEEE7elementENS1_18rbtree_node_traitsIPvLb0EEELNS1_14link_mode_typeE0ENS1_7dft_tagELj3EEEvNSA_11key_compareEmLb0ELNS1_10algo_typesE5EvEEEEONS_11move_detail16remove_referenceIT_E4typeEOSO_, symObjAddr: 0x70F30, symBinAddr: 0x100074A64, symSize: 0x14 }
  - { offsetInCU: 0x41243, offset: 0x52E2E, size: 0x8, addend: 0x0, symName: __ZN5boost4moveIRNS_9intrusive8bhtraitsINS_5beast4http12basic_fieldsINSt3__19allocatorIcEEE7elementENS1_18rbtree_node_traitsIPvLb0EEELNS1_14link_mode_typeE0ENS1_7dft_tagELj3EEEEEONS_11move_detail16remove_referenceIT_E4typeEOSK_, symObjAddr: 0x70FF4, symBinAddr: 0x100074B28, symSize: 0x14 }
  - { offsetInCU: 0x4127C, offset: 0x52E67, size: 0x8, addend: 0x0, symName: __ZN5boost13adl_move_swapINS_9intrusive18tree_value_compareIPNS_5beast4http12basic_fieldsINSt3__19allocatorIcEEE7elementENS9_11key_compareENS_11move_detail8identityISA_EEbLb1EEEEEvRT_SI_, symObjAddr: 0x71098, symBinAddr: 0x100074BCC, symSize: 0x2C }
  - { offsetInCU: 0x412C1, offset: 0x52EAC, size: 0x8, addend: 0x0, symName: __ZN5boost4moveIRNS_9intrusive8bhtraitsINS_5beast4http12basic_fieldsINSt3__19allocatorIcEEE7elementENS1_16list_node_traitsIPvEELNS1_14link_mode_typeE0ENS1_7dft_tagELj1EEEEEONS_11move_detail16remove_referenceIT_E4typeEOSK_, symObjAddr: 0x71374, symBinAddr: 0x100074EA8, symSize: 0x14 }
  - { offsetInCU: 0x412FB, offset: 0x52EE6, size: 0x8, addend: 0x0, symName: __ZN5boost15throw_exceptionISt12domain_errorEEvRKT_RKNS_15source_locationE, symObjAddr: 0x75A84, symBinAddr: 0x1000795B8, symSize: 0x74 }
  - { offsetInCU: 0x46A69, offset: 0x58654, size: 0x8, addend: 0x0, symName: __ZNSt3__16chronossB8ue170006IxNS_5ratioILl1ELl1000000000EEExS3_EEDaRKNS0_8durationIT_T0_EERKNS5_IT1_T2_EE, symObjAddr: 0x22760, symBinAddr: 0x100026294, symSize: 0x8C }
  - { offsetInCU: 0x46AD9, offset: 0x586C4, size: 0x8, addend: 0x0, symName: __ZNSt3__16chronomiB8ue170006IxNS_5ratioILl1ELl1000000000EEExS3_EENS_11common_typeIJNS0_8durationIT_T0_EENS5_IT1_T2_EEEE4typeERKS8_RKSB_, symObjAddr: 0x29770, symBinAddr: 0x10002D2A4, symSize: 0x70 }
  - { offsetInCU: 0x46B5A, offset: 0x58745, size: 0x8, addend: 0x0, symName: __ZNSt3__16chronossB8ue170006INS0_12steady_clockENS0_8durationIxNS_5ratioILl1ELl1000000000EEEEES6_EEDaRKNS0_10time_pointIT_T0_EERKNS8_IS9_T1_EE, symObjAddr: 0x226D4, symBinAddr: 0x100026208, symSize: 0x58 }
  - { offsetInCU: 0x46BEF, offset: 0x587DA, size: 0x8, addend: 0x0, symName: __ZNSt3__16chronomiB8ue170006INS0_12steady_clockENS0_8durationIxNS_5ratioILl1ELl1000000000EEEEES6_EENS_11common_typeIJT0_T1_EE4typeERKNS0_10time_pointIT_S8_EERKNSC_ISD_S9_EE, symObjAddr: 0x29594, symBinAddr: 0x10002D0C8, symSize: 0x58 }
  - { offsetInCU: 0x46C4A, offset: 0x58835, size: 0x8, addend: 0x0, symName: __ZNSt3__16chronoeqB8ue170006INS0_12steady_clockENS0_8durationIxNS_5ratioILl1ELl1000000000EEEEES6_EEbRKNS0_10time_pointIT_T0_EERKNS7_IS8_T1_EE, symObjAddr: 0x295EC, symBinAddr: 0x10002D120, symSize: 0x54 }
  - { offsetInCU: 0x46C9F, offset: 0x5888A, size: 0x8, addend: 0x0, symName: __ZNSt3__16chronoeqB8ue170006IxNS_5ratioILl1ELl1000000000EEExS3_EEbRKNS0_8durationIT_T0_EERKNS4_IT1_T2_EE, symObjAddr: 0x297E0, symBinAddr: 0x10002D314, symSize: 0x34 }
  - { offsetInCU: 0x4D387, offset: 0x5EF72, size: 0x8, addend: 0x0, symName: __ZNSt3__117__cxx_atomic_loadB8ue170006IlEET_PKNS_22__cxx_atomic_base_implIS1_EENS_12memory_orderE, symObjAddr: 0xC328, symBinAddr: 0x10001099C, symSize: 0x80 }
  - { offsetInCU: 0x4D3E8, offset: 0x5EFD3, size: 0x8, addend: 0x0, symName: __ZNSt3__124__put_character_sequenceB8ue170006IcNS_11char_traitsIcEEEERNS_13basic_ostreamIT_T0_EES7_PKS4_m, symObjAddr: 0x106D8, symBinAddr: 0x10001420C, symSize: 0x1EC }
  - { offsetInCU: 0x4E727, offset: 0x60312, size: 0x8, addend: 0x0, symName: __ZNSt3__17advanceB8ue170006IPN5boost4asio2ip20basic_resolver_entryINS3_3tcpEEEllvEEvRT_T0_, symObjAddr: 0x1DD9C, symBinAddr: 0x1000218D0, symSize: 0x38 }
  - { offsetInCU: 0x4E9B2, offset: 0x6059D, size: 0x8, addend: 0x0, symName: __ZNSt3__17advanceB8ue170006INS_16reverse_iteratorIPN5boost4asio2ip20basic_resolver_entryINS4_3tcpEEEEEllvEEvRT_T0_, symObjAddr: 0x1E170, symBinAddr: 0x100021CA4, symSize: 0x38 }
  - { offsetInCU: 0x50971, offset: 0x6255C, size: 0x8, addend: 0x0, symName: __ZNSt3__17advanceB8ue170006IPN5boost8weak_ptrINS1_5beast9websocket6detail7service9impl_typeEEEllvEEvRT_T0_, symObjAddr: 0x25CEC, symBinAddr: 0x100029820, symSize: 0x38 }
  - { offsetInCU: 0x50BFC, offset: 0x627E7, size: 0x8, addend: 0x0, symName: __ZNSt3__17advanceB8ue170006INS_16reverse_iteratorIPN5boost8weak_ptrINS2_5beast9websocket6detail7service9impl_typeEEEEEllvEEvRT_T0_, symObjAddr: 0x26114, symBinAddr: 0x100029C48, symSize: 0x38 }
  - { offsetInCU: 0x50E6D, offset: 0x62A58, size: 0x8, addend: 0x0, symName: __ZNSt3__16copy_nB8ue170006IPKcmPcEENS_9enable_ifIXsr37__has_random_access_iterator_categoryIT_EE5valueET1_E4typeES5_T0_S6_, symObjAddr: 0x3228C, symBinAddr: 0x100035DC0, symSize: 0x44 }
  - { offsetInCU: 0x50F02, offset: 0x62AED, size: 0x8, addend: 0x0, symName: __ZNSt3__17advanceB8ue170006IPKcllvEEvRT_T0_, symObjAddr: 0x372AC, symBinAddr: 0x10003ADE0, symSize: 0x38 }
  - { offsetInCU: 0x51194, offset: 0x62D7F, size: 0x8, addend: 0x0, symName: __ZNSt3__17advanceB8ue170006IN5boost5beast4http10token_list14const_iteratorEllvEEvRT_T0_, symObjAddr: 0x43494, symBinAddr: 0x100046FC8, symSize: 0x38 }
  - { offsetInCU: 0x51949, offset: 0x63534, size: 0x8, addend: 0x0, symName: __ZNSt3__17advanceB8ue170006IN5boost9intrusive13tree_iteratorINS2_8bhtraitsINS1_5beast4http12basic_fieldsINS_9allocatorIcEEE7elementENS2_18rbtree_node_traitsIPvLb0EEELNS2_14link_mode_typeE0ENS2_7dft_tagELj3EEELb0EEEllvEEvRT_T0_, symObjAddr: 0x67524, symBinAddr: 0x10006B058, symSize: 0x38 }
  - { offsetInCU: 0x519DB, offset: 0x635C6, size: 0x8, addend: 0x0, symName: __ZNSt3__17advanceB8ue170006IPKN5boost4asio14mutable_bufferEllvEEvRT_T0_, symObjAddr: 0x69534, symBinAddr: 0x10006D068, symSize: 0x38 }
  - { offsetInCU: 0x53A6F, offset: 0x6565A, size: 0x8, addend: 0x0, symName: __ZNSt3__1lsB8ue170006INS_11char_traitsIcEEEERNS_13basic_ostreamIcT_EES6_PKc, symObjAddr: 0x170, symBinAddr: 0x100005E08, symSize: 0x48 }
  - { offsetInCU: 0x53ABB, offset: 0x656A6, size: 0x8, addend: 0x0, symName: __ZNSt3__14endlB8ue170006IcNS_11char_traitsIcEEEERNS_13basic_ostreamIT_T0_EES7_, symObjAddr: 0x1E4, symBinAddr: 0x100005E7C, symSize: 0x58 }
  - { offsetInCU: 0x53AFF, offset: 0x656EA, size: 0x8, addend: 0x0, symName: __ZNSt3__1lsB8ue170006IcNS_11char_traitsIcEENS_9allocatorIcEEEERNS_13basic_ostreamIT_T0_EES9_RKNS_12basic_stringIS6_S7_T1_EE, symObjAddr: 0xA58, symBinAddr: 0x1000066E4, symSize: 0x4C }
  - { offsetInCU: 0x53B81, offset: 0x6576C, size: 0x8, addend: 0x0, symName: __ZNSt3__111make_uniqueB8ue170006IN5boost5beast9websocket6streamINS1_4asio3ssl6streamINS5_19basic_stream_socketINS5_2ip3tcpENS5_15any_io_executorEEEEELb1EEEJRNS5_10io_contextERNS6_7contextEEEENS_11__unique_ifIT_E15__unique_singleEDpOT0_, symObjAddr: 0xC68, symBinAddr: 0x1000068F4, symSize: 0x74 }
  - { offsetInCU: 0x53BDE, offset: 0x657C9, size: 0x8, addend: 0x0, symName: __ZNSt3__1plB8ue170006IcNS_11char_traitsIcEENS_9allocatorIcEEEENS_12basic_stringIT_T0_T1_EEOS9_SA_, symObjAddr: 0x5450, symBinAddr: 0x100009EAC, symSize: 0x40 }
  - { offsetInCU: 0x53C39, offset: 0x65824, size: 0x8, addend: 0x0, symName: __ZNSt3__1plB8ue170006IcNS_11char_traitsIcEENS_9allocatorIcEEEENS_12basic_stringIT_T0_T1_EEOS9_PKS6_, symObjAddr: 0x5490, symBinAddr: 0x100009EEC, symSize: 0x40 }
  - { offsetInCU: 0x54391, offset: 0x65F7C, size: 0x8, addend: 0x0, symName: __ZNSt3__122__cxx_atomic_fetch_addB8ue170006IlEET_PNS_22__cxx_atomic_base_implIS1_EES1_NS_12memory_orderE, symObjAddr: 0xB70C, symBinAddr: 0x10000FDEC, symSize: 0xC4 }
  - { offsetInCU: 0x5461A, offset: 0x66205, size: 0x8, addend: 0x0, symName: __ZNSt3__134__libcpp_atomic_refcount_decrementB8ue170006IlEET_RS1_, symObjAddr: 0xEE5C, symBinAddr: 0x100012F98, symSize: 0x30 }
  - { offsetInCU: 0x550A0, offset: 0x66C8B, size: 0x8, addend: 0x0, symName: __ZNSt3__119__libcpp_deallocateB8ue170006EPvmm, symObjAddr: 0x10308, symBinAddr: 0x100013E3C, symSize: 0x60 }
  - { offsetInCU: 0x5510B, offset: 0x66CF6, size: 0x8, addend: 0x0, symName: __ZNSt3__124__is_overaligned_for_newB8ue170006Em, symObjAddr: 0x10368, symBinAddr: 0x100013E9C, symSize: 0x20 }
  - { offsetInCU: 0x5513B, offset: 0x66D26, size: 0x8, addend: 0x0, symName: __ZNSt3__127__do_deallocate_handle_sizeB8ue170006IJSt11align_val_tEEEvPvmDpT_, symObjAddr: 0x10388, symBinAddr: 0x100013EBC, symSize: 0x30 }
  - { offsetInCU: 0x55193, offset: 0x66D7E, size: 0x8, addend: 0x0, symName: __ZNSt3__127__do_deallocate_handle_sizeB8ue170006IJEEEvPvmDpT_, symObjAddr: 0x103B8, symBinAddr: 0x100013EEC, symSize: 0x28 }
  - { offsetInCU: 0x551D5, offset: 0x66DC0, size: 0x8, addend: 0x0, symName: __ZNSt3__124__libcpp_operator_deleteB8ue170006IJPvSt11align_val_tEEEvDpT_, symObjAddr: 0x103E0, symBinAddr: 0x100013F14, symSize: 0x2C }
  - { offsetInCU: 0x55222, offset: 0x66E0D, size: 0x8, addend: 0x0, symName: __ZNSt3__124__libcpp_operator_deleteB8ue170006IJPvEEEvDpT_, symObjAddr: 0x1040C, symBinAddr: 0x100013F40, symSize: 0x24 }
  - { offsetInCU: 0x55259, offset: 0x66E44, size: 0x8, addend: 0x0, symName: __ZNSt3__134__libcpp_atomic_refcount_incrementB8ue170006IlEET_RS1_, symObjAddr: 0x10644, symBinAddr: 0x100014178, symSize: 0x30 }
  - { offsetInCU: 0x5528E, offset: 0x66E79, size: 0x8, addend: 0x0, symName: __ZNSt3__116__pad_and_outputB8ue170006IcNS_11char_traitsIcEEEENS_19ostreambuf_iteratorIT_T0_EES6_PKS4_S8_S8_RNS_8ios_baseES4_, symObjAddr: 0x108E0, symBinAddr: 0x100014414, symSize: 0x240 }
  - { offsetInCU: 0x55374, offset: 0x66F5F, size: 0x8, addend: 0x0, symName: __ZNSt3__112__to_addressB8ue170006IcEEPT_S2_, symObjAddr: 0x10D50, symBinAddr: 0x100014884, symSize: 0x14 }
  - { offsetInCU: 0x553A9, offset: 0x66F94, size: 0x8, addend: 0x0, symName: __ZNSt3__19use_facetB8ue170006INS_5ctypeIcEEEERKT_RKNS_6localeE, symObjAddr: 0x10F60, symBinAddr: 0x100014A94, symSize: 0x2C }
  - { offsetInCU: 0x558D7, offset: 0x674C2, size: 0x8, addend: 0x0, symName: __ZNSt3__1eqB8ue170006IvvEEbRKNS_9allocatorIT_EERKNS1_IT0_EE, symObjAddr: 0x121CC, symBinAddr: 0x100015D00, symSize: 0x1C }
  - { offsetInCU: 0x55918, offset: 0x67503, size: 0x8, addend: 0x0, symName: __ZNSt3__119atomic_thread_fenceB8ue170006ENS_12memory_orderE, symObjAddr: 0x12840, symBinAddr: 0x100016374, symSize: 0x24 }
  - { offsetInCU: 0x55945, offset: 0x67530, size: 0x8, addend: 0x0, symName: __ZNSt3__125__cxx_atomic_thread_fenceB8ue170006ENS_12memory_orderE, symObjAddr: 0x12864, symBinAddr: 0x100016398, symSize: 0x64 }
  - { offsetInCU: 0x56106, offset: 0x67CF1, size: 0x8, addend: 0x0, symName: __ZNSt3__14swapB8ue170006IPvEENS_9enable_ifIXaasr21is_move_constructibleIT_EE5valuesr18is_move_assignableIS3_EE5valueEvE4typeERS3_S6_, symObjAddr: 0x19EE0, symBinAddr: 0x10001DA14, symSize: 0x3C }
  - { offsetInCU: 0x5615F, offset: 0x67D4A, size: 0x8, addend: 0x0, symName: __ZNSt3__14swapB8ue170006IPNS_19__shared_weak_countEEENS_9enable_ifIXaasr21is_move_constructibleIT_EE5valuesr18is_move_assignableIS4_EE5valueEvE4typeERS4_S7_, symObjAddr: 0x19F1C, symBinAddr: 0x10001DA50, symSize: 0x3C }
  - { offsetInCU: 0x56B31, offset: 0x6871C, size: 0x8, addend: 0x0, symName: __ZNSt3__112__to_addressB8ue170006IN5boost4asio2ip20basic_resolver_entryINS3_3tcpEEEEEPT_S8_, symObjAddr: 0x1C4A8, symBinAddr: 0x10001FFDC, symSize: 0x14 }
  - { offsetInCU: 0x56B66, offset: 0x68751, size: 0x8, addend: 0x0, symName: __ZNSt3__110destroy_atB8ue170006IN5boost4asio2ip20basic_resolver_entryINS3_3tcpEEELi0EEEvPT_, symObjAddr: 0x1C4BC, symBinAddr: 0x10001FFF0, symSize: 0x24 }
  - { offsetInCU: 0x56BA1, offset: 0x6878C, size: 0x8, addend: 0x0, symName: __ZNSt3__112__destroy_atB8ue170006IN5boost4asio2ip20basic_resolver_entryINS3_3tcpEEELi0EEEvPT_, symObjAddr: 0x1C4E0, symBinAddr: 0x100020014, symSize: 0x24 }
  - { offsetInCU: 0x56CB3, offset: 0x6889E, size: 0x8, addend: 0x0, symName: __ZNSt3__14swapB8ue170006IPNS_6vectorIN5boost4asio2ip20basic_resolver_entryINS4_3tcpEEENS_9allocatorIS7_EEEEEENS_9enable_ifIXaasr21is_move_constructibleIT_EE5valuesr18is_move_assignableISD_EE5valueEvE4typeERSD_SG_, symObjAddr: 0x1C8DC, symBinAddr: 0x100020410, symSize: 0x3C }
  - { offsetInCU: 0x56D35, offset: 0x68920, size: 0x8, addend: 0x0, symName: __ZNSt3__112construct_atB8ue170006IN5boost4asio2ip20basic_resolver_entryINS3_3tcpEEEJS6_EPS6_EEPT_S9_DpOT0_, symObjAddr: 0x1CD9C, symBinAddr: 0x1000208D0, symSize: 0x3C }
  - { offsetInCU: 0x56DAF, offset: 0x6899A, size: 0x8, addend: 0x0, symName: __ZNSt3__13maxB8ue170006ImEERKT_S3_S3_, symObjAddr: 0x1D200, symBinAddr: 0x100020D34, symSize: 0x2C }
  - { offsetInCU: 0x56DF8, offset: 0x689E3, size: 0x8, addend: 0x0, symName: __ZNSt3__13minB8ue170006ImEERKT_S3_S3_, symObjAddr: 0x1D22C, symBinAddr: 0x100020D60, symSize: 0x2C }
  - { offsetInCU: 0x56E41, offset: 0x68A2C, size: 0x8, addend: 0x0, symName: __ZNSt3__13minB8ue170006ImNS_6__lessIvvEEEERKT_S5_S5_T0_, symObjAddr: 0x1D2A8, symBinAddr: 0x100020DDC, symSize: 0x54 }
  - { offsetInCU: 0x56EED, offset: 0x68AD8, size: 0x8, addend: 0x0, symName: __ZNSt3__120__throw_length_errorB8ue170006EPKc, symObjAddr: 0x1D368, symBinAddr: 0x100020E9C, symSize: 0x64 }
  - { offsetInCU: 0x56F1A, offset: 0x68B05, size: 0x8, addend: 0x0, symName: __ZNSt3__13maxB8ue170006ImNS_6__lessIvvEEEERKT_S5_S5_T0_, symObjAddr: 0x1D44C, symBinAddr: 0x100020F80, symSize: 0x54 }
  - { offsetInCU: 0x56F7C, offset: 0x68B67, size: 0x8, addend: 0x0, symName: __ZNSt3__119__allocate_at_leastB8ue170006INS_9allocatorIN5boost4asio2ip20basic_resolver_entryINS4_3tcpEEEEEEENS_19__allocation_resultINS_16allocator_traitsIT_E7pointerEEERSB_m, symObjAddr: 0x1D5BC, symBinAddr: 0x1000210F0, symSize: 0x40 }
  - { offsetInCU: 0x56FC5, offset: 0x68BB0, size: 0x8, addend: 0x0, symName: __ZNSt3__117__libcpp_allocateB8ue170006Emm, symObjAddr: 0x1D744, symBinAddr: 0x100021278, symSize: 0x60 }
  - { offsetInCU: 0x57024, offset: 0x68C0F, size: 0x8, addend: 0x0, symName: __ZNSt3__121__libcpp_operator_newB8ue170006IJmSt11align_val_tEEEPvDpT_, symObjAddr: 0x1D7A4, symBinAddr: 0x1000212D8, symSize: 0x2C }
  - { offsetInCU: 0x57075, offset: 0x68C60, size: 0x8, addend: 0x0, symName: __ZNSt3__121__libcpp_operator_newB8ue170006IJmEEEPvDpT_, symObjAddr: 0x1D7D0, symBinAddr: 0x100021304, symSize: 0x24 }
  - { offsetInCU: 0x570B1, offset: 0x68C9C, size: 0x8, addend: 0x0, symName: __ZNSt3__142__uninitialized_allocator_move_if_noexceptB8ue170006INS_9allocatorIN5boost4asio2ip20basic_resolver_entryINS4_3tcpEEEEENS_16reverse_iteratorIPS7_EESB_SB_EET2_RT_T0_T1_SC_, symObjAddr: 0x1D858, symBinAddr: 0x10002138C, symSize: 0x12C }
  - { offsetInCU: 0x5715F, offset: 0x68D4A, size: 0x8, addend: 0x0, symName: __ZNSt3__14swapB8ue170006IPN5boost4asio2ip20basic_resolver_entryINS3_3tcpEEEEENS_9enable_ifIXaasr21is_move_constructibleIT_EE5valuesr18is_move_assignableIS9_EE5valueEvE4typeERS9_SC_, symObjAddr: 0x1D9D0, symBinAddr: 0x100021504, symSize: 0x3C }
  - { offsetInCU: 0x571B8, offset: 0x68DA3, size: 0x8, addend: 0x0, symName: __ZNSt3__122__make_exception_guardB8ue170006INS_29_AllocatorDestroyRangeReverseINS_9allocatorIN5boost4asio2ip20basic_resolver_entryINS5_3tcpEEEEENS_16reverse_iteratorIPS8_EEEEEENS_28__exception_guard_exceptionsIT_EESF_, symObjAddr: 0x1DAD4, symBinAddr: 0x100021608, symSize: 0x4C }
  - { offsetInCU: 0x571F2, offset: 0x68DDD, size: 0x8, addend: 0x0, symName: __ZNSt3__1neB8ue170006IPN5boost4asio2ip20basic_resolver_entryINS3_3tcpEEES7_EEbRKNS_16reverse_iteratorIT_EERKNS8_IT0_EE, symObjAddr: 0x1DB64, symBinAddr: 0x100021698, symSize: 0x48 }
  - { offsetInCU: 0x5723E, offset: 0x68E29, size: 0x8, addend: 0x0, symName: __ZNSt3__112__to_addressB8ue170006INS_16reverse_iteratorIPN5boost4asio2ip20basic_resolver_entryINS4_3tcpEEEEEvEEu7__decayIDTclsr19__to_address_helperIT_EE6__callclsr3stdE7declvalIRKSA_EEEEESC_, symObjAddr: 0x1DBAC, symBinAddr: 0x1000216E0, symSize: 0x24 }
  - { offsetInCU: 0x5729F, offset: 0x68E8A, size: 0x8, addend: 0x0, symName: __ZNSt3__14prevB8ue170006IPN5boost4asio2ip20basic_resolver_entryINS3_3tcpEEEEENS_9enable_ifIXsr29__has_input_iterator_categoryIT_EE5valueES9_E4typeES9_NS_15iterator_traitsIS9_E15difference_typeE, symObjAddr: 0x1DD60, symBinAddr: 0x100021894, symSize: 0x3C }
  - { offsetInCU: 0x572E8, offset: 0x68ED3, size: 0x8, addend: 0x0, symName: __ZNSt3__121__convert_to_integralB8ue170006El, symObjAddr: 0x1DDD4, symBinAddr: 0x100021908, symSize: 0x14 }
  - { offsetInCU: 0x57319, offset: 0x68F04, size: 0x8, addend: 0x0, symName: __ZNSt3__19__advanceB8ue170006IPN5boost4asio2ip20basic_resolver_entryINS3_3tcpEEEEEvRT_NS_15iterator_traitsIS8_E15difference_typeENS_26random_access_iterator_tagE, symObjAddr: 0x1DDE8, symBinAddr: 0x10002191C, symSize: 0x30 }
  - { offsetInCU: 0x57369, offset: 0x68F54, size: 0x8, addend: 0x0, symName: __ZNSt3__119__allocator_destroyB8ue170006INS_9allocatorIN5boost4asio2ip20basic_resolver_entryINS4_3tcpEEEEENS_16reverse_iteratorINS9_IPS7_EEEESC_EEvRT_T0_T1_, symObjAddr: 0x1DF1C, symBinAddr: 0x100021A50, symSize: 0x70 }
  - { offsetInCU: 0x573D6, offset: 0x68FC1, size: 0x8, addend: 0x0, symName: __ZNSt3__1neB8ue170006INS_16reverse_iteratorIPN5boost4asio2ip20basic_resolver_entryINS4_3tcpEEEEES9_EEbRKNS1_IT_EERKNS1_IT0_EE, symObjAddr: 0x1DFC8, symBinAddr: 0x100021AFC, symSize: 0x60 }
  - { offsetInCU: 0x57422, offset: 0x6900D, size: 0x8, addend: 0x0, symName: __ZNSt3__112__to_addressB8ue170006INS_16reverse_iteratorINS1_IPN5boost4asio2ip20basic_resolver_entryINS4_3tcpEEEEEEEvEEu7__decayIDTclsr19__to_address_helperIT_EE6__callclsr3stdE7declvalIRKSB_EEEEESD_, symObjAddr: 0x1E028, symBinAddr: 0x100021B5C, symSize: 0x24 }
  - { offsetInCU: 0x57483, offset: 0x6906E, size: 0x8, addend: 0x0, symName: __ZNSt3__14prevB8ue170006INS_16reverse_iteratorIPN5boost4asio2ip20basic_resolver_entryINS4_3tcpEEEEEEENS_9enable_ifIXsr29__has_input_iterator_categoryIT_EE5valueESB_E4typeESB_NS_15iterator_traitsISB_E15difference_typeE, symObjAddr: 0x1E124, symBinAddr: 0x100021C58, symSize: 0x4C }
  - { offsetInCU: 0x574CC, offset: 0x690B7, size: 0x8, addend: 0x0, symName: __ZNSt3__19__advanceB8ue170006INS_16reverse_iteratorIPN5boost4asio2ip20basic_resolver_entryINS4_3tcpEEEEEEEvRT_NS_15iterator_traitsISA_E15difference_typeENS_26random_access_iterator_tagE, symObjAddr: 0x1E1A8, symBinAddr: 0x100021CDC, symSize: 0x2C }
  - { offsetInCU: 0x5751D, offset: 0x69108, size: 0x8, addend: 0x0, symName: __ZNSt3__122__make_exception_guardB8ue170006INS_6vectorIhNS_9allocatorIhEEE16__destroy_vectorEEENS_28__exception_guard_exceptionsIT_EES7_, symObjAddr: 0x20BA8, symBinAddr: 0x1000246DC, symSize: 0x40 }
  - { offsetInCU: 0x57556, offset: 0x69141, size: 0x8, addend: 0x0, symName: __ZNSt3__119__allocate_at_leastB8ue170006INS_9allocatorIhEEEENS_19__allocation_resultINS_16allocator_traitsIT_E7pointerEEERS5_m, symObjAddr: 0x20F94, symBinAddr: 0x100024AC8, symSize: 0x40 }
  - { offsetInCU: 0x5759F, offset: 0x6918A, size: 0x8, addend: 0x0, symName: __ZNSt3__112__to_addressB8ue170006IhEEPT_S2_, symObjAddr: 0x212A0, symBinAddr: 0x100024DD4, symSize: 0x14 }
  - { offsetInCU: 0x575FD, offset: 0x691E8, size: 0x8, addend: 0x0, symName: __ZNSt3__112construct_atB8ue170006IhJEPhEEPT_S3_DpOT0_, symObjAddr: 0x213E8, symBinAddr: 0x100024F1C, symSize: 0x20 }
  - { offsetInCU: 0x57661, offset: 0x6924C, size: 0x8, addend: 0x0, symName: __ZNSt3__110destroy_atB8ue170006IhLi0EEEvPT_, symObjAddr: 0x216D0, symBinAddr: 0x100025204, symSize: 0x24 }
  - { offsetInCU: 0x5769D, offset: 0x69288, size: 0x8, addend: 0x0, symName: __ZNSt3__112__destroy_atB8ue170006IhLi0EEEvPT_, symObjAddr: 0x216F4, symBinAddr: 0x100025228, symSize: 0x10 }
  - { offsetInCU: 0x576FB, offset: 0x692E6, size: 0x8, addend: 0x0, symName: __ZNSt3__112__to_addressB8ue170006IN5boost4asio6detail11timer_queueINS3_18chrono_time_traitsINS_6chrono12steady_clockENS2_11wait_traitsIS7_EEEEE10heap_entryEEEPT_SE_, symObjAddr: 0x22548, symBinAddr: 0x10002607C, symSize: 0x14 }
  - { offsetInCU: 0x57730, offset: 0x6931B, size: 0x8, addend: 0x0, symName: __ZNSt3__110destroy_atB8ue170006IN5boost4asio6detail11timer_queueINS3_18chrono_time_traitsINS_6chrono12steady_clockENS2_11wait_traitsIS7_EEEEE10heap_entryELi0EEEvPT_, symObjAddr: 0x2255C, symBinAddr: 0x100026090, symSize: 0x24 }
  - { offsetInCU: 0x5776C, offset: 0x69357, size: 0x8, addend: 0x0, symName: __ZNSt3__112__destroy_atB8ue170006IN5boost4asio6detail11timer_queueINS3_18chrono_time_traitsINS_6chrono12steady_clockENS2_11wait_traitsIS7_EEEEE10heap_entryELi0EEEvPT_, symObjAddr: 0x22580, symBinAddr: 0x1000260B4, symSize: 0x10 }
  - { offsetInCU: 0x577A7, offset: 0x69392, size: 0x8, addend: 0x0, symName: __ZNSt3__1ltB8ue170006ENS_15strong_orderingENS_20_CmpUnspecifiedParamE, symObjAddr: 0x226B0, symBinAddr: 0x1000261E4, symSize: 0x24 }
  - { offsetInCU: 0x57A2E, offset: 0x69619, size: 0x8, addend: 0x0, symName: __ZNSt3__1eqB8ue170006ERKNS_10error_codeES2_, symObjAddr: 0x23700, symBinAddr: 0x100027234, symSize: 0x84 }
  - { offsetInCU: 0x57B23, offset: 0x6970E, size: 0x8, addend: 0x0, symName: __ZNSt3__112__to_addressB8ue170006IPN5boost5beast9websocket6detail7service9impl_typeEEEPT_S9_, symObjAddr: 0x24720, symBinAddr: 0x100028254, symSize: 0x14 }
  - { offsetInCU: 0x57B58, offset: 0x69743, size: 0x8, addend: 0x0, symName: __ZNSt3__110destroy_atB8ue170006IPN5boost5beast9websocket6detail7service9impl_typeELi0EEEvPT_, symObjAddr: 0x24734, symBinAddr: 0x100028268, symSize: 0x24 }
  - { offsetInCU: 0x57B94, offset: 0x6977F, size: 0x8, addend: 0x0, symName: __ZNSt3__112__destroy_atB8ue170006IPN5boost5beast9websocket6detail7service9impl_typeELi0EEEvPT_, symObjAddr: 0x24758, symBinAddr: 0x10002828C, symSize: 0x10 }
  - { offsetInCU: 0x57BCE, offset: 0x697B9, size: 0x8, addend: 0x0, symName: __ZNSt3__1neB8ue170006IPPN5boost5beast9websocket6detail7service9impl_typeEEEbRKNS_11__wrap_iterIT_EESD_, symObjAddr: 0x249FC, symBinAddr: 0x100028530, symSize: 0x34 }
  - { offsetInCU: 0x57C11, offset: 0x697FC, size: 0x8, addend: 0x0, symName: __ZNSt3__1neB8ue170006IPN5boost8weak_ptrINS1_5beast9websocket6detail7service9impl_typeEEEEEbRKNS_11__wrap_iterIT_EESE_, symObjAddr: 0x24BA0, symBinAddr: 0x1000286D4, symSize: 0x34 }
  - { offsetInCU: 0x57C54, offset: 0x6983F, size: 0x8, addend: 0x0, symName: __ZNSt3__119__allocate_at_leastB8ue170006INS_9allocatorIN5boost8weak_ptrINS2_5beast9websocket6detail7service9impl_typeEEEEEEENS_19__allocation_resultINS_16allocator_traitsIT_E7pointerEEERSD_m, symObjAddr: 0x25370, symBinAddr: 0x100028EA4, symSize: 0x40 }
  - { offsetInCU: 0x57C9D, offset: 0x69888, size: 0x8, addend: 0x0, symName: __ZNSt3__142__uninitialized_allocator_move_if_noexceptB8ue170006INS_9allocatorIN5boost8weak_ptrINS2_5beast9websocket6detail7service9impl_typeEEEEENS_16reverse_iteratorIPS9_EESD_SD_EET2_RT_T0_T1_SE_, symObjAddr: 0x255F0, symBinAddr: 0x100029124, symSize: 0x12C }
  - { offsetInCU: 0x57D4B, offset: 0x69936, size: 0x8, addend: 0x0, symName: __ZNSt3__14swapB8ue170006IPN5boost8weak_ptrINS1_5beast9websocket6detail7service9impl_typeEEEEENS_9enable_ifIXaasr21is_move_constructibleIT_EE5valuesr18is_move_assignableISB_EE5valueEvE4typeERSB_SE_, symObjAddr: 0x25768, symBinAddr: 0x10002929C, symSize: 0x3C }
  - { offsetInCU: 0x57DA4, offset: 0x6998F, size: 0x8, addend: 0x0, symName: __ZNSt3__112__to_addressB8ue170006IN5boost8weak_ptrINS1_5beast9websocket6detail7service9impl_typeEEEEEPT_SA_, symObjAddr: 0x258C0, symBinAddr: 0x1000293F4, symSize: 0x14 }
  - { offsetInCU: 0x57DD9, offset: 0x699C4, size: 0x8, addend: 0x0, symName: __ZNSt3__122__make_exception_guardB8ue170006INS_29_AllocatorDestroyRangeReverseINS_9allocatorIN5boost8weak_ptrINS3_5beast9websocket6detail7service9impl_typeEEEEENS_16reverse_iteratorIPSA_EEEEEENS_28__exception_guard_exceptionsIT_EESH_, symObjAddr: 0x258D4, symBinAddr: 0x100029408, symSize: 0x4C }
  - { offsetInCU: 0x57E13, offset: 0x699FE, size: 0x8, addend: 0x0, symName: __ZNSt3__1neB8ue170006IPN5boost8weak_ptrINS1_5beast9websocket6detail7service9impl_typeEEES9_EEbRKNS_16reverse_iteratorIT_EERKNSA_IT0_EE, symObjAddr: 0x25964, symBinAddr: 0x100029498, symSize: 0x48 }
  - { offsetInCU: 0x57E5F, offset: 0x69A4A, size: 0x8, addend: 0x0, symName: __ZNSt3__112__to_addressB8ue170006INS_16reverse_iteratorIPN5boost8weak_ptrINS2_5beast9websocket6detail7service9impl_typeEEEEEvEEu7__decayIDTclsr19__to_address_helperIT_EE6__callclsr3stdE7declvalIRKSC_EEEEESE_, symObjAddr: 0x259DC, symBinAddr: 0x100029510, symSize: 0x24 }
  - { offsetInCU: 0x57EBF, offset: 0x69AAA, size: 0x8, addend: 0x0, symName: __ZNSt3__112construct_atB8ue170006IN5boost8weak_ptrINS1_5beast9websocket6detail7service9impl_typeEEEJS8_EPS8_EEPT_SB_DpOT0_, symObjAddr: 0x25B2C, symBinAddr: 0x100029660, symSize: 0x3C }
  - { offsetInCU: 0x57F63, offset: 0x69B4E, size: 0x8, addend: 0x0, symName: __ZNSt3__14prevB8ue170006IPN5boost8weak_ptrINS1_5beast9websocket6detail7service9impl_typeEEEEENS_9enable_ifIXsr29__has_input_iterator_categoryIT_EE5valueESB_E4typeESB_NS_15iterator_traitsISB_E15difference_typeE, symObjAddr: 0x25CB0, symBinAddr: 0x1000297E4, symSize: 0x3C }
  - { offsetInCU: 0x57FAD, offset: 0x69B98, size: 0x8, addend: 0x0, symName: __ZNSt3__19__advanceB8ue170006IPN5boost8weak_ptrINS1_5beast9websocket6detail7service9impl_typeEEEEEvRT_NS_15iterator_traitsISA_E15difference_typeENS_26random_access_iterator_tagE, symObjAddr: 0x25D24, symBinAddr: 0x100029858, symSize: 0x28 }
  - { offsetInCU: 0x57FFD, offset: 0x69BE8, size: 0x8, addend: 0x0, symName: __ZNSt3__119__allocator_destroyB8ue170006INS_9allocatorIN5boost8weak_ptrINS2_5beast9websocket6detail7service9impl_typeEEEEENS_16reverse_iteratorINSB_IPS9_EEEESE_EEvRT_T0_T1_, symObjAddr: 0x25E50, symBinAddr: 0x100029984, symSize: 0x70 }
  - { offsetInCU: 0x5806A, offset: 0x69C55, size: 0x8, addend: 0x0, symName: __ZNSt3__1neB8ue170006INS_16reverse_iteratorIPN5boost8weak_ptrINS2_5beast9websocket6detail7service9impl_typeEEEEESB_EEbRKNS1_IT_EERKNS1_IT0_EE, symObjAddr: 0x25EFC, symBinAddr: 0x100029A30, symSize: 0x60 }
  - { offsetInCU: 0x580B6, offset: 0x69CA1, size: 0x8, addend: 0x0, symName: __ZNSt3__112__to_addressB8ue170006INS_16reverse_iteratorINS1_IPN5boost8weak_ptrINS2_5beast9websocket6detail7service9impl_typeEEEEEEEvEEu7__decayIDTclsr19__to_address_helperIT_EE6__callclsr3stdE7declvalIRKSD_EEEEESF_, symObjAddr: 0x25F84, symBinAddr: 0x100029AB8, symSize: 0x24 }
  - { offsetInCU: 0x580ED, offset: 0x69CD8, size: 0x8, addend: 0x0, symName: __ZNSt3__110destroy_atB8ue170006IN5boost8weak_ptrINS1_5beast9websocket6detail7service9impl_typeEEELi0EEEvPT_, symObjAddr: 0x25FFC, symBinAddr: 0x100029B30, symSize: 0x24 }
  - { offsetInCU: 0x58128, offset: 0x69D13, size: 0x8, addend: 0x0, symName: __ZNSt3__112__destroy_atB8ue170006IN5boost8weak_ptrINS1_5beast9websocket6detail7service9impl_typeEEELi0EEEvPT_, symObjAddr: 0x26020, symBinAddr: 0x100029B54, symSize: 0x24 }
  - { offsetInCU: 0x5818D, offset: 0x69D78, size: 0x8, addend: 0x0, symName: __ZNSt3__14prevB8ue170006INS_16reverse_iteratorIPN5boost8weak_ptrINS2_5beast9websocket6detail7service9impl_typeEEEEEEENS_9enable_ifIXsr29__has_input_iterator_categoryIT_EE5valueESD_E4typeESD_NS_15iterator_traitsISD_E15difference_typeE, symObjAddr: 0x260C8, symBinAddr: 0x100029BFC, symSize: 0x4C }
  - { offsetInCU: 0x581D6, offset: 0x69DC1, size: 0x8, addend: 0x0, symName: __ZNSt3__19__advanceB8ue170006INS_16reverse_iteratorIPN5boost8weak_ptrINS2_5beast9websocket6detail7service9impl_typeEEEEEEEvRT_NS_15iterator_traitsISC_E15difference_typeENS_26random_access_iterator_tagE, symObjAddr: 0x2614C, symBinAddr: 0x100029C80, symSize: 0x2C }
  - { offsetInCU: 0x58227, offset: 0x69E12, size: 0x8, addend: 0x0, symName: __ZNSt3__1eqB8ue170006IPPN5boost5beast9websocket6detail7service9impl_typeEEEbRKNS_11__wrap_iterIT_EESD_, symObjAddr: 0x26524, symBinAddr: 0x10002A058, symSize: 0x48 }
  - { offsetInCU: 0x5826A, offset: 0x69E55, size: 0x8, addend: 0x0, symName: __ZNSt3__1eqB8ue170006IPN5boost8weak_ptrINS1_5beast9websocket6detail7service9impl_typeEEEEEbRKNS_11__wrap_iterIT_EESE_, symObjAddr: 0x269C4, symBinAddr: 0x10002A4F8, symSize: 0x48 }
  - { offsetInCU: 0x582D6, offset: 0x69EC1, size: 0x8, addend: 0x0, symName: __ZNSt3__112construct_atB8ue170006IPN5boost5beast9websocket6detail7service9impl_typeEJS7_EPS7_EEPT_SA_DpOT0_, symObjAddr: 0x272B8, symBinAddr: 0x10002ADEC, symSize: 0x2C }
  - { offsetInCU: 0x58350, offset: 0x69F3B, size: 0x8, addend: 0x0, symName: __ZNSt3__119__allocate_at_leastB8ue170006INS_9allocatorIPN5boost5beast9websocket6detail7service9impl_typeEEEEENS_19__allocation_resultINS_16allocator_traitsIT_E7pointerEEERSC_m, symObjAddr: 0x2774C, symBinAddr: 0x10002B280, symSize: 0x40 }
  - { offsetInCU: 0x58399, offset: 0x69F84, size: 0x8, addend: 0x0, symName: __ZNSt3__142__uninitialized_allocator_move_if_noexceptB8ue170006INS_9allocatorIPN5boost5beast9websocket6detail7service9impl_typeEEENS_16reverse_iteratorIPS8_EESC_S8_vEET1_RT_T0_SG_SD_, symObjAddr: 0x27900, symBinAddr: 0x10002B434, symSize: 0x78 }
  - { offsetInCU: 0x58421, offset: 0x6A00C, size: 0x8, addend: 0x0, symName: __ZNSt3__14swapB8ue170006IPPN5boost5beast9websocket6detail7service9impl_typeEEENS_9enable_ifIXaasr21is_move_constructibleIT_EE5valuesr18is_move_assignableISA_EE5valueEvE4typeERSA_SD_, symObjAddr: 0x279C4, symBinAddr: 0x10002B4F8, symSize: 0x3C }
  - { offsetInCU: 0x5847A, offset: 0x6A065, size: 0x8, addend: 0x0, symName: __ZNSt3__14moveB8ue170006INS_16reverse_iteratorIPPN5boost5beast9websocket6detail7service9impl_typeEEESA_EET0_T_SC_SB_, symObjAddr: 0x27AAC, symBinAddr: 0x10002B5E0, symSize: 0x78 }
  - { offsetInCU: 0x584DC, offset: 0x6A0C7, size: 0x8, addend: 0x0, symName: __ZNSt3__16__moveB8ue170006INS_17_ClassicAlgPolicyENS_16reverse_iteratorIPPN5boost5beast9websocket6detail7service9impl_typeEEESB_SB_EENS_4pairIT0_T2_EESD_T1_SE_, symObjAddr: 0x27B24, symBinAddr: 0x10002B658, symSize: 0x64 }
  - { offsetInCU: 0x58550, offset: 0x6A13B, size: 0x8, addend: 0x0, symName: __ZNSt3__123__dispatch_copy_or_moveB8ue170006INS_17_ClassicAlgPolicyENS_11__move_loopIS1_EENS_14__move_trivialENS_16reverse_iteratorIPPN5boost5beast9websocket6detail7service9impl_typeEEESE_SE_EENS_4pairIT2_T4_EESG_T3_SH_, symObjAddr: 0x27B88, symBinAddr: 0x10002B6BC, symSize: 0x64 }
  - { offsetInCU: 0x585D6, offset: 0x6A1C1, size: 0x8, addend: 0x0, symName: __ZNSt3__121__unwrap_and_dispatchB8ue170006INS_10__overloadINS_11__move_loopINS_17_ClassicAlgPolicyEEENS_14__move_trivialEEENS_16reverse_iteratorIPPN5boost5beast9websocket6detail7service9impl_typeEEESG_SG_Li0EEENS_4pairIT0_T2_EESI_T1_SJ_, symObjAddr: 0x27BEC, symBinAddr: 0x10002B720, symSize: 0x12C }
  - { offsetInCU: 0x58672, offset: 0x6A25D, size: 0x8, addend: 0x0, symName: __ZNSt3__114__unwrap_rangeB8ue170006INS_16reverse_iteratorIPPN5boost5beast9websocket6detail7service9impl_typeEEESA_EEDaT_T0_, symObjAddr: 0x27D18, symBinAddr: 0x10002B84C, symSize: 0x4C }
  - { offsetInCU: 0x5883A, offset: 0x6A425, size: 0x8, addend: 0x0, symName: __ZNSt3__113__unwrap_iterB8ue170006INS_16reverse_iteratorIPPN5boost5beast9websocket6detail7service9impl_typeEEENS_18__unwrap_iter_implISA_Lb0EEELi0EEEDTclsrT0_8__unwrapclsr3stdE7declvalIT_EEEESE_, symObjAddr: 0x27E04, symBinAddr: 0x10002B938, symSize: 0x44 }
  - { offsetInCU: 0x58882, offset: 0x6A46D, size: 0x8, addend: 0x0, symName: __ZNSt3__19make_pairB8ue170006INS_16reverse_iteratorIPPN5boost5beast9websocket6detail7service9impl_typeEEESA_EENS_4pairINS_18__unwrap_ref_decayIT_E4typeENSC_IT0_E4typeEEEOSD_OSG_, symObjAddr: 0x27E48, symBinAddr: 0x10002B97C, symSize: 0x38 }
  - { offsetInCU: 0x588D4, offset: 0x6A4BF, size: 0x8, addend: 0x0, symName: __ZNSt3__114__rewrap_rangeB8ue170006INS_16reverse_iteratorIPPN5boost5beast9websocket6detail7service9impl_typeEEESA_SA_EET0_SB_T1_, symObjAddr: 0x27E80, symBinAddr: 0x10002B9B4, symSize: 0x5C }
  - { offsetInCU: 0x5892F, offset: 0x6A51A, size: 0x8, addend: 0x0, symName: __ZNSt3__113__rewrap_iterB8ue170006INS_16reverse_iteratorIPPN5boost5beast9websocket6detail7service9impl_typeEEESA_NS_18__unwrap_iter_implISA_Lb0EEEEET_SD_T0_, symObjAddr: 0x27EDC, symBinAddr: 0x10002BA10, symSize: 0x74 }
  - { offsetInCU: 0x589E0, offset: 0x6A5CB, size: 0x8, addend: 0x0, symName: __ZNSt3__1neB8ue170006IPPN5boost5beast9websocket6detail7service9impl_typeES8_EEbRKNS_16reverse_iteratorIT_EERKNS9_IT0_EE, symObjAddr: 0x28044, symBinAddr: 0x10002BB78, symSize: 0x48 }
  - { offsetInCU: 0x58B22, offset: 0x6A70D, size: 0x8, addend: 0x0, symName: __ZNSt3__1geB8ue170006ENS_15strong_orderingENS_20_CmpUnspecifiedParamE, symObjAddr: 0x29570, symBinAddr: 0x10002D0A4, symSize: 0x24 }
  - { offsetInCU: 0x58B5D, offset: 0x6A748, size: 0x8, addend: 0x0, symName: __ZNSt3__1eqB8ue170006INS_6vectorIN5boost4asio2ip20basic_resolver_entryINS4_3tcpEEENS_9allocatorIS7_EEEESA_EEbRKNS_10shared_ptrIT_EERKNSB_IT0_EE, symObjAddr: 0x2C2F0, symBinAddr: 0x10002FE24, symSize: 0x48 }
  - { offsetInCU: 0x58BAF, offset: 0x6A79A, size: 0x8, addend: 0x0, symName: __ZNSt3__14copyB8ue170006IPKcPcEET0_T_S5_S4_, symObjAddr: 0x322D0, symBinAddr: 0x100035E04, symSize: 0x40 }
  - { offsetInCU: 0x58C11, offset: 0x6A7FC, size: 0x8, addend: 0x0, symName: __ZNSt3__16__copyB8ue170006INS_17_ClassicAlgPolicyEPKcS3_PcEENS_4pairIT0_T2_EES6_T1_S7_, symObjAddr: 0x32310, symBinAddr: 0x100035E44, symSize: 0x44 }
  - { offsetInCU: 0x58C85, offset: 0x6A870, size: 0x8, addend: 0x0, symName: __ZNSt3__123__dispatch_copy_or_moveB8ue170006INS_17_ClassicAlgPolicyENS_11__copy_loopIS1_EENS_14__copy_trivialEPKcS6_PcEENS_4pairIT2_T4_EES9_T3_SA_, symObjAddr: 0x32354, symBinAddr: 0x100035E88, symSize: 0x44 }
  - { offsetInCU: 0x58D0B, offset: 0x6A8F6, size: 0x8, addend: 0x0, symName: __ZNSt3__121__unwrap_and_dispatchB8ue170006INS_10__overloadINS_11__copy_loopINS_17_ClassicAlgPolicyEEENS_14__copy_trivialEEEPKcS8_PcLi0EEENS_4pairIT0_T2_EESB_T1_SC_, symObjAddr: 0x32398, symBinAddr: 0x100035ECC, symSize: 0xB4 }
  - { offsetInCU: 0x58DA5, offset: 0x6A990, size: 0x8, addend: 0x0, symName: __ZNSt3__114__unwrap_rangeB8ue170006IPKcS2_EEDaT_T0_, symObjAddr: 0x3244C, symBinAddr: 0x100035F80, symSize: 0x3C }
  - { offsetInCU: 0x58F44, offset: 0x6AB2F, size: 0x8, addend: 0x0, symName: __ZNSt3__113__unwrap_iterB8ue170006IPcNS_18__unwrap_iter_implIS1_Lb1EEELi0EEEDTclsrT0_8__unwrapclsr3stdE7declvalIT_EEEES5_, symObjAddr: 0x324D0, symBinAddr: 0x100036004, symSize: 0x24 }
  - { offsetInCU: 0x58F8C, offset: 0x6AB77, size: 0x8, addend: 0x0, symName: __ZNSt3__19make_pairB8ue170006IPKcPcEENS_4pairINS_18__unwrap_ref_decayIT_E4typeENS5_IT0_E4typeEEEOS6_OS9_, symObjAddr: 0x324F4, symBinAddr: 0x100036028, symSize: 0x38 }
  - { offsetInCU: 0x58FDE, offset: 0x6ABC9, size: 0x8, addend: 0x0, symName: __ZNSt3__114__rewrap_rangeB8ue170006IPKcS2_S2_EET0_S3_T1_, symObjAddr: 0x3252C, symBinAddr: 0x100036060, symSize: 0x2C }
  - { offsetInCU: 0x59039, offset: 0x6AC24, size: 0x8, addend: 0x0, symName: __ZNSt3__113__rewrap_iterB8ue170006IPcS1_NS_18__unwrap_iter_implIS1_Lb1EEEEET_S4_T0_, symObjAddr: 0x32558, symBinAddr: 0x10003608C, symSize: 0x3C }
  - { offsetInCU: 0x591B6, offset: 0x6ADA1, size: 0x8, addend: 0x0, symName: __ZNSt3__113__unwrap_iterB8ue170006IPKcNS_18__unwrap_iter_implIS2_Lb1EEELi0EEEDTclsrT0_8__unwrapclsr3stdE7declvalIT_EEEES6_, symObjAddr: 0x325EC, symBinAddr: 0x100036120, symSize: 0x24 }
  - { offsetInCU: 0x59259, offset: 0x6AE44, size: 0x8, addend: 0x0, symName: __ZNSt3__119__copy_trivial_implB8ue170006IKccEENS_4pairIPT_PT0_EES4_S4_S6_, symObjAddr: 0x326A4, symBinAddr: 0x1000361D8, symSize: 0x78 }
  - { offsetInCU: 0x592CB, offset: 0x6AEB6, size: 0x8, addend: 0x0, symName: __ZNSt3__119__constexpr_memmoveB8ue170006IcKcLi0EEEPT_S3_PT0_NS_15__element_countE, symObjAddr: 0x3271C, symBinAddr: 0x100036250, symSize: 0x64 }
  - { offsetInCU: 0x59343, offset: 0x6AF2E, size: 0x8, addend: 0x0, symName: __ZNSt3__19make_pairB8ue170006IRPKcPcEENS_4pairINS_18__unwrap_ref_decayIT_E4typeENS6_IT0_E4typeEEEOS7_OSA_, symObjAddr: 0x32780, symBinAddr: 0x1000362B4, symSize: 0x38 }
  - { offsetInCU: 0x593F0, offset: 0x6AFDB, size: 0x8, addend: 0x0, symName: __ZNSt3__113__rewrap_iterB8ue170006IPKcS2_NS_18__unwrap_iter_implIS2_Lb1EEEEET_S5_T0_, symObjAddr: 0x328E8, symBinAddr: 0x10003641C, symSize: 0x3C }
  - { offsetInCU: 0x5944B, offset: 0x6B036, size: 0x8, addend: 0x0, symName: __ZNSt3__123lexicographical_compareB8ue170006IPKcS2_ZNK5boost5beast5ilessclENS3_4core17basic_string_viewIcEES8_EUlccE_EEbT_SA_T0_SB_T1_, symObjAddr: 0x34428, symBinAddr: 0x100037F5C, symSize: 0x44 }
  - { offsetInCU: 0x594D6, offset: 0x6B0C1, size: 0x8, addend: 0x0, symName: __ZNSt3__15beginB8ue170006IN5boost4core17basic_string_viewIcEEEEDTcldtfp_5beginEERT_, symObjAddr: 0x3446C, symBinAddr: 0x100037FA0, symSize: 0x24 }
  - { offsetInCU: 0x5950F, offset: 0x6B0FA, size: 0x8, addend: 0x0, symName: __ZNSt3__13endB8ue170006IN5boost4core17basic_string_viewIcEEEEDTcldtfp_3endEERT_, symObjAddr: 0x34490, symBinAddr: 0x100037FC4, symSize: 0x24 }
  - { offsetInCU: 0x59548, offset: 0x6B133, size: 0x8, addend: 0x0, symName: __ZNSt3__125__lexicographical_compareB8ue170006IRZNK5boost5beast5ilessclENS1_4core17basic_string_viewIcEES6_EUlccE_PKcSA_EEbT0_SB_T1_SC_T_, symObjAddr: 0x344B4, symBinAddr: 0x100037FE8, symSize: 0x104 }
  - { offsetInCU: 0x595D3, offset: 0x6B1BE, size: 0x8, addend: 0x0, symName: __ZNSt3__14prevB8ue170006IPKcEENS_9enable_ifIXsr29__has_input_iterator_categoryIT_EE5valueES4_E4typeES4_NS_15iterator_traitsIS4_E15difference_typeE, symObjAddr: 0x37270, symBinAddr: 0x10003ADA4, symSize: 0x3C }
  - { offsetInCU: 0x5961D, offset: 0x6B208, size: 0x8, addend: 0x0, symName: __ZNSt3__19__advanceB8ue170006IPKcEEvRT_NS_15iterator_traitsIS3_E15difference_typeENS_26random_access_iterator_tagE, symObjAddr: 0x372E4, symBinAddr: 0x10003AE18, symSize: 0x28 }
  - { offsetInCU: 0x5976E, offset: 0x6B359, size: 0x8, addend: 0x0, symName: __ZNSt3__112__to_addressB8ue170006IjEEPT_S2_, symObjAddr: 0x39250, symBinAddr: 0x10003CD84, symSize: 0x14 }
  - { offsetInCU: 0x597CC, offset: 0x6B3B7, size: 0x8, addend: 0x0, symName: __ZNSt3__112construct_atB8ue170006IjJjEPjEEPT_S3_DpOT0_, symObjAddr: 0x392D4, symBinAddr: 0x10003CE08, symSize: 0x2C }
  - { offsetInCU: 0x59846, offset: 0x6B431, size: 0x8, addend: 0x0, symName: __ZNSt3__119__allocate_at_leastB8ue170006INS_9allocatorIjEEEENS_19__allocation_resultINS_16allocator_traitsIT_E7pointerEEERS5_m, symObjAddr: 0x39868, symBinAddr: 0x10003D39C, symSize: 0x40 }
  - { offsetInCU: 0x5988F, offset: 0x6B47A, size: 0x8, addend: 0x0, symName: __ZNSt3__142__uninitialized_allocator_move_if_noexceptB8ue170006INS_9allocatorIjEENS_16reverse_iteratorIPjEES5_jvEET1_RT_T0_S9_S6_, symObjAddr: 0x39AD4, symBinAddr: 0x10003D608, symSize: 0x78 }
  - { offsetInCU: 0x59917, offset: 0x6B502, size: 0x8, addend: 0x0, symName: __ZNSt3__14swapB8ue170006IPjEENS_9enable_ifIXaasr21is_move_constructibleIT_EE5valuesr18is_move_assignableIS3_EE5valueEvE4typeERS3_S6_, symObjAddr: 0x39B98, symBinAddr: 0x10003D6CC, symSize: 0x3C }
  - { offsetInCU: 0x59970, offset: 0x6B55B, size: 0x8, addend: 0x0, symName: __ZNSt3__14moveB8ue170006INS_16reverse_iteratorIPjEES3_EET0_T_S5_S4_, symObjAddr: 0x39CC8, symBinAddr: 0x10003D7FC, symSize: 0x78 }
  - { offsetInCU: 0x599D2, offset: 0x6B5BD, size: 0x8, addend: 0x0, symName: __ZNSt3__16__moveB8ue170006INS_17_ClassicAlgPolicyENS_16reverse_iteratorIPjEES4_S4_EENS_4pairIT0_T2_EES6_T1_S7_, symObjAddr: 0x39D40, symBinAddr: 0x10003D874, symSize: 0x64 }
  - { offsetInCU: 0x59A46, offset: 0x6B631, size: 0x8, addend: 0x0, symName: __ZNSt3__123__dispatch_copy_or_moveB8ue170006INS_17_ClassicAlgPolicyENS_11__move_loopIS1_EENS_14__move_trivialENS_16reverse_iteratorIPjEES7_S7_EENS_4pairIT2_T4_EES9_T3_SA_, symObjAddr: 0x39DA4, symBinAddr: 0x10003D8D8, symSize: 0x64 }
  - { offsetInCU: 0x59ACC, offset: 0x6B6B7, size: 0x8, addend: 0x0, symName: __ZNSt3__121__unwrap_and_dispatchB8ue170006INS_10__overloadINS_11__move_loopINS_17_ClassicAlgPolicyEEENS_14__move_trivialEEENS_16reverse_iteratorIPjEES9_S9_Li0EEENS_4pairIT0_T2_EESB_T1_SC_, symObjAddr: 0x39E08, symBinAddr: 0x10003D93C, symSize: 0x12C }
  - { offsetInCU: 0x59B68, offset: 0x6B753, size: 0x8, addend: 0x0, symName: __ZNSt3__114__unwrap_rangeB8ue170006INS_16reverse_iteratorIPjEES3_EEDaT_T0_, symObjAddr: 0x39F34, symBinAddr: 0x10003DA68, symSize: 0x4C }
  - { offsetInCU: 0x59C8E, offset: 0x6B879, size: 0x8, addend: 0x0, symName: __ZNSt3__113__unwrap_iterB8ue170006INS_16reverse_iteratorIPjEENS_18__unwrap_iter_implIS3_Lb0EEELi0EEEDTclsrT0_8__unwrapclsr3stdE7declvalIT_EEEES7_, symObjAddr: 0x3A020, symBinAddr: 0x10003DB54, symSize: 0x44 }
  - { offsetInCU: 0x59CD6, offset: 0x6B8C1, size: 0x8, addend: 0x0, symName: __ZNSt3__19make_pairB8ue170006INS_16reverse_iteratorIPjEES3_EENS_4pairINS_18__unwrap_ref_decayIT_E4typeENS5_IT0_E4typeEEEOS6_OS9_, symObjAddr: 0x3A064, symBinAddr: 0x10003DB98, symSize: 0x38 }
  - { offsetInCU: 0x59D28, offset: 0x6B913, size: 0x8, addend: 0x0, symName: __ZNSt3__114__rewrap_rangeB8ue170006INS_16reverse_iteratorIPjEES3_S3_EET0_S4_T1_, symObjAddr: 0x3A09C, symBinAddr: 0x10003DBD0, symSize: 0x5C }
  - { offsetInCU: 0x59D83, offset: 0x6B96E, size: 0x8, addend: 0x0, symName: __ZNSt3__113__rewrap_iterB8ue170006INS_16reverse_iteratorIPjEES3_NS_18__unwrap_iter_implIS3_Lb0EEEEET_S6_T0_, symObjAddr: 0x3A0F8, symBinAddr: 0x10003DC2C, symSize: 0x74 }
  - { offsetInCU: 0x59E34, offset: 0x6BA1F, size: 0x8, addend: 0x0, symName: __ZNSt3__1neB8ue170006IPjS1_EEbRKNS_16reverse_iteratorIT_EERKNS2_IT0_EE, symObjAddr: 0x3A260, symBinAddr: 0x10003DD94, symSize: 0x48 }
  - { offsetInCU: 0x59EF2, offset: 0x6BADD, size: 0x8, addend: 0x0, symName: __ZNSt3__110destroy_atB8ue170006IjLi0EEEvPT_, symObjAddr: 0x3A5EC, symBinAddr: 0x10003E120, symSize: 0x24 }
  - { offsetInCU: 0x59F2E, offset: 0x6BB19, size: 0x8, addend: 0x0, symName: __ZNSt3__112__destroy_atB8ue170006IjLi0EEEvPT_, symObjAddr: 0x3A610, symBinAddr: 0x10003E144, symSize: 0x10 }
  - { offsetInCU: 0x59F68, offset: 0x6BB53, size: 0x8, addend: 0x0, symName: __ZNSt3__14fillB8ue170006IPjjEEvT_S2_RKT0_, symObjAddr: 0x3A888, symBinAddr: 0x10003E3BC, symSize: 0x34 }
  - { offsetInCU: 0x59FC6, offset: 0x6BBB1, size: 0x8, addend: 0x0, symName: __ZNSt3__16__fillB8ue170006IPjjEEvT_S2_RKT0_NS_26random_access_iterator_tagE, symObjAddr: 0x3A8FC, symBinAddr: 0x10003E430, symSize: 0x44 }
  - { offsetInCU: 0x5A030, offset: 0x6BC1B, size: 0x8, addend: 0x0, symName: __ZNSt3__16fill_nB8ue170006IPjljEET_S2_T0_RKT1_, symObjAddr: 0x3A940, symBinAddr: 0x10003E474, symSize: 0x44 }
  - { offsetInCU: 0x5A09B, offset: 0x6BC86, size: 0x8, addend: 0x0, symName: __ZNSt3__18__fill_nB8ue170006IPjljEET_S2_T0_RKT1_, symObjAddr: 0x3A984, symBinAddr: 0x10003E4B8, symSize: 0x64 }
  - { offsetInCU: 0x5A107, offset: 0x6BCF2, size: 0x8, addend: 0x0, symName: __ZNSt3__122__cxx_atomic_fetch_addB8ue170006IjEET_PNS_22__cxx_atomic_base_implIS1_EES1_NS_12memory_orderE, symObjAddr: 0x3AA78, symBinAddr: 0x10003E5AC, symSize: 0xC4 }
  - { offsetInCU: 0x5A15F, offset: 0x6BD4A, size: 0x8, addend: 0x0, symName: __ZNSt3__16fill_nB8ue170006IPcmcEET_S2_T0_RKT1_, symObjAddr: 0x3BF88, symBinAddr: 0x10003FABC, symSize: 0x44 }
  - { offsetInCU: 0x5A1CA, offset: 0x6BDB5, size: 0x8, addend: 0x0, symName: __ZNSt3__18__fill_nB8ue170006IPcmcEET_S2_T0_RKT1_, symObjAddr: 0x3BFCC, symBinAddr: 0x10003FB00, symSize: 0x64 }
  - { offsetInCU: 0x5A235, offset: 0x6BE20, size: 0x8, addend: 0x0, symName: __ZNSt3__121__convert_to_integralB8ue170006Em, symObjAddr: 0x3C030, symBinAddr: 0x10003FB64, symSize: 0x14 }
  - { offsetInCU: 0x5A265, offset: 0x6BE50, size: 0x8, addend: 0x0, symName: __ZNSt3__13endB8ue170006IcLm11EEEPT_RAT0__S1_, symObjAddr: 0x3C8C8, symBinAddr: 0x1000403FC, symSize: 0x18 }
  - { offsetInCU: 0x5A2A8, offset: 0x6BE93, size: 0x8, addend: 0x0, symName: __ZNSt3__18distanceB8ue170006IPcEENS_15iterator_traitsIT_E15difference_typeES3_S3_, symObjAddr: 0x3CAE4, symBinAddr: 0x100040618, symSize: 0x2C }
  - { offsetInCU: 0x5A2F1, offset: 0x6BEDC, size: 0x8, addend: 0x0, symName: __ZNSt3__110__distanceB8ue170006IPcEENS_15iterator_traitsIT_E15difference_typeES3_S3_NS_26random_access_iterator_tagE, symObjAddr: 0x3CB78, symBinAddr: 0x1000406AC, symSize: 0x20 }
  - { offsetInCU: 0x5A4CA, offset: 0x6C0B5, size: 0x8, addend: 0x0, symName: __ZNSt3__14nextB8ue170006IN5boost5beast4http10token_list14const_iteratorEEENS_9enable_ifIXsr29__has_input_iterator_categoryIT_EE5valueES7_E4typeES7_NS_15iterator_traitsIS7_E15difference_typeE, symObjAddr: 0x4309C, symBinAddr: 0x100046BD0, symSize: 0x44 }
  - { offsetInCU: 0x5A514, offset: 0x6C0FF, size: 0x8, addend: 0x0, symName: __ZNSt3__19__advanceB8ue170006IN5boost5beast4http10token_list14const_iteratorEEEvRT_NS_15iterator_traitsIS6_E15difference_typeENS_18input_iterator_tagE, symObjAddr: 0x434CC, symBinAddr: 0x100047000, symSize: 0x54 }
  - { offsetInCU: 0x5A5C3, offset: 0x6C1AE, size: 0x8, addend: 0x0, symName: __ZNSt3__17launderB8ue170006IN5boost5beast14buffers_suffixINS2_6detail11buffers_refINS2_16buffers_cat_viewIJNS1_4asio12const_bufferES8_S8_NS2_4http12basic_fieldsINS_9allocatorIcEEE6writer11field_rangeENS9_10chunk_crlfEEEEEEEEEEPT_SL_, symObjAddr: 0x43A5C, symBinAddr: 0x100047590, symSize: 0x24 }
  - { offsetInCU: 0x5A5FD, offset: 0x6C1E8, size: 0x8, addend: 0x0, symName: __ZNSt3__19__launderB8ue170006IN5boost5beast14buffers_suffixINS2_6detail11buffers_refINS2_16buffers_cat_viewIJNS1_4asio12const_bufferES8_S8_NS2_4http12basic_fieldsINS_9allocatorIcEEE6writer11field_rangeENS9_10chunk_crlfEEEEEEEEEEPT_SL_, symObjAddr: 0x43A80, symBinAddr: 0x1000475B4, symSize: 0x14 }
  - { offsetInCU: 0x5A635, offset: 0x6C220, size: 0x8, addend: 0x0, symName: __ZNSt3__17launderB8ue170006IPKN5boost4asio12const_bufferEEEPT_S7_, symObjAddr: 0x43E18, symBinAddr: 0x10004794C, symSize: 0x24 }
  - { offsetInCU: 0x5A66F, offset: 0x6C25A, size: 0x8, addend: 0x0, symName: __ZNSt3__19__launderB8ue170006IPKN5boost4asio12const_bufferEEEPT_S7_, symObjAddr: 0x43E3C, symBinAddr: 0x100047970, symSize: 0x14 }
  - { offsetInCU: 0x5A6A7, offset: 0x6C292, size: 0x8, addend: 0x0, symName: __ZNSt3__17launderB8ue170006IN5boost5beast4http12basic_fieldsINS_9allocatorIcEEE6writer14field_iteratorEEEPT_SB_, symObjAddr: 0x43E74, symBinAddr: 0x1000479A8, symSize: 0x24 }
  - { offsetInCU: 0x5A6E1, offset: 0x6C2CC, size: 0x8, addend: 0x0, symName: __ZNSt3__19__launderB8ue170006IN5boost5beast4http12basic_fieldsINS_9allocatorIcEEE6writer14field_iteratorEEEPT_SB_, symObjAddr: 0x43E98, symBinAddr: 0x1000479CC, symSize: 0x14 }
  - { offsetInCU: 0x5A719, offset: 0x6C304, size: 0x8, addend: 0x0, symName: __ZNSt3__17launderB8ue170006IN5boost5beast6detail30buffers_cat_view_iterator_base8past_endEEEPT_S7_, symObjAddr: 0x43ED0, symBinAddr: 0x100047A04, symSize: 0x24 }
  - { offsetInCU: 0x5A753, offset: 0x6C33E, size: 0x8, addend: 0x0, symName: __ZNSt3__19__launderB8ue170006IN5boost5beast6detail30buffers_cat_view_iterator_base8past_endEEEPT_S7_, symObjAddr: 0x43EF4, symBinAddr: 0x100047A28, symSize: 0x14 }
  - { offsetInCU: 0x5A78B, offset: 0x6C376, size: 0x8, addend: 0x0, symName: __ZNSt3__17launderB8ue170006IN5boost5beast14buffers_suffixINS2_16buffers_cat_viewIJNS2_6detail11buffers_refINS4_IJNS1_4asio12const_bufferES8_S8_NS2_4http12basic_fieldsINS_9allocatorIcEEE6writer11field_rangeENS9_10chunk_crlfEEEEEES8_EEEEEEEPT_SM_, symObjAddr: 0x43F58, symBinAddr: 0x100047A8C, symSize: 0x24 }
  - { offsetInCU: 0x5A7C5, offset: 0x6C3B0, size: 0x8, addend: 0x0, symName: __ZNSt3__19__launderB8ue170006IN5boost5beast14buffers_suffixINS2_16buffers_cat_viewIJNS2_6detail11buffers_refINS4_IJNS1_4asio12const_bufferES8_S8_NS2_4http12basic_fieldsINS_9allocatorIcEEE6writer11field_rangeENS9_10chunk_crlfEEEEEES8_EEEEEEEPT_SM_, symObjAddr: 0x43F7C, symBinAddr: 0x100047AB0, symSize: 0x14 }
  - { offsetInCU: 0x5A7FD, offset: 0x6C3E8, size: 0x8, addend: 0x0, symName: __ZNSt3__17launderB8ue170006IN5boost5beast16buffers_cat_viewIJNS1_4asio12const_bufferES5_S5_NS2_4http12basic_fieldsINS_9allocatorIcEEE6writer11field_rangeENS6_10chunk_crlfEEE14const_iteratorEEEPT_SH_, symObjAddr: 0x44278, symBinAddr: 0x100047DAC, symSize: 0x24 }
  - { offsetInCU: 0x5A837, offset: 0x6C422, size: 0x8, addend: 0x0, symName: __ZNSt3__19__launderB8ue170006IN5boost5beast16buffers_cat_viewIJNS1_4asio12const_bufferES5_S5_NS2_4http12basic_fieldsINS_9allocatorIcEEE6writer11field_rangeENS6_10chunk_crlfEEE14const_iteratorEEEPT_SH_, symObjAddr: 0x4429C, symBinAddr: 0x100047DD0, symSize: 0x14 }
  - { offsetInCU: 0x5A86F, offset: 0x6C45A, size: 0x8, addend: 0x0, symName: __ZNSt3__17launderB8ue170006IN5boost5beast14buffers_suffixINS1_4asio12const_bufferEEEEEPT_S8_, symObjAddr: 0x4431C, symBinAddr: 0x100047E50, symSize: 0x24 }
  - { offsetInCU: 0x5A8A9, offset: 0x6C494, size: 0x8, addend: 0x0, symName: __ZNSt3__19__launderB8ue170006IN5boost5beast14buffers_suffixINS1_4asio12const_bufferEEEEEPT_S8_, symObjAddr: 0x44340, symBinAddr: 0x100047E74, symSize: 0x14 }
  - { offsetInCU: 0x5A8E1, offset: 0x6C4CC, size: 0x8, addend: 0x0, symName: __ZNSt3__17launderB8ue170006IN5boost5beast14buffers_suffixINS2_16buffers_cat_viewIJNS2_6detail11buffers_refINS4_IJNS1_4asio12const_bufferES8_S8_NS2_4http12basic_fieldsINS_9allocatorIcEEE6writer11field_rangeENS9_10chunk_crlfEEEEEENS9_6detail10chunk_sizeES8_SG_S8_SG_EEEEEEEPT_SO_, symObjAddr: 0x443A4, symBinAddr: 0x100047ED8, symSize: 0x24 }
  - { offsetInCU: 0x5A91B, offset: 0x6C506, size: 0x8, addend: 0x0, symName: __ZNSt3__19__launderB8ue170006IN5boost5beast14buffers_suffixINS2_16buffers_cat_viewIJNS2_6detail11buffers_refINS4_IJNS1_4asio12const_bufferES8_S8_NS2_4http12basic_fieldsINS_9allocatorIcEEE6writer11field_rangeENS9_10chunk_crlfEEEEEENS9_6detail10chunk_sizeES8_SG_S8_SG_EEEEEEEPT_SO_, symObjAddr: 0x443C8, symBinAddr: 0x100047EFC, symSize: 0x14 }
  - { offsetInCU: 0x5A953, offset: 0x6C53E, size: 0x8, addend: 0x0, symName: __ZNSt3__17launderB8ue170006IN5boost5beast14buffers_suffixINS2_16buffers_cat_viewIJNS2_4http6detail10chunk_sizeENS1_4asio12const_bufferENS5_10chunk_crlfES9_SA_EEEEEEEPT_SE_, symObjAddr: 0x4499C, symBinAddr: 0x1000484D0, symSize: 0x24 }
  - { offsetInCU: 0x5A98D, offset: 0x6C578, size: 0x8, addend: 0x0, symName: __ZNSt3__19__launderB8ue170006IN5boost5beast14buffers_suffixINS2_16buffers_cat_viewIJNS2_4http6detail10chunk_sizeENS1_4asio12const_bufferENS5_10chunk_crlfES9_SA_EEEEEEEPT_SE_, symObjAddr: 0x449C0, symBinAddr: 0x1000484F4, symSize: 0x14 }
  - { offsetInCU: 0x5A9C5, offset: 0x6C5B0, size: 0x8, addend: 0x0, symName: __ZNSt3__17launderB8ue170006IN5boost5beast14buffers_suffixINS2_16buffers_cat_viewIJNS2_4http6detail10chunk_sizeENS1_4asio12const_bufferENS5_10chunk_crlfES9_SA_S9_S9_SA_EEEEEEEPT_SE_, symObjAddr: 0x44E7C, symBinAddr: 0x1000489B0, symSize: 0x24 }
  - { offsetInCU: 0x5A9FF, offset: 0x6C5EA, size: 0x8, addend: 0x0, symName: __ZNSt3__19__launderB8ue170006IN5boost5beast14buffers_suffixINS2_16buffers_cat_viewIJNS2_4http6detail10chunk_sizeENS1_4asio12const_bufferENS5_10chunk_crlfES9_SA_S9_S9_SA_EEEEEEEPT_SE_, symObjAddr: 0x44EA0, symBinAddr: 0x1000489D4, symSize: 0x14 }
  - { offsetInCU: 0x5AA37, offset: 0x6C622, size: 0x8, addend: 0x0, symName: __ZNSt3__17launderB8ue170006IN5boost5beast14buffers_suffixINS2_16buffers_cat_viewIJNS2_6detail11buffers_refINS4_IJNS1_4asio12const_bufferES8_S8_NS2_4http12basic_fieldsINS_9allocatorIcEEE6writer11field_rangeENS9_10chunk_crlfEEEEEENS9_6detail10chunk_sizeES8_SG_S8_SG_S8_S8_SG_EEEEEEEPT_SO_, symObjAddr: 0x453D8, symBinAddr: 0x100048F0C, symSize: 0x24 }
  - { offsetInCU: 0x5AA71, offset: 0x6C65C, size: 0x8, addend: 0x0, symName: __ZNSt3__19__launderB8ue170006IN5boost5beast14buffers_suffixINS2_16buffers_cat_viewIJNS2_6detail11buffers_refINS4_IJNS1_4asio12const_bufferES8_S8_NS2_4http12basic_fieldsINS_9allocatorIcEEE6writer11field_rangeENS9_10chunk_crlfEEEEEENS9_6detail10chunk_sizeES8_SG_S8_SG_S8_S8_SG_EEEEEEEPT_SO_, symObjAddr: 0x453FC, symBinAddr: 0x100048F30, symSize: 0x14 }
  - { offsetInCU: 0x5AAA9, offset: 0x6C694, size: 0x8, addend: 0x0, symName: __ZNSt3__17launderB8ue170006IN5boost5beast14buffers_suffixINS2_16buffers_cat_viewIJNS1_4asio12const_bufferES6_NS2_4http10chunk_crlfEEEEEEEEPT_SC_, symObjAddr: 0x45974, symBinAddr: 0x1000494A8, symSize: 0x24 }
  - { offsetInCU: 0x5AAE3, offset: 0x6C6CE, size: 0x8, addend: 0x0, symName: __ZNSt3__19__launderB8ue170006IN5boost5beast14buffers_suffixINS2_16buffers_cat_viewIJNS1_4asio12const_bufferES6_NS2_4http10chunk_crlfEEEEEEEEPT_SC_, symObjAddr: 0x45998, symBinAddr: 0x1000494CC, symSize: 0x14 }
  - { offsetInCU: 0x5AB1B, offset: 0x6C706, size: 0x8, addend: 0x0, symName: __ZNSt3__17launderB8ue170006IKPKN5boost4asio12const_bufferEEEPT_S8_, symObjAddr: 0x466A8, symBinAddr: 0x10004A1DC, symSize: 0x24 }
  - { offsetInCU: 0x5AB55, offset: 0x6C740, size: 0x8, addend: 0x0, symName: __ZNSt3__19__launderB8ue170006IKPKN5boost4asio12const_bufferEEEPT_S8_, symObjAddr: 0x466CC, symBinAddr: 0x10004A200, symSize: 0x14 }
  - { offsetInCU: 0x5AB8D, offset: 0x6C778, size: 0x8, addend: 0x0, symName: __ZNSt3__17launderB8ue170006IKN5boost5beast4http12basic_fieldsINS_9allocatorIcEEE6writer14field_iteratorEEEPT_SC_, symObjAddr: 0x46704, symBinAddr: 0x10004A238, symSize: 0x24 }
  - { offsetInCU: 0x5ABC7, offset: 0x6C7B2, size: 0x8, addend: 0x0, symName: __ZNSt3__19__launderB8ue170006IKN5boost5beast4http12basic_fieldsINS_9allocatorIcEEE6writer14field_iteratorEEEPT_SC_, symObjAddr: 0x46728, symBinAddr: 0x10004A25C, symSize: 0x14 }
  - { offsetInCU: 0x5ABFF, offset: 0x6C7EA, size: 0x8, addend: 0x0, symName: __ZNSt3__17launderB8ue170006IKN5boost5beast6detail30buffers_cat_view_iterator_base8past_endEEEPT_S8_, symObjAddr: 0x46760, symBinAddr: 0x10004A294, symSize: 0x24 }
  - { offsetInCU: 0x5AC39, offset: 0x6C824, size: 0x8, addend: 0x0, symName: __ZNSt3__19__launderB8ue170006IKN5boost5beast6detail30buffers_cat_view_iterator_base8past_endEEEPT_S8_, symObjAddr: 0x46784, symBinAddr: 0x10004A2B8, symSize: 0x14 }
  - { offsetInCU: 0x5AC71, offset: 0x6C85C, size: 0x8, addend: 0x0, symName: __ZNSt3__17launderB8ue170006IN5boost5beast19buffers_prefix_viewIRKNS2_14buffers_suffixINS2_6detail11buffers_refINS2_16buffers_cat_viewIJNS1_4asio12const_bufferES9_S9_NS2_4http12basic_fieldsINS_9allocatorIcEEE6writer11field_rangeENSA_10chunk_crlfEEEEEEEEEEEEPT_SP_, symObjAddr: 0x48FF0, symBinAddr: 0x10004CB24, symSize: 0x24 }
  - { offsetInCU: 0x5ACAB, offset: 0x6C896, size: 0x8, addend: 0x0, symName: __ZNSt3__19__launderB8ue170006IN5boost5beast19buffers_prefix_viewIRKNS2_14buffers_suffixINS2_6detail11buffers_refINS2_16buffers_cat_viewIJNS1_4asio12const_bufferES9_S9_NS2_4http12basic_fieldsINS_9allocatorIcEEE6writer11field_rangeENSA_10chunk_crlfEEEEEEEEEEEEPT_SP_, symObjAddr: 0x49014, symBinAddr: 0x10004CB48, symSize: 0x14 }
  - { offsetInCU: 0x5ACE3, offset: 0x6C8CE, size: 0x8, addend: 0x0, symName: __ZNSt3__17launderB8ue170006IN5boost5beast19buffers_prefix_viewIRKNS2_14buffers_suffixINS2_16buffers_cat_viewIJNS2_6detail11buffers_refINS5_IJNS1_4asio12const_bufferES9_S9_NS2_4http12basic_fieldsINS_9allocatorIcEEE6writer11field_rangeENSA_10chunk_crlfEEEEEES9_EEEEEEEEEPT_SQ_, symObjAddr: 0x49100, symBinAddr: 0x10004CC34, symSize: 0x24 }
  - { offsetInCU: 0x5AD1D, offset: 0x6C908, size: 0x8, addend: 0x0, symName: __ZNSt3__19__launderB8ue170006IN5boost5beast19buffers_prefix_viewIRKNS2_14buffers_suffixINS2_16buffers_cat_viewIJNS2_6detail11buffers_refINS5_IJNS1_4asio12const_bufferES9_S9_NS2_4http12basic_fieldsINS_9allocatorIcEEE6writer11field_rangeENSA_10chunk_crlfEEEEEES9_EEEEEEEEEPT_SQ_, symObjAddr: 0x49124, symBinAddr: 0x10004CC58, symSize: 0x14 }
  - { offsetInCU: 0x5AD55, offset: 0x6C940, size: 0x8, addend: 0x0, symName: __ZNSt3__17launderB8ue170006IN5boost5beast19buffers_prefix_viewIRKNS2_14buffers_suffixINS1_4asio12const_bufferEEEEEEEPT_SC_, symObjAddr: 0x491E4, symBinAddr: 0x10004CD18, symSize: 0x24 }
  - { offsetInCU: 0x5AD8F, offset: 0x6C97A, size: 0x8, addend: 0x0, symName: __ZNSt3__19__launderB8ue170006IN5boost5beast19buffers_prefix_viewIRKNS2_14buffers_suffixINS1_4asio12const_bufferEEEEEEEPT_SC_, symObjAddr: 0x49208, symBinAddr: 0x10004CD3C, symSize: 0x14 }
  - { offsetInCU: 0x5ADC7, offset: 0x6C9B2, size: 0x8, addend: 0x0, symName: __ZNSt3__17launderB8ue170006IN5boost5beast19buffers_prefix_viewIRKNS2_14buffers_suffixINS2_16buffers_cat_viewIJNS2_6detail11buffers_refINS5_IJNS1_4asio12const_bufferES9_S9_NS2_4http12basic_fieldsINS_9allocatorIcEEE6writer11field_rangeENSA_10chunk_crlfEEEEEENSA_6detail10chunk_sizeES9_SH_S9_SH_EEEEEEEEEPT_SS_, symObjAddr: 0x4926C, symBinAddr: 0x10004CDA0, symSize: 0x24 }
  - { offsetInCU: 0x5AE01, offset: 0x6C9EC, size: 0x8, addend: 0x0, symName: __ZNSt3__19__launderB8ue170006IN5boost5beast19buffers_prefix_viewIRKNS2_14buffers_suffixINS2_16buffers_cat_viewIJNS2_6detail11buffers_refINS5_IJNS1_4asio12const_bufferES9_S9_NS2_4http12basic_fieldsINS_9allocatorIcEEE6writer11field_rangeENSA_10chunk_crlfEEEEEENSA_6detail10chunk_sizeES9_SH_S9_SH_EEEEEEEEEPT_SS_, symObjAddr: 0x49290, symBinAddr: 0x10004CDC4, symSize: 0x14 }
  - { offsetInCU: 0x5AE39, offset: 0x6CA24, size: 0x8, addend: 0x0, symName: __ZNSt3__17launderB8ue170006IN5boost5beast19buffers_prefix_viewIRKNS2_14buffers_suffixINS2_16buffers_cat_viewIJNS2_4http6detail10chunk_sizeENS1_4asio12const_bufferENS6_10chunk_crlfESA_SB_EEEEEEEEEPT_SI_, symObjAddr: 0x4937C, symBinAddr: 0x10004CEB0, symSize: 0x24 }
  - { offsetInCU: 0x5AE73, offset: 0x6CA5E, size: 0x8, addend: 0x0, symName: __ZNSt3__19__launderB8ue170006IN5boost5beast19buffers_prefix_viewIRKNS2_14buffers_suffixINS2_16buffers_cat_viewIJNS2_4http6detail10chunk_sizeENS1_4asio12const_bufferENS6_10chunk_crlfESA_SB_EEEEEEEEEPT_SI_, symObjAddr: 0x493A0, symBinAddr: 0x10004CED4, symSize: 0x14 }
  - { offsetInCU: 0x5AEAB, offset: 0x6CA96, size: 0x8, addend: 0x0, symName: __ZNSt3__17launderB8ue170006IN5boost5beast19buffers_prefix_viewIRKNS2_14buffers_suffixINS2_16buffers_cat_viewIJNS2_4http6detail10chunk_sizeENS1_4asio12const_bufferENS6_10chunk_crlfESA_SB_SA_SA_SB_EEEEEEEEEPT_SI_, symObjAddr: 0x4948C, symBinAddr: 0x10004CFC0, symSize: 0x24 }
  - { offsetInCU: 0x5AEE5, offset: 0x6CAD0, size: 0x8, addend: 0x0, symName: __ZNSt3__19__launderB8ue170006IN5boost5beast19buffers_prefix_viewIRKNS2_14buffers_suffixINS2_16buffers_cat_viewIJNS2_4http6detail10chunk_sizeENS1_4asio12const_bufferENS6_10chunk_crlfESA_SB_SA_SA_SB_EEEEEEEEEPT_SI_, symObjAddr: 0x494B0, symBinAddr: 0x10004CFE4, symSize: 0x14 }
  - { offsetInCU: 0x5AF1D, offset: 0x6CB08, size: 0x8, addend: 0x0, symName: __ZNSt3__17launderB8ue170006IN5boost5beast19buffers_prefix_viewIRKNS2_14buffers_suffixINS2_16buffers_cat_viewIJNS2_6detail11buffers_refINS5_IJNS1_4asio12const_bufferES9_S9_NS2_4http12basic_fieldsINS_9allocatorIcEEE6writer11field_rangeENSA_10chunk_crlfEEEEEENSA_6detail10chunk_sizeES9_SH_S9_SH_S9_S9_SH_EEEEEEEEEPT_SS_, symObjAddr: 0x4959C, symBinAddr: 0x10004D0D0, symSize: 0x24 }
  - { offsetInCU: 0x5AF57, offset: 0x6CB42, size: 0x8, addend: 0x0, symName: __ZNSt3__19__launderB8ue170006IN5boost5beast19buffers_prefix_viewIRKNS2_14buffers_suffixINS2_16buffers_cat_viewIJNS2_6detail11buffers_refINS5_IJNS1_4asio12const_bufferES9_S9_NS2_4http12basic_fieldsINS_9allocatorIcEEE6writer11field_rangeENSA_10chunk_crlfEEEEEENSA_6detail10chunk_sizeES9_SH_S9_SH_S9_S9_SH_EEEEEEEEEPT_SS_, symObjAddr: 0x495C0, symBinAddr: 0x10004D0F4, symSize: 0x14 }
  - { offsetInCU: 0x5AF8F, offset: 0x6CB7A, size: 0x8, addend: 0x0, symName: __ZNSt3__17launderB8ue170006IN5boost5beast19buffers_prefix_viewIRKNS2_14buffers_suffixINS2_16buffers_cat_viewIJNS1_4asio12const_bufferES7_NS2_4http10chunk_crlfEEEEEEEEEEPT_SG_, symObjAddr: 0x496AC, symBinAddr: 0x10004D1E0, symSize: 0x24 }
  - { offsetInCU: 0x5AFC9, offset: 0x6CBB4, size: 0x8, addend: 0x0, symName: __ZNSt3__19__launderB8ue170006IN5boost5beast19buffers_prefix_viewIRKNS2_14buffers_suffixINS2_16buffers_cat_viewIJNS1_4asio12const_bufferES7_NS2_4http10chunk_crlfEEEEEEEEEEPT_SG_, symObjAddr: 0x496D0, symBinAddr: 0x10004D204, symSize: 0x14 }
  - { offsetInCU: 0x5B001, offset: 0x6CBEC, size: 0x8, addend: 0x0, symName: __ZNSt3__17launderB8ue170006IKN5boost5beast16buffers_cat_viewIJNS1_4asio12const_bufferES5_S5_NS2_4http12basic_fieldsINS_9allocatorIcEEE6writer11field_rangeENS6_10chunk_crlfEEE14const_iteratorEEEPT_SI_, symObjAddr: 0x4A1A0, symBinAddr: 0x10004DCD4, symSize: 0x24 }
  - { offsetInCU: 0x5B03B, offset: 0x6CC26, size: 0x8, addend: 0x0, symName: __ZNSt3__19__launderB8ue170006IKN5boost5beast16buffers_cat_viewIJNS1_4asio12const_bufferES5_S5_NS2_4http12basic_fieldsINS_9allocatorIcEEE6writer11field_rangeENS6_10chunk_crlfEEE14const_iteratorEEEPT_SI_, symObjAddr: 0x4A1C4, symBinAddr: 0x10004DCF8, symSize: 0x14 }
  - { offsetInCU: 0x5B073, offset: 0x6CC5E, size: 0x8, addend: 0x0, symName: __ZNSt3__111make_sharedB8ue170006IN5boost5beast4http6detail10chunk_size8sequenceEJRmEvEENS_10shared_ptrIT_EEDpOT0_, symObjAddr: 0x4EC60, symBinAddr: 0x100052794, symSize: 0x40 }
  - { offsetInCU: 0x5B0BA, offset: 0x6CCA5, size: 0x8, addend: 0x0, symName: __ZNSt3__115allocate_sharedB8ue170006IN5boost5beast4http6detail10chunk_size8sequenceENS_9allocatorIS6_EEJRmEvEENS_10shared_ptrIT_EERKT0_DpOT1_, symObjAddr: 0x4ECA0, symBinAddr: 0x1000527D4, symSize: 0x98 }
  - { offsetInCU: 0x5B494, offset: 0x6D07F, size: 0x8, addend: 0x0, symName: __ZNSt3__112construct_atB8ue170006IN5boost5beast4http6detail10chunk_size8sequenceEJRmEPS6_EEPT_SA_DpOT0_, symObjAddr: 0x4F370, symBinAddr: 0x100052EA4, symSize: 0x40 }
  - { offsetInCU: 0x5B50E, offset: 0x6D0F9, size: 0x8, addend: 0x0, symName: __ZNSt3__110destroy_atB8ue170006IN5boost5beast4http6detail10chunk_size8sequenceELi0EEEvPT_, symObjAddr: 0x4F59C, symBinAddr: 0x1000530D0, symSize: 0x24 }
  - { offsetInCU: 0x5B54A, offset: 0x6D135, size: 0x8, addend: 0x0, symName: __ZNSt3__112__destroy_atB8ue170006IN5boost5beast4http6detail10chunk_size8sequenceELi0EEEvPT_, symObjAddr: 0x4F5C0, symBinAddr: 0x1000530F4, symSize: 0x10 }
  - { offsetInCU: 0x5B5B7, offset: 0x6D1A2, size: 0x8, addend: 0x0, symName: __ZNSt3__14prevB8ue170006IN5boost9intrusive13tree_iteratorINS2_8bhtraitsINS1_5beast4http12basic_fieldsINS_9allocatorIcEEE7elementENS2_18rbtree_node_traitsIPvLb0EEELNS2_14link_mode_typeE0ENS2_7dft_tagELj3EEELb0EEEEENS_9enable_ifIXsr29__has_input_iterator_categoryIT_EE5valueESK_E4typeESK_NS_15iterator_traitsISK_E15difference_typeE, symObjAddr: 0x66C60, symBinAddr: 0x10006A794, symSize: 0x4C }
  - { offsetInCU: 0x5B704, offset: 0x6D2EF, size: 0x8, addend: 0x0, symName: __ZNSt3__19__advanceB8ue170006IN5boost9intrusive13tree_iteratorINS2_8bhtraitsINS1_5beast4http12basic_fieldsINS_9allocatorIcEEE7elementENS2_18rbtree_node_traitsIPvLb0EEELNS2_14link_mode_typeE0ENS2_7dft_tagELj3EEELb0EEEEEvRT_NS_15iterator_traitsISJ_E15difference_typeENS_26bidirectional_iterator_tagE, symObjAddr: 0x6755C, symBinAddr: 0x10006B090, symSize: 0xA4 }
  - { offsetInCU: 0x5B756, offset: 0x6D341, size: 0x8, addend: 0x0, symName: __ZNSt3__125__throw_bad_function_callB8ue170006Ev, symObjAddr: 0x67F18, symBinAddr: 0x10006BA4C, symSize: 0x38 }
  - { offsetInCU: 0x5B7AB, offset: 0x6D396, size: 0x8, addend: 0x0, symName: __ZNSt3__14nextB8ue170006IPKN5boost4asio14mutable_bufferEEENS_9enable_ifIXsr29__has_input_iterator_categoryIT_EE5valueES7_E4typeES7_NS_15iterator_traitsIS7_E15difference_typeE, symObjAddr: 0x68D78, symBinAddr: 0x10006C8AC, symSize: 0x34 }
  - { offsetInCU: 0x5B7F5, offset: 0x6D3E0, size: 0x8, addend: 0x0, symName: __ZNSt3__19__advanceB8ue170006IPKN5boost4asio14mutable_bufferEEEvRT_NS_15iterator_traitsIS6_E15difference_typeENS_26random_access_iterator_tagE, symObjAddr: 0x6956C, symBinAddr: 0x10006D0A0, symSize: 0x28 }
  - { offsetInCU: 0x5B845, offset: 0x6D430, size: 0x8, addend: 0x0, symName: __ZNSt3__13tieB8ue170006IJPKcbEEENS_5tupleIJDpRT_EEES6_, symObjAddr: 0x6BEFC, symBinAddr: 0x10006FA30, symSize: 0x38 }
  - { offsetInCU: 0x5BD59, offset: 0x6D944, size: 0x8, addend: 0x0, symName: __ZNSt3__13getB8ue170006ILm0EJRPKcRbEEERNS_13tuple_elementIXT_ENS_5tupleIJDpT0_EEEE4typeERS9_, symObjAddr: 0x6C378, symBinAddr: 0x10006FEAC, symSize: 0x24 }
  - { offsetInCU: 0x5BDA5, offset: 0x6D990, size: 0x8, addend: 0x0, symName: __ZNSt3__13getB8ue170006ILm1EJRPKcRbEEERNS_13tuple_elementIXT_ENS_5tupleIJDpT0_EEEE4typeERS9_, symObjAddr: 0x6C39C, symBinAddr: 0x10006FED0, symSize: 0x28 }
  - { offsetInCU: 0x5BDF1, offset: 0x6D9DC, size: 0x8, addend: 0x0, symName: __ZNSt3__15countB8ue170006IPKccEENS_15iterator_traitsIT_E15difference_typeES4_S4_RKT0_, symObjAddr: 0x6C9B8, symBinAddr: 0x1000704EC, symSize: 0x80 }
  - { offsetInCU: 0x5BE63, offset: 0x6DA4E, size: 0x8, addend: 0x0, symName: __ZNSt3__17find_ifB8ue170006IN5boost5beast4http10token_list14const_iteratorEZNS3_12basic_parserILb0EE8do_fieldENS3_5fieldENS1_4core17basic_string_viewIcEERNS1_6system10error_codeEEUlRKSB_E_EET_SI_SI_T0_, symObjAddr: 0x6CD4C, symBinAddr: 0x100070880, symSize: 0x84 }
  - { offsetInCU: 0x5C0F9, offset: 0x6DCE4, size: 0x8, addend: 0x0, symName: __ZNSt3__14swapB8ue170006IN5boost9intrusive18tree_value_compareIPNS1_5beast4http12basic_fieldsINS_9allocatorIcEEE7elementENS9_11key_compareENS1_11move_detail8identityISA_EEbLb1EEEEENS_9enable_ifIXaasr21is_move_constructibleIT_EE5valuesr18is_move_assignableISI_EE5valueEvE4typeERSI_SL_, symObjAddr: 0x71270, symBinAddr: 0x100074DA4, symSize: 0x48 }
  - { offsetInCU: 0x5C152, offset: 0x6DD3D, size: 0x8, addend: 0x0, symName: __ZNSt3__17find_ifB8ue170006IN5boost5beast4http10token_list14const_iteratorEZNS4_6existsERKNS1_4core17basic_string_viewIcEEEUlSA_E_EET_SC_SC_T0_, symObjAddr: 0x73068, symBinAddr: 0x100076B9C, symSize: 0x88 }
  - { offsetInCU: 0x5CAAF, offset: 0x6E69A, size: 0x8, addend: 0x0, symName: __ZSt18make_exception_ptrB8ue170006IN5boost4asio19multiple_exceptionsEESt13exception_ptrT_, symObjAddr: 0x12A04, symBinAddr: 0x100016538, symSize: 0x88 }
  - { offsetInCU: 0x5CAE6, offset: 0x6E6D1, size: 0x8, addend: 0x0, symName: __ZSt28__throw_bad_array_new_lengthB8ue170006v, symObjAddr: 0x1D710, symBinAddr: 0x100021244, symSize: 0x34 }
  - { offsetInCU: 0x5DAD7, offset: 0x6F6C2, size: 0x8, addend: 0x0, symName: __ZN5boost6system6detail18interop_cat_holderIvE8instanceE, symObjAddr: 0x8A950, symBinAddr: 0x1000A4230, symSize: 0x0 }
  - { offsetInCU: 0x5DAF4, offset: 0x6F6DF, size: 0x8, addend: 0x0, symName: __ZNK5boost6system10error_code8locationEv, symObjAddr: 0x5C40, symBinAddr: 0x10000A538, symSize: 0x54 }
  - { offsetInCU: 0x5DB19, offset: 0x6F704, size: 0x8, addend: 0x0, symName: __ZZNK5boost6system10error_code8locationEvE3loc, symObjAddr: 0x885C8, symBinAddr: 0x10009E388, symSize: 0x0 }
  - { offsetInCU: 0x5DB31, offset: 0x6F71C, size: 0x8, addend: 0x0, symName: __ZN5boost4asio6detail14kqueue_reactor3runElRNS1_8op_queueINS1_19scheduler_operationEEE, symObjAddr: 0x7F04, symBinAddr: 0x10000C7FC, symSize: 0x4BC }
  - { offsetInCU: 0x5DB59, offset: 0x6F744, size: 0x8, addend: 0x0, symName: __ZZN5boost4asio6detail14kqueue_reactor3runElRNS1_8op_queueINS1_19scheduler_operationEEEE6filter, symObjAddr: 0x86744, symBinAddr: 0x1000923A4, symSize: 0x0 }
  - { offsetInCU: 0x5DCCE, offset: 0x6F8B9, size: 0x8, addend: 0x0, symName: __ZN5boost4asio3ssl6detail17openssl_init_base8instanceEv, symObjAddr: 0xF6EC, symBinAddr: 0x100013220, symSize: 0x108 }
  - { offsetInCU: 0x5DCEF, offset: 0x6F8DA, size: 0x8, addend: 0x0, symName: __ZZN5boost4asio3ssl6detail17openssl_init_base8instanceEvE4init, symObjAddr: 0x8A990, symBinAddr: 0x1000A4268, symSize: 0x0 }
  - { offsetInCU: 0x5DDFE, offset: 0x6F9E9, size: 0x8, addend: 0x0, symName: __ZN5boost4asio9execution6detail17any_executor_base16target_fns_tableINS0_10io_context19basic_executor_typeINSt3__19allocatorIvEELm0EEEEEPKNS3_10target_fnsEbPNS7_9enable_ifIXntsr7is_sameIT_vEE5valueEvE4typeE, symObjAddr: 0x11ED8, symBinAddr: 0x100015A0C, symSize: 0x3C }
  - { offsetInCU: 0x5DE1F, offset: 0x6FA0A, size: 0x8, addend: 0x0, symName: __ZZN5boost4asio9execution6detail17any_executor_base16target_fns_tableINS0_10io_context19basic_executor_typeINSt3__19allocatorIvEELm0EEEEEPKNS3_10target_fnsEbPNS7_9enable_ifIXntsr7is_sameIT_vEE5valueEvE4typeEE16fns_with_execute, symObjAddr: 0x88B28, symBinAddr: 0x10009E8E8, symSize: 0x0 }
  - { offsetInCU: 0x5DE36, offset: 0x6FA21, size: 0x8, addend: 0x0, symName: __ZZN5boost4asio9execution6detail17any_executor_base16target_fns_tableINS0_10io_context19basic_executor_typeINSt3__19allocatorIvEELm0EEEEEPKNS3_10target_fnsEbPNS7_9enable_ifIXntsr7is_sameIT_vEE5valueEvE4typeEE25fns_with_blocking_execute, symObjAddr: 0x88B48, symBinAddr: 0x10009E908, symSize: 0x0 }
  - { offsetInCU: 0x5DE75, offset: 0x6FA60, size: 0x8, addend: 0x0, symName: __ZN19boost_asio_query_fn15static_instanceINS_4implEE8instanceE, symObjAddr: 0x86BBF, symBinAddr: 0x10009281F, symSize: 0x0 }
  - { offsetInCU: 0x5E3BC, offset: 0x6FFA7, size: 0x8, addend: 0x0, symName: __ZN5boost4asio9execution6detail17any_executor_base16object_fns_tableINS0_10io_context19basic_executor_typeINSt3__19allocatorIvEELm0EEEEEPKNS3_10object_fnsEPNS7_9enable_ifIXaantsr7is_sameIT_vEE5valuentsr7is_sameISF_NS2_22shared_target_executorEEE5valueEvE4typeE, symObjAddr: 0x143E8, symBinAddr: 0x100017F1C, symSize: 0x18 }
  - { offsetInCU: 0x5E3DD, offset: 0x6FFC8, size: 0x8, addend: 0x0, symName: __ZZN5boost4asio9execution6detail17any_executor_base16object_fns_tableINS0_10io_context19basic_executor_typeINSt3__19allocatorIvEELm0EEEEEPKNS3_10object_fnsEPNS7_9enable_ifIXaantsr7is_sameIT_vEE5valuentsr7is_sameISF_NS2_22shared_target_executorEEE5valueEvE4typeEE3fns, symObjAddr: 0x88CE8, symBinAddr: 0x10009EAA8, symSize: 0x0 }
  - { offsetInCU: 0x5E52B, offset: 0x70116, size: 0x8, addend: 0x0, symName: __ZN5boost4asio9execution12any_executorIJNS1_12context_as_tIRNS0_17execution_contextEEENS1_6detail8blocking7never_tILi0EEENS1_11prefer_onlyINS8_10possibly_tILi0EEEEENSB_INS7_16outstanding_work9tracked_tILi0EEEEENSB_INSF_11untracked_tILi0EEEEENSB_INS7_12relationship6fork_tILi0EEEEENSB_INSM_14continuation_tILi0EEEEEEE14prop_fns_tableINS0_10io_context19basic_executor_typeINSt3__19allocatorIvEELm0EEEEEPKNS7_17any_executor_base8prop_fnsIST_EEv, symObjAddr: 0x11E74, symBinAddr: 0x1000159A8, symSize: 0xC }
  - { offsetInCU: 0x5E54C, offset: 0x70137, size: 0x8, addend: 0x0, symName: __ZZN5boost4asio9execution12any_executorIJNS1_12context_as_tIRNS0_17execution_contextEEENS1_6detail8blocking7never_tILi0EEENS1_11prefer_onlyINS8_10possibly_tILi0EEEEENSB_INS7_16outstanding_work9tracked_tILi0EEEEENSB_INSF_11untracked_tILi0EEEEENSB_INS7_12relationship6fork_tILi0EEEEENSB_INSM_14continuation_tILi0EEEEEEE14prop_fns_tableINS0_10io_context19basic_executor_typeINSt3__19allocatorIvEELm0EEEEEPKNS7_17any_executor_base8prop_fnsIST_EEvE3fns, symObjAddr: 0x88D08, symBinAddr: 0x10009EAC8, symSize: 0x0 }
  - { offsetInCU: 0x5E571, offset: 0x7015C, size: 0x8, addend: 0x0, symName: __ZN5boost4asio9execution12any_executorIJNS1_12context_as_tIRNS0_17execution_contextEEENS1_6detail8blocking7never_tILi0EEENS1_11prefer_onlyINS8_10possibly_tILi0EEEEENSB_INS7_16outstanding_work9tracked_tILi0EEEEENSB_INSF_11untracked_tILi0EEEEENSB_INS7_12relationship6fork_tILi0EEEEENSB_INSM_14continuation_tILi0EEEEEEE14prop_fns_tableIvEEPKNS7_17any_executor_base8prop_fnsIST_EEv, symObjAddr: 0x14C34, symBinAddr: 0x100018768, symSize: 0xC }
  - { offsetInCU: 0x5E592, offset: 0x7017D, size: 0x8, addend: 0x0, symName: __ZZN5boost4asio9execution12any_executorIJNS1_12context_as_tIRNS0_17execution_contextEEENS1_6detail8blocking7never_tILi0EEENS1_11prefer_onlyINS8_10possibly_tILi0EEEEENSB_INS7_16outstanding_work9tracked_tILi0EEEEENSB_INSF_11untracked_tILi0EEEEENSB_INS7_12relationship6fork_tILi0EEEEENSB_INSM_14continuation_tILi0EEEEEEE14prop_fns_tableIvEEPKNS7_17any_executor_base8prop_fnsIST_EEvE3fns, symObjAddr: 0x88DB0, symBinAddr: 0x10009EB70, symSize: 0x0 }
  - { offsetInCU: 0x5E5AC, offset: 0x70197, size: 0x8, addend: 0x0, symName: __ZN21boost_asio_require_fn15static_instanceINS_4implEE8instanceE, symObjAddr: 0x86C21, symBinAddr: 0x100092881, symSize: 0x0 }
  - { offsetInCU: 0x5E659, offset: 0x70244, size: 0x8, addend: 0x0, symName: __ZN20boost_asio_prefer_fn15static_instanceINS_4implEE8instanceE, symObjAddr: 0x86C22, symBinAddr: 0x100092882, symSize: 0x0 }
  - { offsetInCU: 0x5EC0F, offset: 0x707FA, size: 0x8, addend: 0x0, symName: __ZN5boost4asio9execution11prefer_onlyINS1_6detail16outstanding_work9tracked_tILi0EEEE14static_query_vINS0_10io_context19basic_executor_typeINSt3__19allocatorIvEELm0EEEKNS3_18outstanding_work_tILi0EEEEE, symObjAddr: 0x86C24, symBinAddr: 0x100092884, symSize: 0x0 }
  - { offsetInCU: 0x5EC3A, offset: 0x70825, size: 0x8, addend: 0x0, symName: __ZN5boost4asio9execution6detail17any_executor_base16target_fns_tableINS0_10io_context19basic_executor_typeINSt3__19allocatorIvEELm4EEEEEPKNS3_10target_fnsEbPNS7_9enable_ifIXntsr7is_sameIT_vEE5valueEvE4typeE, symObjAddr: 0x16AF0, symBinAddr: 0x10001A624, symSize: 0x3C }
  - { offsetInCU: 0x5EC5B, offset: 0x70846, size: 0x8, addend: 0x0, symName: __ZZN5boost4asio9execution6detail17any_executor_base16target_fns_tableINS0_10io_context19basic_executor_typeINSt3__19allocatorIvEELm4EEEEEPKNS3_10target_fnsEbPNS7_9enable_ifIXntsr7is_sameIT_vEE5valueEvE4typeEE16fns_with_execute, symObjAddr: 0x88F58, symBinAddr: 0x10009ED18, symSize: 0x0 }
  - { offsetInCU: 0x5EC72, offset: 0x7085D, size: 0x8, addend: 0x0, symName: __ZZN5boost4asio9execution6detail17any_executor_base16target_fns_tableINS0_10io_context19basic_executor_typeINSt3__19allocatorIvEELm4EEEEEPKNS3_10target_fnsEbPNS7_9enable_ifIXntsr7is_sameIT_vEE5valueEvE4typeEE25fns_with_blocking_execute, symObjAddr: 0x88F78, symBinAddr: 0x10009ED38, symSize: 0x0 }
  - { offsetInCU: 0x5ECA7, offset: 0x70892, size: 0x8, addend: 0x0, symName: __ZN5boost4asio9execution6detail17any_executor_base16object_fns_tableINS0_10io_context19basic_executor_typeINSt3__19allocatorIvEELm4EEEEEPKNS3_10object_fnsEPNS7_9enable_ifIXaantsr7is_sameIT_vEE5valuentsr7is_sameISF_NS2_22shared_target_executorEEE5valueEvE4typeE, symObjAddr: 0x171DC, symBinAddr: 0x10001AD10, symSize: 0x18 }
  - { offsetInCU: 0x5ECC8, offset: 0x708B3, size: 0x8, addend: 0x0, symName: __ZZN5boost4asio9execution6detail17any_executor_base16object_fns_tableINS0_10io_context19basic_executor_typeINSt3__19allocatorIvEELm4EEEEEPKNS3_10object_fnsEPNS7_9enable_ifIXaantsr7is_sameIT_vEE5valuentsr7is_sameISF_NS2_22shared_target_executorEEE5valueEvE4typeEE3fns, symObjAddr: 0x88FD0, symBinAddr: 0x10009ED90, symSize: 0x0 }
  - { offsetInCU: 0x5ECE8, offset: 0x708D3, size: 0x8, addend: 0x0, symName: __ZN5boost4asio9execution12any_executorIJNS1_12context_as_tIRNS0_17execution_contextEEENS1_6detail8blocking7never_tILi0EEENS1_11prefer_onlyINS8_10possibly_tILi0EEEEENSB_INS7_16outstanding_work9tracked_tILi0EEEEENSB_INSF_11untracked_tILi0EEEEENSB_INS7_12relationship6fork_tILi0EEEEENSB_INSM_14continuation_tILi0EEEEEEE14prop_fns_tableINS0_10io_context19basic_executor_typeINSt3__19allocatorIvEELm4EEEEEPKNS7_17any_executor_base8prop_fnsIST_EEv, symObjAddr: 0x16AB8, symBinAddr: 0x10001A5EC, symSize: 0xC }
  - { offsetInCU: 0x5ED09, offset: 0x708F4, size: 0x8, addend: 0x0, symName: __ZZN5boost4asio9execution12any_executorIJNS1_12context_as_tIRNS0_17execution_contextEEENS1_6detail8blocking7never_tILi0EEENS1_11prefer_onlyINS8_10possibly_tILi0EEEEENSB_INS7_16outstanding_work9tracked_tILi0EEEEENSB_INSF_11untracked_tILi0EEEEENSB_INS7_12relationship6fork_tILi0EEEEENSB_INSM_14continuation_tILi0EEEEEEE14prop_fns_tableINS0_10io_context19basic_executor_typeINSt3__19allocatorIvEELm4EEEEEPKNS7_17any_executor_base8prop_fnsIST_EEvE3fns, symObjAddr: 0x88FF0, symBinAddr: 0x10009EDB0, symSize: 0x0 }
  - { offsetInCU: 0x5ED23, offset: 0x7090E, size: 0x8, addend: 0x0, symName: __ZN5boost4asio9execution11prefer_onlyINS1_6detail16outstanding_work9tracked_tILi0EEEE14static_query_vINS0_10io_context19basic_executor_typeINSt3__19allocatorIvEELm4EEEKNS3_18outstanding_work_tILi0EEEEE, symObjAddr: 0x86C74, symBinAddr: 0x1000928D4, symSize: 0x0 }
  - { offsetInCU: 0x5ED4A, offset: 0x70935, size: 0x8, addend: 0x0, symName: __ZN5boost4asio9execution11prefer_onlyINS1_6detail16outstanding_work11untracked_tILi0EEEE14static_query_vINS0_10io_context19basic_executor_typeINSt3__19allocatorIvEELm4EEEKNS3_18outstanding_work_tILi0EEEEE, symObjAddr: 0x86C78, symBinAddr: 0x1000928D8, symSize: 0x0 }
  - { offsetInCU: 0x5ED76, offset: 0x70961, size: 0x8, addend: 0x0, symName: __ZN5boost4asio9execution11prefer_onlyINS1_6detail16outstanding_work11untracked_tILi0EEEE14static_query_vINS0_10io_context19basic_executor_typeINSt3__19allocatorIvEELm0EEEKNS3_18outstanding_work_tILi0EEEEE, symObjAddr: 0x86C84, symBinAddr: 0x1000928E4, symSize: 0x0 }
  - { offsetInCU: 0x5ED97, offset: 0x70982, size: 0x8, addend: 0x0, symName: __ZN5boost4asio6detail16resolver_serviceINS0_2ip3tcpEE7resolveERNSt3__110shared_ptrIvEERKNS3_20basic_resolver_queryIS4_EERNS_6system10error_codeE, symObjAddr: 0x1A3D8, symBinAddr: 0x10001DF0C, symSize: 0x298 }
  - { offsetInCU: 0x5EDBA, offset: 0x709A5, size: 0x8, addend: 0x0, symName: __ZZN5boost4asio6detail16resolver_serviceINS0_2ip3tcpEE7resolveERNSt3__110shared_ptrIvEERKNS3_20basic_resolver_queryIS4_EERNS_6system10error_codeEE3loc, symObjAddr: 0x890F8, symBinAddr: 0x10009EEB8, symSize: 0x0 }
  - { offsetInCU: 0x5F4C1, offset: 0x710AC, size: 0x8, addend: 0x0, symName: __ZN5boost5beast9websocket6detail9decorator6vtable11get_defaultEv, symObjAddr: 0x2A664, symBinAddr: 0x10002E198, symSize: 0xC }
  - { offsetInCU: 0x5F4E0, offset: 0x710CB, size: 0x8, addend: 0x0, symName: __ZZN5boost5beast9websocket6detail9decorator6vtable11get_defaultEvE4impl, symObjAddr: 0x89610, symBinAddr: 0x10009F3D0, symSize: 0x0 }
  - { offsetInCU: 0x5F4EB, offset: 0x710D6, size: 0x8, addend: 0x0, symName: __ZN5boost4asio6detail23reactive_socket_serviceINS0_2ip3tcpEE4openERNS5_19implementation_typeERKS4_RNS_6system10error_codeE, symObjAddr: 0x2C5C4, symBinAddr: 0x1000300F8, symSize: 0xDC }
  - { offsetInCU: 0x5F50E, offset: 0x710F9, size: 0x8, addend: 0x0, symName: __ZZN5boost4asio6detail23reactive_socket_serviceINS0_2ip3tcpEE4openERNS5_19implementation_typeERKS4_RNS_6system10error_codeEE3loc, symObjAddr: 0x89630, symBinAddr: 0x10009F3F0, symSize: 0x0 }
  - { offsetInCU: 0x5F550, offset: 0x7113B, size: 0x8, addend: 0x0, symName: __ZN5boost4asio6detail23reactive_socket_serviceINS0_2ip3tcpEE7connectERNS5_19implementation_typeERKNS3_14basic_endpointIS4_EERNS_6system10error_codeE, symObjAddr: 0x2C6A0, symBinAddr: 0x1000301D4, symSize: 0x94 }
  - { offsetInCU: 0x5F575, offset: 0x71160, size: 0x8, addend: 0x0, symName: __ZZN5boost4asio6detail23reactive_socket_serviceINS0_2ip3tcpEE7connectERNS5_19implementation_typeERKNS3_14basic_endpointIS4_EERNS_6system10error_codeEE3loc, symObjAddr: 0x89648, symBinAddr: 0x10009F408, symSize: 0x0 }
  - { offsetInCU: 0x6013D, offset: 0x71D28, size: 0x8, addend: 0x0, symName: __ZN5boost5beast9websocket6streamINS_4asio3ssl6streamINS3_19basic_stream_socketINS3_2ip3tcpENS3_15any_io_executorEEEEELb1EE12do_handshakeIPFvRNS0_4http7messageILb1ENSE_10empty_bodyENSE_12basic_fieldsINSt3__19allocatorIcEEEEEEEEEvPNSF_ILb0ENSE_17basic_string_bodyIcNSI_11char_traitsIcEESK_EESL_EENS_4core17basic_string_viewIcEESY_RKT_RNS_6system10error_codeE, symObjAddr: 0x2F098, symBinAddr: 0x100032BCC, symSize: 0x444 }
  - { offsetInCU: 0x60166, offset: 0x71D51, size: 0x8, addend: 0x0, symName: __ZZN5boost5beast9websocket6streamINS_4asio3ssl6streamINS3_19basic_stream_socketINS3_2ip3tcpENS3_15any_io_executorEEEEELb1EE12do_handshakeIPFvRNS0_4http7messageILb1ENSE_10empty_bodyENSE_12basic_fieldsINSt3__19allocatorIcEEEEEEEEEvPNSF_ILb0ENSE_17basic_string_bodyIcNSI_11char_traitsIcEESK_EESL_EENS_4core17basic_string_viewIcEESY_RKT_RNS_6system10error_codeEE7loc_285, symObjAddr: 0x89678, symBinAddr: 0x10009F438, symSize: 0x0 }
  - { offsetInCU: 0x60245, offset: 0x71E30, size: 0x8, addend: 0x0, symName: __ZN5boost5beast4http12basic_fieldsINSt3__19allocatorIcEEE22try_create_new_elementENS1_5fieldENS_4core17basic_string_viewIcEESA_RNS_6system10error_codeE, symObjAddr: 0x36E94, symBinAddr: 0x10003A9C8, symSize: 0x1C8 }
  - { offsetInCU: 0x6026F, offset: 0x71E5A, size: 0x8, addend: 0x0, symName: __ZZN5boost5beast4http12basic_fieldsINSt3__19allocatorIcEEE22try_create_new_elementENS1_5fieldENS_4core17basic_string_viewIcEESA_RNS_6system10error_codeEE7loc_958, symObjAddr: 0x89798, symBinAddr: 0x10009F558, symSize: 0x0 }
  - { offsetInCU: 0x60287, offset: 0x71E72, size: 0x8, addend: 0x0, symName: __ZZN5boost5beast4http12basic_fieldsINSt3__19allocatorIcEEE22try_create_new_elementENS1_5fieldENS_4core17basic_string_viewIcEESA_RNS_6system10error_codeEE7loc_963, symObjAddr: 0x897B0, symBinAddr: 0x10009F570, symSize: 0x0 }
  - { offsetInCU: 0x60599, offset: 0x72184, size: 0x8, addend: 0x0, symName: __ZNK5boost5beast4http10chunk_crlf5beginEv, symObjAddr: 0x474B8, symBinAddr: 0x10004AFEC, symSize: 0x84 }
  - { offsetInCU: 0x605BE, offset: 0x721A9, size: 0x8, addend: 0x0, symName: __ZZNK5boost5beast4http10chunk_crlf5beginEvE2cb, symObjAddr: 0x8FEC8, symBinAddr: 0x1000A97A0, symSize: 0x0 }
  - { offsetInCU: 0x605E0, offset: 0x721CB, size: 0x8, addend: 0x0, symName: __ZN5boost5beast6detail12static_constINS1_17buffer_bytes_implEE5valueE, symObjAddr: 0x87972, symBinAddr: 0x1000935D2, symSize: 0x0 }
  - { offsetInCU: 0x605F8, offset: 0x721E3, size: 0x8, addend: 0x0, symName: __ZN5boost5beast9websocket6streamINS_4asio3ssl6streamINS3_19basic_stream_socketINS3_2ip3tcpENS3_15any_io_executorEEEEELb1EE9impl_type14check_stop_nowERNS_6system10error_codeE, symObjAddr: 0x2FA50, symBinAddr: 0x100033584, symSize: 0x1B8 }
  - { offsetInCU: 0x6061E, offset: 0x72209, size: 0x8, addend: 0x0, symName: __ZZN5boost5beast9websocket6streamINS_4asio3ssl6streamINS3_19basic_stream_socketINS3_2ip3tcpENS3_15any_io_executorEEEEELb1EE9impl_type14check_stop_nowERNS_6system10error_codeEE7loc_346, symObjAddr: 0x89908, symBinAddr: 0x10009F6C8, symSize: 0x0 }
  - { offsetInCU: 0x60636, offset: 0x72221, size: 0x8, addend: 0x0, symName: __ZZN5boost5beast9websocket6streamINS_4asio3ssl6streamINS3_19basic_stream_socketINS3_2ip3tcpENS3_15any_io_executorEEEEELb1EE9impl_type14check_stop_nowERNS_6system10error_codeEE7loc_355, symObjAddr: 0x89920, symBinAddr: 0x10009F6E0, symSize: 0x0 }
  - { offsetInCU: 0x6064E, offset: 0x72239, size: 0x8, addend: 0x0, symName: __ZZN5boost5beast9websocket6streamINS_4asio3ssl6streamINS3_19basic_stream_socketINS3_2ip3tcpENS3_15any_io_executorEEEEELb1EE9impl_type14check_stop_nowERNS_6system10error_codeEE7loc_367, symObjAddr: 0x89938, symBinAddr: 0x10009F6F8, symSize: 0x0 }
  - { offsetInCU: 0x608B5, offset: 0x724A0, size: 0x8, addend: 0x0, symName: __ZN5boost5beast4http6parserILb0ENS1_17basic_string_bodyIcNSt3__111char_traitsIcEENS4_9allocatorIcEEEES8_E16on_response_implEiNS_4core17basic_string_viewIcEEiRNS_6system10error_codeENS4_17integral_constantIbLb1EEE, symObjAddr: 0x6652C, symBinAddr: 0x10006A060, symSize: 0xF4 }
  - { offsetInCU: 0x608DB, offset: 0x724C6, size: 0x8, addend: 0x0, symName: __ZZN5boost5beast4http6parserILb0ENS1_17basic_string_bodyIcNSt3__111char_traitsIcEENS4_9allocatorIcEEEES8_E16on_response_implEiNS_4core17basic_string_viewIcEEiRNS_6system10error_codeENS4_17integral_constantIbLb1EEEE7loc_408, symObjAddr: 0x89B78, symBinAddr: 0x10009F938, symSize: 0x0 }
  - { offsetInCU: 0x60944, offset: 0x7252F, size: 0x8, addend: 0x0, symName: __ZN5boost5beast4http17basic_string_bodyIcNSt3__111char_traitsIcEENS3_9allocatorIcEEE6reader4initERKNS_8optionalIyEERNS_6system10error_codeE, symObjAddr: 0x67638, symBinAddr: 0x10006B16C, symSize: 0xEC }
  - { offsetInCU: 0x60967, offset: 0x72552, size: 0x8, addend: 0x0, symName: __ZZN5boost5beast4http17basic_string_bodyIcNSt3__111char_traitsIcEENS3_9allocatorIcEEE6reader4initERKNS_8optionalIyEERNS_6system10error_codeEE7loc_105, symObjAddr: 0x89BA8, symBinAddr: 0x10009F968, symSize: 0x0 }
  - { offsetInCU: 0x6099B, offset: 0x72586, size: 0x8, addend: 0x0, symName: __ZN5boost5beast4http17basic_string_bodyIcNSt3__111char_traitsIcEENS3_9allocatorIcEEE6reader3putINS_4asio12const_bufferEEEmRKT_RNS_6system10error_codeE, symObjAddr: 0x67998, symBinAddr: 0x10006B4CC, symSize: 0x1D8 }
  - { offsetInCU: 0x609BE, offset: 0x725A9, size: 0x8, addend: 0x0, symName: __ZZN5boost5beast4http17basic_string_bodyIcNSt3__111char_traitsIcEENS3_9allocatorIcEEE6reader3putINS_4asio12const_bufferEEEmRKT_RNS_6system10error_codeEE7loc_122, symObjAddr: 0x89BC0, symBinAddr: 0x10009F980, symSize: 0x0 }
  - { offsetInCU: 0x60A7E, offset: 0x72669, size: 0x8, addend: 0x0, symName: __ZN5boost5beast4http12basic_parserILb0EE3putENS_4asio12const_bufferERNS_6system10error_codeE, symObjAddr: 0x68DAC, symBinAddr: 0x10006C8E0, symSize: 0x500 }
  - { offsetInCU: 0x60AA6, offset: 0x72691, size: 0x8, addend: 0x0, symName: __ZZN5boost5beast4http12basic_parserILb0EE3putENS_4asio12const_bufferERNS_6system10error_codeEE6loc_93, symObjAddr: 0x89C48, symBinAddr: 0x10009FA08, symSize: 0x0 }
  - { offsetInCU: 0x60ABD, offset: 0x726A8, size: 0x8, addend: 0x0, symName: __ZZN5boost5beast4http12basic_parserILb0EE3putENS_4asio12const_bufferERNS_6system10error_codeEE7loc_107, symObjAddr: 0x89C60, symBinAddr: 0x10009FA20, symSize: 0x0 }
  - { offsetInCU: 0x60B5D, offset: 0x72748, size: 0x8, addend: 0x0, symName: __ZN5boost5beast4http12basic_parserILb0EE16parse_start_lineERPKcmRNS_6system10error_codeE, symObjAddr: 0x69594, symBinAddr: 0x10006D0C8, symSize: 0x13C }
  - { offsetInCU: 0x60B87, offset: 0x72772, size: 0x8, addend: 0x0, symName: __ZZN5boost5beast4http12basic_parserILb0EE16parse_start_lineERPKcmRNS_6system10error_codeEE7loc_353, symObjAddr: 0x89C78, symBinAddr: 0x10009FA38, symSize: 0x0 }
  - { offsetInCU: 0x60BE3, offset: 0x727CE, size: 0x8, addend: 0x0, symName: __ZN5boost5beast4http12basic_parserILb0EE22inner_parse_start_lineERPKcS5_RNS_6system10error_codeENSt3__117integral_constantIbLb0EEE, symObjAddr: 0x6A190, symBinAddr: 0x10006DCC4, symSize: 0x24C }
  - { offsetInCU: 0x60C0D, offset: 0x727F8, size: 0x8, addend: 0x0, symName: __ZZN5boost5beast4http12basic_parserILb0EE22inner_parse_start_lineERPKcS5_RNS_6system10error_codeENSt3__117integral_constantIbLb0EEEE7loc_303, symObjAddr: 0x89C90, symBinAddr: 0x10009FA50, symSize: 0x0 }
  - { offsetInCU: 0x60C25, offset: 0x72810, size: 0x8, addend: 0x0, symName: __ZZN5boost5beast4http12basic_parserILb0EE22inner_parse_start_lineERPKcS5_RNS_6system10error_codeENSt3__117integral_constantIbLb0EEEE7loc_310, symObjAddr: 0x89CA8, symBinAddr: 0x10009FA68, symSize: 0x0 }
  - { offsetInCU: 0x60C3D, offset: 0x72828, size: 0x8, addend: 0x0, symName: __ZZN5boost5beast4http12basic_parserILb0EE22inner_parse_start_lineERPKcS5_RNS_6system10error_codeENSt3__117integral_constantIbLb0EEEE7loc_315, symObjAddr: 0x89CC0, symBinAddr: 0x10009FA80, symSize: 0x0 }
  - { offsetInCU: 0x60CC9, offset: 0x728B4, size: 0x8, addend: 0x0, symName: __ZN5boost5beast4http6detail17basic_parser_base13parse_versionERPKcS5_RiRNS_6system10error_codeE, symObjAddr: 0x6A3DC, symBinAddr: 0x10006DF10, symSize: 0x380 }
  - { offsetInCU: 0x60CEF, offset: 0x728DA, size: 0x8, addend: 0x0, symName: __ZZN5boost5beast4http6detail17basic_parser_base13parse_versionERPKcS5_RiRNS_6system10error_codeEE7loc_352, symObjAddr: 0x89CD8, symBinAddr: 0x10009FA98, symSize: 0x0 }
  - { offsetInCU: 0x60D07, offset: 0x728F2, size: 0x8, addend: 0x0, symName: __ZZN5boost5beast4http6detail17basic_parser_base13parse_versionERPKcS5_RiRNS_6system10error_codeEE7loc_357, symObjAddr: 0x89CF0, symBinAddr: 0x10009FAB0, symSize: 0x0 }
  - { offsetInCU: 0x60D1F, offset: 0x7290A, size: 0x8, addend: 0x0, symName: __ZZN5boost5beast4http6detail17basic_parser_base13parse_versionERPKcS5_RiRNS_6system10error_codeEE7loc_362, symObjAddr: 0x89D08, symBinAddr: 0x10009FAC8, symSize: 0x0 }
  - { offsetInCU: 0x60D37, offset: 0x72922, size: 0x8, addend: 0x0, symName: __ZZN5boost5beast4http6detail17basic_parser_base13parse_versionERPKcS5_RiRNS_6system10error_codeEE7loc_367, symObjAddr: 0x89D20, symBinAddr: 0x10009FAE0, symSize: 0x0 }
  - { offsetInCU: 0x60D4F, offset: 0x7293A, size: 0x8, addend: 0x0, symName: __ZZN5boost5beast4http6detail17basic_parser_base13parse_versionERPKcS5_RiRNS_6system10error_codeEE7loc_372, symObjAddr: 0x89D38, symBinAddr: 0x10009FAF8, symSize: 0x0 }
  - { offsetInCU: 0x60D67, offset: 0x72952, size: 0x8, addend: 0x0, symName: __ZZN5boost5beast4http6detail17basic_parser_base13parse_versionERPKcS5_RiRNS_6system10error_codeEE7loc_377, symObjAddr: 0x89D50, symBinAddr: 0x10009FB10, symSize: 0x0 }
  - { offsetInCU: 0x60D7F, offset: 0x7296A, size: 0x8, addend: 0x0, symName: __ZZN5boost5beast4http6detail17basic_parser_base13parse_versionERPKcS5_RiRNS_6system10error_codeEE7loc_382, symObjAddr: 0x89D68, symBinAddr: 0x10009FB28, symSize: 0x0 }
  - { offsetInCU: 0x60D97, offset: 0x72982, size: 0x8, addend: 0x0, symName: __ZZN5boost5beast4http6detail17basic_parser_base13parse_versionERPKcS5_RiRNS_6system10error_codeEE7loc_388, symObjAddr: 0x89D80, symBinAddr: 0x10009FB40, symSize: 0x0 }
  - { offsetInCU: 0x60DAF, offset: 0x7299A, size: 0x8, addend: 0x0, symName: __ZZN5boost5beast4http6detail17basic_parser_base13parse_versionERPKcS5_RiRNS_6system10error_codeEE7loc_393, symObjAddr: 0x89D98, symBinAddr: 0x10009FB58, symSize: 0x0 }
  - { offsetInCU: 0x60DFE, offset: 0x729E9, size: 0x8, addend: 0x0, symName: __ZN5boost5beast4http6detail17basic_parser_base12parse_statusERPKcS5_RtRNS_6system10error_codeE, symObjAddr: 0x6A75C, symBinAddr: 0x10006E290, symSize: 0x240 }
  - { offsetInCU: 0x60E24, offset: 0x72A0F, size: 0x8, addend: 0x0, symName: __ZZN5boost5beast4http6detail17basic_parser_base12parse_statusERPKcS5_RtRNS_6system10error_codeEE7loc_408, symObjAddr: 0x89DB0, symBinAddr: 0x10009FB70, symSize: 0x0 }
  - { offsetInCU: 0x60E3C, offset: 0x72A27, size: 0x8, addend: 0x0, symName: __ZZN5boost5beast4http6detail17basic_parser_base12parse_statusERPKcS5_RtRNS_6system10error_codeEE7loc_413, symObjAddr: 0x89DC8, symBinAddr: 0x10009FB88, symSize: 0x0 }
  - { offsetInCU: 0x60E54, offset: 0x72A3F, size: 0x8, addend: 0x0, symName: __ZZN5boost5beast4http6detail17basic_parser_base12parse_statusERPKcS5_RtRNS_6system10error_codeEE7loc_419, symObjAddr: 0x89DE0, symBinAddr: 0x10009FBA0, symSize: 0x0 }
  - { offsetInCU: 0x60E6C, offset: 0x72A57, size: 0x8, addend: 0x0, symName: __ZZN5boost5beast4http6detail17basic_parser_base12parse_statusERPKcS5_RtRNS_6system10error_codeEE7loc_425, symObjAddr: 0x89DF8, symBinAddr: 0x10009FBB8, symSize: 0x0 }
  - { offsetInCU: 0x60E84, offset: 0x72A6F, size: 0x8, addend: 0x0, symName: __ZZN5boost5beast4http6detail17basic_parser_base12parse_statusERPKcS5_RtRNS_6system10error_codeEE7loc_431, symObjAddr: 0x89E10, symBinAddr: 0x10009FBD0, symSize: 0x0 }
  - { offsetInCU: 0x60ED3, offset: 0x72ABE, size: 0x8, addend: 0x0, symName: __ZN5boost5beast4http6detail17basic_parser_base12parse_reasonERPKcS5_RNS_4core17basic_string_viewIcEERNS_6system10error_codeE, symObjAddr: 0x6A99C, symBinAddr: 0x10006E4D0, symSize: 0xE0 }
  - { offsetInCU: 0x60EF9, offset: 0x72AE4, size: 0x8, addend: 0x0, symName: __ZZN5boost5beast4http6detail17basic_parser_base12parse_reasonERPKcS5_RNS_4core17basic_string_viewIcEERNS_6system10error_codeEE7loc_450, symObjAddr: 0x89E28, symBinAddr: 0x10009FBE8, symSize: 0x0 }
  - { offsetInCU: 0x60F7B, offset: 0x72B66, size: 0x8, addend: 0x0, symName: __ZN5boost5beast4http6detail17basic_parser_base18parse_token_to_eolEPKcS5_RS5_RNS_6system10error_codeE, symObjAddr: 0x6AAA4, symBinAddr: 0x10006E5D8, symSize: 0x1F8 }
  - { offsetInCU: 0x60F9F, offset: 0x72B8A, size: 0x8, addend: 0x0, symName: __ZZN5boost5beast4http6detail17basic_parser_base18parse_token_to_eolEPKcS5_RS5_RNS_6system10error_codeEE7loc_218, symObjAddr: 0x89E40, symBinAddr: 0x10009FC00, symSize: 0x0 }
  - { offsetInCU: 0x60FB6, offset: 0x72BA1, size: 0x8, addend: 0x0, symName: __ZZN5boost5beast4http6detail17basic_parser_base18parse_token_to_eolEPKcS5_RS5_RNS_6system10error_codeEE7loc_233, symObjAddr: 0x89E58, symBinAddr: 0x10009FC18, symSize: 0x0 }
  - { offsetInCU: 0x60FCD, offset: 0x72BB8, size: 0x8, addend: 0x0, symName: __ZZN5boost5beast4http6detail17basic_parser_base18parse_token_to_eolEPKcS5_RS5_RNS_6system10error_codeEE7loc_238, symObjAddr: 0x89E70, symBinAddr: 0x10009FC30, symSize: 0x0 }
  - { offsetInCU: 0x61029, offset: 0x72C14, size: 0x8, addend: 0x0, symName: __ZN5boost5beast4http12basic_parserILb0EE12parse_fieldsERPKcmRNS_6system10error_codeE, symObjAddr: 0x696D0, symBinAddr: 0x10006D204, symSize: 0x13C }
  - { offsetInCU: 0x61053, offset: 0x72C3E, size: 0x8, addend: 0x0, symName: __ZZN5boost5beast4http12basic_parserILb0EE12parse_fieldsERPKcmRNS_6system10error_codeEE7loc_410, symObjAddr: 0x89E88, symBinAddr: 0x10009FC48, symSize: 0x0 }
  - { offsetInCU: 0x610AF, offset: 0x72C9A, size: 0x8, addend: 0x0, symName: __ZN5boost5beast4http12basic_parserILb0EE18inner_parse_fieldsERPKcS5_RNS_6system10error_codeE, symObjAddr: 0x6AD04, symBinAddr: 0x10006E838, symSize: 0x250 }
  - { offsetInCU: 0x610D9, offset: 0x72CC4, size: 0x8, addend: 0x0, symName: __ZZN5boost5beast4http12basic_parserILb0EE18inner_parse_fieldsERPKcS5_RNS_6system10error_codeEE7loc_373, symObjAddr: 0x89EA0, symBinAddr: 0x10009FC60, symSize: 0x0 }
  - { offsetInCU: 0x610F1, offset: 0x72CDC, size: 0x8, addend: 0x0, symName: __ZZN5boost5beast4http12basic_parserILb0EE18inner_parse_fieldsERPKcS5_RNS_6system10error_codeEE7loc_380, symObjAddr: 0x89EB8, symBinAddr: 0x10009FC78, symSize: 0x0 }
  - { offsetInCU: 0x611A9, offset: 0x72D94, size: 0x8, addend: 0x0, symName: __ZN5boost5beast4http6detail17basic_parser_base11parse_fieldERPKcS5_RNS_4core17basic_string_viewIcEESA_RNS0_6detail11char_bufferILm4096EEERNS_6system10error_codeE, symObjAddr: 0x6AF80, symBinAddr: 0x10006EAB4, symSize: 0x7C8 }
  - { offsetInCU: 0x611CF, offset: 0x72DBA, size: 0x8, addend: 0x0, symName: __ZZN5boost5beast4http6detail17basic_parser_base11parse_fieldERPKcS5_RNS_4core17basic_string_viewIcEESA_RNS0_6detail11char_bufferILm4096EEERNS_6system10error_codeEE8is_token, symObjAddr: 0x8FF78, symBinAddr: 0x1000A9850, symSize: 0x0 }
  - { offsetInCU: 0x611E8, offset: 0x72DD3, size: 0x8, addend: 0x0, symName: __ZZN5boost5beast4http6detail17basic_parser_base11parse_fieldERPKcS5_RNS_4core17basic_string_viewIcEESA_RNS0_6detail11char_bufferILm4096EEERNS_6system10error_codeEE7ranges1, symObjAddr: 0x87C00, symBinAddr: 0x100093860, symSize: 0x0 }
  - { offsetInCU: 0x61200, offset: 0x72DEB, size: 0x8, addend: 0x0, symName: __ZZN5boost5beast4http6detail17basic_parser_base11parse_fieldERPKcS5_RNS_4core17basic_string_viewIcEESA_RNS0_6detail11char_bufferILm4096EEERNS_6system10error_codeEE7loc_511, symObjAddr: 0x89ED0, symBinAddr: 0x10009FC90, symSize: 0x0 }
  - { offsetInCU: 0x61218, offset: 0x72E03, size: 0x8, addend: 0x0, symName: __ZZN5boost5beast4http6detail17basic_parser_base11parse_fieldERPKcS5_RNS_4core17basic_string_viewIcEESA_RNS0_6detail11char_bufferILm4096EEERNS_6system10error_codeEE7loc_521, symObjAddr: 0x89EE8, symBinAddr: 0x10009FCA8, symSize: 0x0 }
  - { offsetInCU: 0x61230, offset: 0x72E1B, size: 0x8, addend: 0x0, symName: __ZZN5boost5beast4http6detail17basic_parser_base11parse_fieldERPKcS5_RNS_4core17basic_string_viewIcEESA_RNS0_6detail11char_bufferILm4096EEERNS_6system10error_codeEE7loc_527, symObjAddr: 0x89F00, symBinAddr: 0x10009FCC0, symSize: 0x0 }
  - { offsetInCU: 0x61248, offset: 0x72E33, size: 0x8, addend: 0x0, symName: __ZZN5boost5beast4http6detail17basic_parser_base11parse_fieldERPKcS5_RNS_4core17basic_string_viewIcEESA_RNS0_6detail11char_bufferILm4096EEERNS_6system10error_codeEE7loc_534, symObjAddr: 0x89F18, symBinAddr: 0x10009FCD8, symSize: 0x0 }
  - { offsetInCU: 0x61260, offset: 0x72E4B, size: 0x8, addend: 0x0, symName: __ZZN5boost5beast4http6detail17basic_parser_base11parse_fieldERPKcS5_RNS_4core17basic_string_viewIcEESA_RNS0_6detail11char_bufferILm4096EEERNS_6system10error_codeEE7loc_547, symObjAddr: 0x89F30, symBinAddr: 0x10009FCF0, symSize: 0x0 }
  - { offsetInCU: 0x61278, offset: 0x72E63, size: 0x8, addend: 0x0, symName: __ZZN5boost5beast4http6detail17basic_parser_base11parse_fieldERPKcS5_RNS_4core17basic_string_viewIcEESA_RNS0_6detail11char_bufferILm4096EEERNS_6system10error_codeEE7loc_560, symObjAddr: 0x89F48, symBinAddr: 0x10009FD08, symSize: 0x0 }
  - { offsetInCU: 0x61290, offset: 0x72E7B, size: 0x8, addend: 0x0, symName: __ZZN5boost5beast4http6detail17basic_parser_base11parse_fieldERPKcS5_RNS_4core17basic_string_viewIcEESA_RNS0_6detail11char_bufferILm4096EEERNS_6system10error_codeEE7loc_566, symObjAddr: 0x89F60, symBinAddr: 0x10009FD20, symSize: 0x0 }
  - { offsetInCU: 0x612A8, offset: 0x72E93, size: 0x8, addend: 0x0, symName: __ZZN5boost5beast4http6detail17basic_parser_base11parse_fieldERPKcS5_RNS_4core17basic_string_viewIcEESA_RNS0_6detail11char_bufferILm4096EEERNS_6system10error_codeEE7loc_583, symObjAddr: 0x89F78, symBinAddr: 0x10009FD38, symSize: 0x0 }
  - { offsetInCU: 0x612C0, offset: 0x72EAB, size: 0x8, addend: 0x0, symName: __ZZN5boost5beast4http6detail17basic_parser_base11parse_fieldERPKcS5_RNS_4core17basic_string_viewIcEESA_RNS0_6detail11char_bufferILm4096EEERNS_6system10error_codeEE7loc_595, symObjAddr: 0x89F90, symBinAddr: 0x10009FD50, symSize: 0x0 }
  - { offsetInCU: 0x612D8, offset: 0x72EC3, size: 0x8, addend: 0x0, symName: __ZZN5boost5beast4http6detail17basic_parser_base11parse_fieldERPKcS5_RNS_4core17basic_string_viewIcEESA_RNS0_6detail11char_bufferILm4096EEERNS_6system10error_codeEE7loc_608, symObjAddr: 0x89FA8, symBinAddr: 0x10009FD68, symSize: 0x0 }
  - { offsetInCU: 0x612F0, offset: 0x72EDB, size: 0x8, addend: 0x0, symName: __ZZN5boost5beast4http6detail17basic_parser_base11parse_fieldERPKcS5_RNS_4core17basic_string_viewIcEESA_RNS0_6detail11char_bufferILm4096EEERNS_6system10error_codeEE7loc_614, symObjAddr: 0x89FC0, symBinAddr: 0x10009FD80, symSize: 0x0 }
  - { offsetInCU: 0x61308, offset: 0x72EF3, size: 0x8, addend: 0x0, symName: __ZZN5boost5beast4http6detail17basic_parser_base11parse_fieldERPKcS5_RNS_4core17basic_string_viewIcEESA_RNS0_6detail11char_bufferILm4096EEERNS_6system10error_codeEE7loc_623, symObjAddr: 0x89FD8, symBinAddr: 0x10009FD98, symSize: 0x0 }
  - { offsetInCU: 0x613AF, offset: 0x72F9A, size: 0x8, addend: 0x0, symName: __ZN5boost5beast4http12basic_parserILb0EE8do_fieldENS1_5fieldENS_4core17basic_string_viewIcEERNS_6system10error_codeE, symObjAddr: 0x6B784, symBinAddr: 0x10006F2B8, symSize: 0x700 }
  - { offsetInCU: 0x613D9, offset: 0x72FC4, size: 0x8, addend: 0x0, symName: __ZZN5boost5beast4http12basic_parserILb0EE8do_fieldENS1_5fieldENS_4core17basic_string_viewIcEERNS_6system10error_codeEE7loc_685, symObjAddr: 0x89FF0, symBinAddr: 0x10009FDB0, symSize: 0x0 }
  - { offsetInCU: 0x613F1, offset: 0x72FDC, size: 0x8, addend: 0x0, symName: __ZZN5boost5beast4http12basic_parserILb0EE8do_fieldENS1_5fieldENS_4core17basic_string_viewIcEERNS_6system10error_codeEE7loc_772, symObjAddr: 0x8A008, symBinAddr: 0x10009FDC8, symSize: 0x0 }
  - { offsetInCU: 0x61409, offset: 0x72FF4, size: 0x8, addend: 0x0, symName: __ZZN5boost5beast4http12basic_parserILb0EE8do_fieldENS1_5fieldENS_4core17basic_string_viewIcEERNS_6system10error_codeEE7loc_779, symObjAddr: 0x8A020, symBinAddr: 0x10009FDE0, symSize: 0x0 }
  - { offsetInCU: 0x6166F, offset: 0x7325A, size: 0x8, addend: 0x0, symName: __ZZN5boost5beast4http12basic_parserILb0EE8do_fieldENS1_5fieldENS_4core17basic_string_viewIcEERNS_6system10error_codeEENKUlvE_clEv, symObjAddr: 0x6C968, symBinAddr: 0x10007049C, symSize: 0x50 }
  - { offsetInCU: 0x61699, offset: 0x73284, size: 0x8, addend: 0x0, symName: __ZZZN5boost5beast4http12basic_parserILb0EE8do_fieldENS1_5fieldENS_4core17basic_string_viewIcEERNS_6system10error_codeEENKUlvE_clEvE7loc_717, symObjAddr: 0x8A038, symBinAddr: 0x10009FDF8, symSize: 0x0 }
  - { offsetInCU: 0x616BB, offset: 0x732A6, size: 0x8, addend: 0x0, symName: __ZZN5boost5beast4http12basic_parserILb0EE8do_fieldENS1_5fieldENS_4core17basic_string_viewIcEERNS_6system10error_codeEENKUlvE0_clEv, symObjAddr: 0x6CCBC, symBinAddr: 0x1000707F0, symSize: 0x50 }
  - { offsetInCU: 0x616E5, offset: 0x732D0, size: 0x8, addend: 0x0, symName: __ZZZN5boost5beast4http12basic_parserILb0EE8do_fieldENS1_5fieldENS_4core17basic_string_viewIcEERNS_6system10error_codeEENKUlvE0_clEvE7loc_722, symObjAddr: 0x8A050, symBinAddr: 0x10009FE10, symSize: 0x0 }
  - { offsetInCU: 0x616FD, offset: 0x732E8, size: 0x8, addend: 0x0, symName: __ZN5boost5beast4http12basic_parserILb0EE13finish_headerERNS_6system10error_codeENSt3__117integral_constantIbLb0EEE, symObjAddr: 0x6980C, symBinAddr: 0x10006D340, symSize: 0x230 }
  - { offsetInCU: 0x61727, offset: 0x73312, size: 0x8, addend: 0x0, symName: __ZZN5boost5beast4http12basic_parserILb0EE13finish_headerERNS_6system10error_codeENSt3__117integral_constantIbLb0EEEE7loc_493, symObjAddr: 0x8A068, symBinAddr: 0x10009FE28, symSize: 0x0 }
  - { offsetInCU: 0x6175D, offset: 0x73348, size: 0x8, addend: 0x0, symName: __ZN5boost5beast4http12basic_parserILb0EE17parse_body_to_eofERPKcmRNS_6system10error_codeE, symObjAddr: 0x69BB8, symBinAddr: 0x10006D6EC, symSize: 0x140 }
  - { offsetInCU: 0x61787, offset: 0x73372, size: 0x8, addend: 0x0, symName: __ZZN5boost5beast4http12basic_parserILb0EE17parse_body_to_eofERPKcmRNS_6system10error_codeEE7loc_551, symObjAddr: 0x8A080, symBinAddr: 0x10009FE40, symSize: 0x0 }
  - { offsetInCU: 0x617D2, offset: 0x733BD, size: 0x8, addend: 0x0, symName: __ZN5boost5beast4http12basic_parserILb0EE18parse_chunk_headerERPKcmRNS_6system10error_codeE, symObjAddr: 0x69CF8, symBinAddr: 0x10006D82C, symSize: 0x384 }
  - { offsetInCU: 0x617FC, offset: 0x733E7, size: 0x8, addend: 0x0, symName: __ZZN5boost5beast4http12basic_parserILb0EE18parse_chunk_headerERPKcmRNS_6system10error_codeEE7loc_588, symObjAddr: 0x8A098, symBinAddr: 0x10009FE58, symSize: 0x0 }
  - { offsetInCU: 0x61814, offset: 0x733FF, size: 0x8, addend: 0x0, symName: __ZZN5boost5beast4http12basic_parserILb0EE18parse_chunk_headerERPKcmRNS_6system10error_codeEE7loc_598, symObjAddr: 0x8A0B0, symBinAddr: 0x10009FE70, symSize: 0x0 }
  - { offsetInCU: 0x6182C, offset: 0x73417, size: 0x8, addend: 0x0, symName: __ZZN5boost5beast4http12basic_parserILb0EE18parse_chunk_headerERPKcmRNS_6system10error_codeEE7loc_608, symObjAddr: 0x8A0C8, symBinAddr: 0x10009FE88, symSize: 0x0 }
  - { offsetInCU: 0x61844, offset: 0x7342F, size: 0x8, addend: 0x0, symName: __ZZN5boost5beast4http12basic_parserILb0EE18parse_chunk_headerERPKcmRNS_6system10error_codeEE7loc_615, symObjAddr: 0x8A0E0, symBinAddr: 0x10009FEA0, symSize: 0x0 }
  - { offsetInCU: 0x6185C, offset: 0x73447, size: 0x8, addend: 0x0, symName: __ZZN5boost5beast4http12basic_parserILb0EE18parse_chunk_headerERPKcmRNS_6system10error_codeEE7loc_622, symObjAddr: 0x8A0F8, symBinAddr: 0x10009FEB8, symSize: 0x0 }
  - { offsetInCU: 0x61874, offset: 0x7345F, size: 0x8, addend: 0x0, symName: __ZZN5boost5beast4http12basic_parserILb0EE18parse_chunk_headerERPKcmRNS_6system10error_codeEE7loc_634, symObjAddr: 0x8A110, symBinAddr: 0x10009FED0, symSize: 0x0 }
  - { offsetInCU: 0x61929, offset: 0x73514, size: 0x8, addend: 0x0, symName: __ZN5boost5beast4http6detail17basic_parser_base8find_eolEPKcS5_RNS_6system10error_codeE, symObjAddr: 0x6D5A8, symBinAddr: 0x1000710DC, symSize: 0x15C }
  - { offsetInCU: 0x6194D, offset: 0x73538, size: 0x8, addend: 0x0, symName: __ZZN5boost5beast4http6detail17basic_parser_base8find_eolEPKcS5_RNS_6system10error_codeEE7loc_143, symObjAddr: 0x8A128, symBinAddr: 0x10009FEE8, symSize: 0x0 }
  - { offsetInCU: 0x61988, offset: 0x73573, size: 0x8, addend: 0x0, symName: __ZN5boost5beast4http6detail17basic_parser_base5unhexERhc, symObjAddr: 0x6DED4, symBinAddr: 0x100071A08, symSize: 0x48 }
  - { offsetInCU: 0x619AC, offset: 0x73597, size: 0x8, addend: 0x0, symName: __ZZN5boost5beast4http6detail17basic_parser_base5unhexERhcE3tab, symObjAddr: 0x87C11, symBinAddr: 0x100093871, symSize: 0x0 }
  - { offsetInCU: 0x619EA, offset: 0x735D5, size: 0x8, addend: 0x0, symName: __ZN5boost5beast4http6detail17basic_parser_base22parse_chunk_extensionsERPKcS5_RNS_6system10error_codeE, symObjAddr: 0x6D83C, symBinAddr: 0x100071370, symSize: 0x698 }
  - { offsetInCU: 0x61A10, offset: 0x735FB, size: 0x8, addend: 0x0, symName: __ZZN5boost5beast4http6detail17basic_parser_base22parse_chunk_extensionsERPKcS5_RNS_6system10error_codeEE7loc_660, symObjAddr: 0x8A140, symBinAddr: 0x10009FF00, symSize: 0x0 }
  - { offsetInCU: 0x61A28, offset: 0x73613, size: 0x8, addend: 0x0, symName: __ZZN5boost5beast4http6detail17basic_parser_base22parse_chunk_extensionsERPKcS5_RNS_6system10error_codeEE7loc_673, symObjAddr: 0x8A158, symBinAddr: 0x10009FF18, symSize: 0x0 }
  - { offsetInCU: 0x61A40, offset: 0x7362B, size: 0x8, addend: 0x0, symName: __ZZN5boost5beast4http6detail17basic_parser_base22parse_chunk_extensionsERPKcS5_RNS_6system10error_codeEE7loc_683, symObjAddr: 0x8A170, symBinAddr: 0x10009FF30, symSize: 0x0 }
  - { offsetInCU: 0x61A58, offset: 0x73643, size: 0x8, addend: 0x0, symName: __ZZN5boost5beast4http6detail17basic_parser_base22parse_chunk_extensionsERPKcS5_RNS_6system10error_codeEE7loc_693, symObjAddr: 0x8A188, symBinAddr: 0x10009FF48, symSize: 0x0 }
  - { offsetInCU: 0x61B03, offset: 0x736EE, size: 0x8, addend: 0x0, symName: __ZN5boost6system6detail18generic_cat_holderIvE8instanceE, symObjAddr: 0x8FFC0, symBinAddr: 0x1000A9898, symSize: 0x0 }
  - { offsetInCU: 0x61B20, offset: 0x7370B, size: 0x8, addend: 0x0, symName: __ZN5boost5beast4http12basic_parserILb0EE7put_eofERNS_6system10error_codeE, symObjAddr: 0x68B64, symBinAddr: 0x10006C698, symSize: 0x180 }
  - { offsetInCU: 0x61B48, offset: 0x73733, size: 0x8, addend: 0x0, symName: __ZZN5boost5beast4http12basic_parserILb0EE7put_eofERNS_6system10error_codeEE7loc_208, symObjAddr: 0x8A278, symBinAddr: 0x1000A0038, symSize: 0x0 }
  - { offsetInCU: 0x61B5F, offset: 0x7374A, size: 0x8, addend: 0x0, symName: __ZZN5boost5beast4http12basic_parserILb0EE7put_eofERNS_6system10error_codeEE7loc_215, symObjAddr: 0x8A290, symBinAddr: 0x1000A0050, symSize: 0x0 }
  - { offsetInCU: 0x61B88, offset: 0x73773, size: 0x8, addend: 0x0, symName: __ZN5boost5beast9websocket6streamINS_4asio3ssl6streamINS3_19basic_stream_socketINS3_2ip3tcpENS3_15any_io_executorEEEEELb1EE9impl_type11on_responseERKNS0_4http7messageILb0ENSE_17basic_string_bodyIcNSt3__111char_traitsIcEENSH_9allocatorIcEEEENSE_12basic_fieldsISL_EEEERKNS_14static_strings19basic_static_stringILm24EcSJ_EERNS_6system10error_codeE, symObjAddr: 0x30768, symBinAddr: 0x10003429C, symSize: 0x334 }
  - { offsetInCU: 0x61CA4, offset: 0x7388F, size: 0x8, addend: 0x0, symName: __ZZN5boost5beast9websocket6streamINS_4asio3ssl6streamINS3_19basic_stream_socketINS3_2ip3tcpENS3_15any_io_executorEEEEELb1EE9impl_type11on_responseERKNS0_4http7messageILb0ENSE_17basic_string_bodyIcNSt3__111char_traitsIcEENSH_9allocatorIcEEEENSE_12basic_fieldsISL_EEEERKNS_14static_strings19basic_static_stringILm24EcSJ_EERNS_6system10error_codeEENKUlNS1_5errorEE_clES10_, symObjAddr: 0x71C0C, symBinAddr: 0x100075740, symSize: 0x54 }
  - { offsetInCU: 0x61CCE, offset: 0x738B9, size: 0x8, addend: 0x0, symName: __ZZZN5boost5beast9websocket6streamINS_4asio3ssl6streamINS3_19basic_stream_socketINS3_2ip3tcpENS3_15any_io_executorEEEEELb1EE9impl_type11on_responseERKNS0_4http7messageILb0ENSE_17basic_string_bodyIcNSt3__111char_traitsIcEENSH_9allocatorIcEEEENSE_12basic_fieldsISL_EEEERKNS_14static_strings19basic_static_stringILm24EcSJ_EERNS_6system10error_codeEENKUlNS1_5errorEE_clES10_E7loc_657, symObjAddr: 0x8A338, symBinAddr: 0x1000A00F8, symSize: 0x0 }
  - { offsetInCU: 0x61D15, offset: 0x73900, size: 0x8, addend: 0x0, symName: __ZN5boost5beast4zlib6detail14deflate_stream7get_lutEv, symObjAddr: 0x74CE4, symBinAddr: 0x100078818, symSize: 0x9C }
  - { offsetInCU: 0x61D39, offset: 0x73924, size: 0x8, addend: 0x0, symName: __ZZN5boost5beast4zlib6detail14deflate_stream7get_lutEvE4data, symObjAddr: 0x90078, symBinAddr: 0x1000A9950, symSize: 0x0 }
  - { offsetInCU: 0x61D7D, offset: 0x73968, size: 0x8, addend: 0x0, symName: __ZN5boost5beast9websocket6streamINS_4asio3ssl6streamINS3_19basic_stream_socketINS3_2ip3tcpENS3_15any_io_executorEEEEELb1EE9impl_type8parse_fhINS0_13static_bufferILm1536EEEEEbRNS1_6detail12frame_headerERT_RNS_6system10error_codeE, symObjAddr: 0x770BC, symBinAddr: 0x10007ABF0, symSize: 0xBD4 }
  - { offsetInCU: 0x61DA5, offset: 0x73990, size: 0x8, addend: 0x0, symName: __ZZN5boost5beast9websocket6streamINS_4asio3ssl6streamINS3_19basic_stream_socketINS3_2ip3tcpENS3_15any_io_executorEEEEELb1EE9impl_type8parse_fhINS0_13static_bufferILm1536EEEEEbRNS1_6detail12frame_headerERT_RNS_6system10error_codeEE7loc_751, symObjAddr: 0x8A560, symBinAddr: 0x1000A0320, symSize: 0x0 }
  - { offsetInCU: 0x61DBD, offset: 0x739A8, size: 0x8, addend: 0x0, symName: __ZZN5boost5beast9websocket6streamINS_4asio3ssl6streamINS3_19basic_stream_socketINS3_2ip3tcpENS3_15any_io_executorEEEEELb1EE9impl_type8parse_fhINS0_13static_bufferILm1536EEEEEbRNS1_6detail12frame_headerERT_RNS_6system10error_codeEE7loc_758, symObjAddr: 0x8A578, symBinAddr: 0x1000A0338, symSize: 0x0 }
  - { offsetInCU: 0x61DD5, offset: 0x739C0, size: 0x8, addend: 0x0, symName: __ZZN5boost5beast9websocket6streamINS_4asio3ssl6streamINS3_19basic_stream_socketINS3_2ip3tcpENS3_15any_io_executorEEEEELb1EE9impl_type8parse_fhINS0_13static_bufferILm1536EEEEEbRNS1_6detail12frame_headerERT_RNS_6system10error_codeEE7loc_767, symObjAddr: 0x8A590, symBinAddr: 0x1000A0350, symSize: 0x0 }
  - { offsetInCU: 0x61DED, offset: 0x739D8, size: 0x8, addend: 0x0, symName: __ZZN5boost5beast9websocket6streamINS_4asio3ssl6streamINS3_19basic_stream_socketINS3_2ip3tcpENS3_15any_io_executorEEEEELb1EE9impl_type8parse_fhINS0_13static_bufferILm1536EEEEEbRNS1_6detail12frame_headerERT_RNS_6system10error_codeEE7loc_773, symObjAddr: 0x8A5A8, symBinAddr: 0x1000A0368, symSize: 0x0 }
  - { offsetInCU: 0x61E05, offset: 0x739F0, size: 0x8, addend: 0x0, symName: __ZZN5boost5beast9websocket6streamINS_4asio3ssl6streamINS3_19basic_stream_socketINS3_2ip3tcpENS3_15any_io_executorEEEEELb1EE9impl_type8parse_fhINS0_13static_bufferILm1536EEEEEbRNS1_6detail12frame_headerERT_RNS_6system10error_codeEE7loc_782, symObjAddr: 0x8A5C0, symBinAddr: 0x1000A0380, symSize: 0x0 }
  - { offsetInCU: 0x61E1D, offset: 0x73A08, size: 0x8, addend: 0x0, symName: __ZZN5boost5beast9websocket6streamINS_4asio3ssl6streamINS3_19basic_stream_socketINS3_2ip3tcpENS3_15any_io_executorEEEEELb1EE9impl_type8parse_fhINS0_13static_bufferILm1536EEEEEbRNS1_6detail12frame_headerERT_RNS_6system10error_codeEE7loc_788, symObjAddr: 0x8A5D8, symBinAddr: 0x1000A0398, symSize: 0x0 }
  - { offsetInCU: 0x61E35, offset: 0x73A20, size: 0x8, addend: 0x0, symName: __ZZN5boost5beast9websocket6streamINS_4asio3ssl6streamINS3_19basic_stream_socketINS3_2ip3tcpENS3_15any_io_executorEEEEELb1EE9impl_type8parse_fhINS0_13static_bufferILm1536EEEEEbRNS1_6detail12frame_headerERT_RNS_6system10error_codeEE7loc_794, symObjAddr: 0x8A5F0, symBinAddr: 0x1000A03B0, symSize: 0x0 }
  - { offsetInCU: 0x61E4D, offset: 0x73A38, size: 0x8, addend: 0x0, symName: __ZZN5boost5beast9websocket6streamINS_4asio3ssl6streamINS3_19basic_stream_socketINS3_2ip3tcpENS3_15any_io_executorEEEEELb1EE9impl_type8parse_fhINS0_13static_bufferILm1536EEEEEbRNS1_6detail12frame_headerERT_RNS_6system10error_codeEE7loc_800, symObjAddr: 0x8A608, symBinAddr: 0x1000A03C8, symSize: 0x0 }
  - { offsetInCU: 0x61E65, offset: 0x73A50, size: 0x8, addend: 0x0, symName: __ZZN5boost5beast9websocket6streamINS_4asio3ssl6streamINS3_19basic_stream_socketINS3_2ip3tcpENS3_15any_io_executorEEEEELb1EE9impl_type8parse_fhINS0_13static_bufferILm1536EEEEEbRNS1_6detail12frame_headerERT_RNS_6system10error_codeEE7loc_808, symObjAddr: 0x8A620, symBinAddr: 0x1000A03E0, symSize: 0x0 }
  - { offsetInCU: 0x61E7D, offset: 0x73A68, size: 0x8, addend: 0x0, symName: __ZZN5boost5beast9websocket6streamINS_4asio3ssl6streamINS3_19basic_stream_socketINS3_2ip3tcpENS3_15any_io_executorEEEEELb1EE9impl_type8parse_fhINS0_13static_bufferILm1536EEEEEbRNS1_6detail12frame_headerERT_RNS_6system10error_codeEE7loc_814, symObjAddr: 0x8A638, symBinAddr: 0x1000A03F8, symSize: 0x0 }
  - { offsetInCU: 0x61E95, offset: 0x73A80, size: 0x8, addend: 0x0, symName: __ZZN5boost5beast9websocket6streamINS_4asio3ssl6streamINS3_19basic_stream_socketINS3_2ip3tcpENS3_15any_io_executorEEEEELb1EE9impl_type8parse_fhINS0_13static_bufferILm1536EEEEEbRNS1_6detail12frame_headerERT_RNS_6system10error_codeEE7loc_837, symObjAddr: 0x8A650, symBinAddr: 0x1000A0410, symSize: 0x0 }
  - { offsetInCU: 0x61EAD, offset: 0x73A98, size: 0x8, addend: 0x0, symName: __ZZN5boost5beast9websocket6streamINS_4asio3ssl6streamINS3_19basic_stream_socketINS3_2ip3tcpENS3_15any_io_executorEEEEELb1EE9impl_type8parse_fhINS0_13static_bufferILm1536EEEEEbRNS1_6detail12frame_headerERT_RNS_6system10error_codeEE7loc_852, symObjAddr: 0x8A668, symBinAddr: 0x1000A0428, symSize: 0x0 }
  - { offsetInCU: 0x61EC5, offset: 0x73AB0, size: 0x8, addend: 0x0, symName: __ZZN5boost5beast9websocket6streamINS_4asio3ssl6streamINS3_19basic_stream_socketINS3_2ip3tcpENS3_15any_io_executorEEEEELb1EE9impl_type8parse_fhINS0_13static_bufferILm1536EEEEEbRNS1_6detail12frame_headerERT_RNS_6system10error_codeEE7loc_885, symObjAddr: 0x8A680, symBinAddr: 0x1000A0440, symSize: 0x0 }
  - { offsetInCU: 0x61EDD, offset: 0x73AC8, size: 0x8, addend: 0x0, symName: __ZZN5boost5beast9websocket6streamINS_4asio3ssl6streamINS3_19basic_stream_socketINS3_2ip3tcpENS3_15any_io_executorEEEEELb1EE9impl_type8parse_fhINS0_13static_bufferILm1536EEEEEbRNS1_6detail12frame_headerERT_RNS_6system10error_codeEE7loc_898, symObjAddr: 0x8A698, symBinAddr: 0x1000A0458, symSize: 0x0 }
  - { offsetInCU: 0x61FD9, offset: 0x73BC4, size: 0x8, addend: 0x0, symName: __ZN5boost5beast9websocket6streamINS_4asio3ssl6streamINS3_19basic_stream_socketINS3_2ip3tcpENS3_15any_io_executorEEEEELb1EE7do_failEtNS_6system10error_codeERSE_, symObjAddr: 0x77C90, symBinAddr: 0x10007B7C4, symSize: 0x2C0 }
  - { offsetInCU: 0x62001, offset: 0x73BEC, size: 0x8, addend: 0x0, symName: __ZZN5boost5beast9websocket6streamINS_4asio3ssl6streamINS3_19basic_stream_socketINS3_2ip3tcpENS3_15any_io_executorEEEEELb1EE7do_failEtNS_6system10error_codeERSE_E7loc_377, symObjAddr: 0x8A6B0, symBinAddr: 0x1000A0470, symSize: 0x0 }
  - { offsetInCU: 0x62071, offset: 0x73C5C, size: 0x8, addend: 0x0, symName: __ZN5boost4asio6detail23reactive_socket_serviceINS0_2ip3tcpEE8shutdownERNS1_28reactive_socket_service_base24base_implementation_typeENS0_11socket_base13shutdown_typeERNS_6system10error_codeE, symObjAddr: 0x7A680, symBinAddr: 0x10007E1B4, symSize: 0x74 }
  - { offsetInCU: 0x62094, offset: 0x73C7F, size: 0x8, addend: 0x0, symName: __ZZN5boost4asio6detail23reactive_socket_serviceINS0_2ip3tcpEE8shutdownERNS1_28reactive_socket_service_base24base_implementation_typeENS0_11socket_base13shutdown_typeERNS_6system10error_codeEE3loc, symObjAddr: 0x8A6C8, symBinAddr: 0x1000A0488, symSize: 0x0 }
  - { offsetInCU: 0x62FA0, offset: 0x74B8B, size: 0x8, addend: 0x0, symName: __ZNSt3__16vectorIN5boost4asio2ip20basic_resolver_entryINS3_3tcpEEENS_9allocatorIS6_EEE26__swap_out_circular_bufferERNS_14__split_bufferIS6_RS8_EE, symObjAddr: 0x1D048, symBinAddr: 0x100020B7C, symSize: 0x110 }
  - { offsetInCU: 0x63276, offset: 0x74E61, size: 0x8, addend: 0x0, symName: __ZNSt3__16vectorIN5boost8weak_ptrINS1_5beast9websocket6detail7service9impl_typeEEENS_9allocatorIS8_EEE26__swap_out_circular_bufferERNS_14__split_bufferIS8_RSA_EE, symObjAddr: 0x25004, symBinAddr: 0x100028B38, symSize: 0x110 }
  - { offsetInCU: 0x63310, offset: 0x74EFB, size: 0x8, addend: 0x0, symName: __ZNSt3__16vectorIPN5boost5beast9websocket6detail7service9impl_typeENS_9allocatorIS7_EEE26__swap_out_circular_bufferERNS_14__split_bufferIS7_RS9_EE, symObjAddr: 0x273FC, symBinAddr: 0x10002AF30, symSize: 0x110 }
  - { offsetInCU: 0x633A9, offset: 0x74F94, size: 0x8, addend: 0x0, symName: __ZNSt3__16vectorIjNS_9allocatorIjEEE26__swap_out_circular_bufferERNS_14__split_bufferIjRS2_EE, symObjAddr: 0x39478, symBinAddr: 0x10003CFAC, symSize: 0x110 }
  - { offsetInCU: 0x63D46, offset: 0x75931, size: 0x8, addend: 0x0, symName: __Z7isdigiti, symObjAddr: 0x1B0EC, symBinAddr: 0x10001EC20, symSize: 0x28 }
  - { offsetInCU: 0x65B83, offset: 0x7776E, size: 0x8, addend: 0x0, symName: __ZN15AlpacaWebSocketC2Ev, symObjAddr: 0x50, symBinAddr: 0x100005D1C, symSize: 0xC0 }
  - { offsetInCU: 0x65BAF, offset: 0x7779A, size: 0x8, addend: 0x0, symName: __ZNSt3__110unique_ptrIN5boost5beast9websocket6streamINS1_4asio3ssl6streamINS5_19basic_stream_socketINS5_2ip3tcpENS5_15any_io_executorEEEEELb1EEENS_14default_deleteISE_EEEC1B8ue170006ILb1EvEEv, symObjAddr: 0x110, symBinAddr: 0x100005DDC, symSize: 0x2C }
  - { offsetInCU: 0x65BEA, offset: 0x777D5, size: 0x8, addend: 0x0, symName: __ZNSt3__113basic_ostreamIcNS_11char_traitsIcEEElsB8ue170006EPFRS3_S4_E, symObjAddr: 0x1B8, symBinAddr: 0x100005E50, symSize: 0x2C }
  - { offsetInCU: 0x65C20, offset: 0x7780B, size: 0x8, addend: 0x0, symName: __ZNSt3__110unique_ptrIN5boost5beast9websocket6streamINS1_4asio3ssl6streamINS5_19basic_stream_socketINS5_2ip3tcpENS5_15any_io_executorEEEEELb1EEENS_14default_deleteISE_EEED1B8ue170006Ev, symObjAddr: 0x23C, symBinAddr: 0x100005ED4, symSize: 0x2C }
  - { offsetInCU: 0x65C4A, offset: 0x77835, size: 0x8, addend: 0x0, symName: __ZN15AlpacaWebSocketC1Ev, symObjAddr: 0x268, symBinAddr: 0x100005F00, symSize: 0x2C }
  - { offsetInCU: 0x65C76, offset: 0x77861, size: 0x8, addend: 0x0, symName: __ZN15AlpacaWebSocketD2Ev, symObjAddr: 0x294, symBinAddr: 0x100005F2C, symSize: 0x94 }
  - { offsetInCU: 0x65CA2, offset: 0x7788D, size: 0x8, addend: 0x0, symName: __ZN15AlpacaWebSocket10disconnectEv, symObjAddr: 0x328, symBinAddr: 0x100005FC0, symSize: 0x1C4 }
  - { offsetInCU: 0x65CE0, offset: 0x778CB, size: 0x8, addend: 0x0, symName: __ZN15AlpacaWebSocketD1Ev, symObjAddr: 0x4F8, symBinAddr: 0x100006184, symSize: 0x2C }
  - { offsetInCU: 0x65D0C, offset: 0x778F7, size: 0x8, addend: 0x0, symName: __ZN15AlpacaWebSocket7connectERKNSt3__112basic_stringIcNS0_11char_traitsIcEENS0_9allocatorIcEEEE, symObjAddr: 0x524, symBinAddr: 0x1000061B0, symSize: 0x534 }
  - { offsetInCU: 0x65DD9, offset: 0x779C4, size: 0x8, addend: 0x0, symName: __ZN5boost4asio10io_contextC1Ev, symObjAddr: 0xAA4, symBinAddr: 0x100006730, symSize: 0x2C }
  - { offsetInCU: 0x65E8A, offset: 0x77A75, size: 0x8, addend: 0x0, symName: __ZN5boost4asio2ip14basic_resolverINS1_3tcpENS0_15any_io_executorEEC1INS0_10io_contextEEERT_NS0_10constraintIXsr14is_convertibleIS9_RNS0_17execution_contextEEE5valueEiE4typeE, symObjAddr: 0xAD0, symBinAddr: 0x10000675C, symSize: 0x3C }
  - { offsetInCU: 0x65ED6, offset: 0x77AC1, size: 0x8, addend: 0x0, symName: __ZN5boost4asio2ip14basic_resolverINS1_3tcpENS0_15any_io_executorEE7resolveENSt3__117basic_string_viewIcNS6_11char_traitsIcEEEESA_, symObjAddr: 0xB0C, symBinAddr: 0x100006798, symSize: 0x60 }
  - { offsetInCU: 0x65F1C, offset: 0x77B07, size: 0x8, addend: 0x0, symName: __ZNKSt3__112basic_stringIcNS_11char_traitsIcEENS_9allocatorIcEEEcvNS_17basic_string_viewIcS2_EEB8ue170006Ev, symObjAddr: 0xB6C, symBinAddr: 0x1000067F8, symSize: 0x50 }
  - { offsetInCU: 0x65F52, offset: 0x77B3D, size: 0x8, addend: 0x0, symName: __ZN5boost4asio3ssl7contextC1ENS1_12context_base6methodE, symObjAddr: 0xBBC, symBinAddr: 0x100006848, symSize: 0x34 }
  - { offsetInCU: 0x65F8C, offset: 0x77B77, size: 0x8, addend: 0x0, symName: __ZN5boost4asio3ssl7context15set_verify_modeEi, symObjAddr: 0xBF0, symBinAddr: 0x10000687C, symSize: 0x78 }
  - { offsetInCU: 0x65FD5, offset: 0x77BC0, size: 0x8, addend: 0x0, symName: __ZNSt3__110unique_ptrIN5boost5beast9websocket6streamINS1_4asio3ssl6streamINS5_19basic_stream_socketINS5_2ip3tcpENS5_15any_io_executorEEEEELb1EEENS_14default_deleteISE_EEEaSB8ue170006EOSH_, symObjAddr: 0xCDC, symBinAddr: 0x100006968, symSize: 0x50 }
  - { offsetInCU: 0x6600B, offset: 0x77BF6, size: 0x8, addend: 0x0, symName: __ZNKSt3__110unique_ptrIN5boost5beast9websocket6streamINS1_4asio3ssl6streamINS5_19basic_stream_socketINS5_2ip3tcpENS5_15any_io_executorEEEEELb1EEENS_14default_deleteISE_EEEdeB8ue170006Ev, symObjAddr: 0xDD0, symBinAddr: 0x100006A5C, symSize: 0x28 }
  - { offsetInCU: 0x66031, offset: 0x77C1C, size: 0x8, addend: 0x0, symName: __ZNKSt3__110unique_ptrIN5boost5beast9websocket6streamINS1_4asio3ssl6streamINS5_19basic_stream_socketINS5_2ip3tcpENS5_15any_io_executorEEEEELb1EEENS_14default_deleteISE_EEEptB8ue170006Ev, symObjAddr: 0xDF8, symBinAddr: 0x100006A84, symSize: 0x28 }
  - { offsetInCU: 0x66057, offset: 0x77C42, size: 0x8, addend: 0x0, symName: __ZN5boost5beast9websocket6streamINS_4asio3ssl6streamINS3_19basic_stream_socketINS3_2ip3tcpENS3_15any_io_executorEEEEELb1EE10next_layerEv, symObjAddr: 0xE20, symBinAddr: 0x100006AAC, symSize: 0x28 }
  - { offsetInCU: 0x6607F, offset: 0x77C6A, size: 0x8, addend: 0x0, symName: __ZN5boost4asio3ssl6streamINS0_19basic_stream_socketINS0_2ip3tcpENS0_15any_io_executorEEEE13native_handleEv, symObjAddr: 0xE48, symBinAddr: 0x100006AD4, symSize: 0x28 }
  - { offsetInCU: 0x660A5, offset: 0x77C90, size: 0x8, addend: 0x0, symName: __ZN5boost6system10error_codeC1EiRKNS0_14error_categoryE, symObjAddr: 0xE94, symBinAddr: 0x100006AFC, symSize: 0x3C }
  - { offsetInCU: 0x660EB, offset: 0x77CD6, size: 0x8, addend: 0x0, symName: __ZN5boost6system12system_errorC1ERKNS0_10error_codeE, symObjAddr: 0xED0, symBinAddr: 0x100006B38, symSize: 0x34 }
  - { offsetInCU: 0x66125, offset: 0x77D10, size: 0x8, addend: 0x0, symName: __ZN5boost6system12system_errorD1Ev, symObjAddr: 0xF04, symBinAddr: 0x100006B6C, symSize: 0x2C }
  - { offsetInCU: 0x66152, offset: 0x77D3D, size: 0x8, addend: 0x0, symName: __ZN5boost4asio3ssl6streamINS0_19basic_stream_socketINS0_2ip3tcpENS0_15any_io_executorEEEE9handshakeENS1_11stream_base14handshake_typeE, symObjAddr: 0xF30, symBinAddr: 0x100006B98, symSize: 0x78 }
  - { offsetInCU: 0x66198, offset: 0x77D83, size: 0x8, addend: 0x0, symName: __ZN5boost5beast9websocket6streamINS_4asio3ssl6streamINS3_19basic_stream_socketINS3_2ip3tcpENS3_15any_io_executorEEEEELb1EE9handshakeENS_4core17basic_string_viewIcEESF_, symObjAddr: 0xFA8, symBinAddr: 0x100006C10, symSize: 0xE8 }
  - { offsetInCU: 0x661F5, offset: 0x77DE0, size: 0x8, addend: 0x0, symName: __ZN5boost4core17basic_string_viewIcEC1INSt3__19allocatorIcEEEERKNS4_12basic_stringIcNS4_11char_traitsIcEET_EE, symObjAddr: 0x1090, symBinAddr: 0x100006CF8, symSize: 0x34 }
  - { offsetInCU: 0x66238, offset: 0x77E23, size: 0x8, addend: 0x0, symName: __ZN5boost4asio3ssl7contextD1Ev, symObjAddr: 0x10C4, symBinAddr: 0x100006D2C, symSize: 0x2C }
  - { offsetInCU: 0x66265, offset: 0x77E50, size: 0x8, addend: 0x0, symName: __ZN5boost4asio2ip22basic_resolver_resultsINS1_3tcpEED1Ev, symObjAddr: 0x10F0, symBinAddr: 0x100006D58, symSize: 0x2C }
  - { offsetInCU: 0x66291, offset: 0x77E7C, size: 0x8, addend: 0x0, symName: __ZN5boost4asio2ip14basic_resolverINS1_3tcpENS0_15any_io_executorEED1Ev, symObjAddr: 0x111C, symBinAddr: 0x100006D84, symSize: 0x2C }
  - { offsetInCU: 0x662BB, offset: 0x77EA6, size: 0x8, addend: 0x0, symName: __ZN5boost4asio10io_contextD1Ev, symObjAddr: 0x1148, symBinAddr: 0x100006DB0, symSize: 0x2C }
  - { offsetInCU: 0x662E8, offset: 0x77ED3, size: 0x8, addend: 0x0, symName: __ZNKSt3__110unique_ptrIN5boost5beast9websocket6streamINS1_4asio3ssl6streamINS5_19basic_stream_socketINS5_2ip3tcpENS5_15any_io_executorEEEEELb1EEENS_14default_deleteISE_EEEcvbB8ue170006Ev, symObjAddr: 0x1174, symBinAddr: 0x100006DDC, symSize: 0x34 }
  - { offsetInCU: 0x6630E, offset: 0x77EF9, size: 0x8, addend: 0x0, symName: __ZN5boost5beast9websocket6streamINS_4asio3ssl6streamINS3_19basic_stream_socketINS3_2ip3tcpENS3_15any_io_executorEEEEELb1EE5closeERKNS1_12close_reasonE, symObjAddr: 0x11A8, symBinAddr: 0x100006E10, symSize: 0xB4 }
  - { offsetInCU: 0x6635A, offset: 0x77F45, size: 0x8, addend: 0x0, symName: __ZN5boost5beast9websocket12close_reasonC1Et, symObjAddr: 0x125C, symBinAddr: 0x100006EC4, symSize: 0x34 }
  - { offsetInCU: 0x66392, offset: 0x77F7D, size: 0x8, addend: 0x0, symName: __ZNSt3__110unique_ptrIN5boost5beast9websocket6streamINS1_4asio3ssl6streamINS5_19basic_stream_socketINS5_2ip3tcpENS5_15any_io_executorEEEEELb1EEENS_14default_deleteISE_EEE5resetB8ue170006EPSE_, symObjAddr: 0x1290, symBinAddr: 0x100006EF8, symSize: 0x78 }
  - { offsetInCU: 0x663DA, offset: 0x77FC5, size: 0x8, addend: 0x0, symName: __ZN5boost4asio3ssl6detail12openssl_initILb1EEC1Ev, symObjAddr: 0x15F4, symBinAddr: 0x100006F70, symSize: 0x2C }
  - { offsetInCU: 0x66404, offset: 0x77FEF, size: 0x8, addend: 0x0, symName: __ZN5boost4asio3ssl6detail12openssl_initILb1EED1Ev, symObjAddr: 0x1620, symBinAddr: 0x100006F9C, symSize: 0x2C }
  - { offsetInCU: 0x66433, offset: 0x7801E, size: 0x8, addend: 0x0, symName: __ZN5boost4asio6detail10service_idINS1_16resolver_serviceINS0_2ip3tcpEEEEC1Ev, symObjAddr: 0x164C, symBinAddr: 0x100006FC8, symSize: 0x2C }
  - { offsetInCU: 0x66460, offset: 0x7804B, size: 0x8, addend: 0x0, symName: __ZN5boost4asio6detail10service_idINS1_16resolver_serviceINS0_2ip3tcpEEEED1Ev, symObjAddr: 0x1678, symBinAddr: 0x100006FF4, symSize: 0x2C }
  - { offsetInCU: 0x66492, offset: 0x7807D, size: 0x8, addend: 0x0, symName: __ZN5boost4asio6detail10service_idINS1_23reactive_socket_serviceINS0_2ip3tcpEEEEC1Ev, symObjAddr: 0x16A4, symBinAddr: 0x100007020, symSize: 0x2C }
  - { offsetInCU: 0x664BF, offset: 0x780AA, size: 0x8, addend: 0x0, symName: __ZN5boost4asio6detail10service_idINS1_23reactive_socket_serviceINS0_2ip3tcpEEEED1Ev, symObjAddr: 0x16D0, symBinAddr: 0x10000704C, symSize: 0x2C }
  - { offsetInCU: 0x664F1, offset: 0x780DC, size: 0x8, addend: 0x0, symName: __ZN5boost4asio6detail10service_idINS1_22deadline_timer_serviceINS1_18chrono_time_traitsINSt3__16chrono12steady_clockENS0_11wait_traitsIS7_EEEEEEEC1Ev, symObjAddr: 0x16FC, symBinAddr: 0x100007078, symSize: 0x2C }
  - { offsetInCU: 0x6651E, offset: 0x78109, size: 0x8, addend: 0x0, symName: __ZN5boost4asio6detail10service_idINS1_22deadline_timer_serviceINS1_18chrono_time_traitsINSt3__16chrono12steady_clockENS0_11wait_traitsIS7_EEEEEEED1Ev, symObjAddr: 0x1728, symBinAddr: 0x1000070A4, symSize: 0x2C }
  - { offsetInCU: 0x6654B, offset: 0x78136, size: 0x8, addend: 0x0, symName: __ZNK5boost4asio5error6detail12ssl_category4nameEv, symObjAddr: 0x23DC, symBinAddr: 0x1000070D0, symSize: 0x18 }
  - { offsetInCU: 0x66571, offset: 0x7815C, size: 0x8, addend: 0x0, symName: __ZNK5boost4asio5error6detail12ssl_category7messageEi, symObjAddr: 0x23F4, symBinAddr: 0x1000070E8, symSize: 0x1C0 }
  - { offsetInCU: 0x665E5, offset: 0x781D0, size: 0x8, addend: 0x0, symName: __ZNSt3__112basic_stringIcNS_11char_traitsIcEENS_9allocatorIcEEEpLB8ue170006EPKc, symObjAddr: 0x25B4, symBinAddr: 0x1000072A8, symSize: 0x2C }
  - { offsetInCU: 0x6661B, offset: 0x78206, size: 0x8, addend: 0x0, symName: __ZNK5boost4asio3ssl5error6detail15stream_category4nameEv, symObjAddr: 0x25E0, symBinAddr: 0x1000072D4, symSize: 0x18 }
  - { offsetInCU: 0x66641, offset: 0x7822C, size: 0x8, addend: 0x0, symName: __ZNK5boost4asio3ssl5error6detail15stream_category7messageEi, symObjAddr: 0x25F8, symBinAddr: 0x1000072EC, symSize: 0xB8 }
  - { offsetInCU: 0x66675, offset: 0x78260, size: 0x8, addend: 0x0, symName: __ZNSt3__110unique_ptrIN5boost5beast9websocket6streamINS1_4asio3ssl6streamINS5_19basic_stream_socketINS5_2ip3tcpENS5_15any_io_executorEEEEELb1EEENS_14default_deleteISE_EEEC2B8ue170006ILb1EvEEv, symObjAddr: 0x26B0, symBinAddr: 0x1000073A4, symSize: 0x3C }
  - { offsetInCU: 0x666B1, offset: 0x7829C, size: 0x8, addend: 0x0, symName: __ZNSt3__117__compressed_pairIPN5boost5beast9websocket6streamINS1_4asio3ssl6streamINS5_19basic_stream_socketINS5_2ip3tcpENS5_15any_io_executorEEEEELb1EEENS_14default_deleteISE_EEEC1B8ue170006INS_16__value_init_tagESK_EEOT_OT0_, symObjAddr: 0x26EC, symBinAddr: 0x1000073E0, symSize: 0x3C }
  - { offsetInCU: 0x66709, offset: 0x782F4, size: 0x8, addend: 0x0, symName: __ZNSt3__117__compressed_pairIPN5boost5beast9websocket6streamINS1_4asio3ssl6streamINS5_19basic_stream_socketINS5_2ip3tcpENS5_15any_io_executorEEEEELb1EEENS_14default_deleteISE_EEEC2B8ue170006INS_16__value_init_tagESK_EEOT_OT0_, symObjAddr: 0x2728, symBinAddr: 0x10000741C, symSize: 0x3C }
  - { offsetInCU: 0x66761, offset: 0x7834C, size: 0x8, addend: 0x0, symName: __ZNSt3__122__compressed_pair_elemIPN5boost5beast9websocket6streamINS1_4asio3ssl6streamINS5_19basic_stream_socketINS5_2ip3tcpENS5_15any_io_executorEEEEELb1EEELi0ELb0EEC2B8ue170006ENS_16__value_init_tagE, symObjAddr: 0x2764, symBinAddr: 0x100007458, symSize: 0x18 }
  - { offsetInCU: 0x66796, offset: 0x78381, size: 0x8, addend: 0x0, symName: __ZNSt3__122__compressed_pair_elemINS_14default_deleteIN5boost5beast9websocket6streamINS2_4asio3ssl6streamINS6_19basic_stream_socketINS6_2ip3tcpENS6_15any_io_executorEEEEELb1EEEEELi1ELb1EEC2B8ue170006ENS_16__value_init_tagE, symObjAddr: 0x277C, symBinAddr: 0x100007470, symSize: 0x14 }
  - { offsetInCU: 0x667D1, offset: 0x783BC, size: 0x8, addend: 0x0, symName: __ZN5boost4asio10io_contextC2Ev, symObjAddr: 0x2938, symBinAddr: 0x100007484, symSize: 0xF0 }
  - { offsetInCU: 0x6680D, offset: 0x783F8, size: 0x8, addend: 0x0, symName: __ZN5boost4asio28config_from_concurrency_hintC1Ev, symObjAddr: 0x2A28, symBinAddr: 0x100007574, symSize: 0x2C }
  - { offsetInCU: 0x66839, offset: 0x78424, size: 0x8, addend: 0x0, symName: __ZN5boost4asio17execution_contextC2ERKNS1_13service_makerE, symObjAddr: 0x2A54, symBinAddr: 0x1000075A0, symSize: 0xB0 }
  - { offsetInCU: 0x66873, offset: 0x7845E, size: 0x8, addend: 0x0, symName: __ZN5boost4asio28config_from_concurrency_hintD1Ev, symObjAddr: 0x2B04, symBinAddr: 0x100007650, symSize: 0x2C }
  - { offsetInCU: 0x6689F, offset: 0x7848A, size: 0x8, addend: 0x0, symName: __ZN5boost4asio10io_context8add_implEPNS0_6detail9schedulerE, symObjAddr: 0x2B30, symBinAddr: 0x10000767C, symSize: 0x94 }
  - { offsetInCU: 0x668E8, offset: 0x784D3, size: 0x8, addend: 0x0, symName: __ZN5boost4asio6detail9scheduler16get_default_taskERNS0_17execution_contextE, symObjAddr: 0x2BC4, symBinAddr: 0x100007710, symSize: 0x54 }
  - { offsetInCU: 0x66910, offset: 0x784FB, size: 0x8, addend: 0x0, symName: __ZN5boost4asio6detail9schedulerC1ERNS0_17execution_contextEbPFPNS1_14scheduler_taskES4_E, symObjAddr: 0x2C18, symBinAddr: 0x100007764, symSize: 0x50 }
  - { offsetInCU: 0x66966, offset: 0x78551, size: 0x8, addend: 0x0, symName: __ZN5boost4asio28config_from_concurrency_hintC2Ev, symObjAddr: 0x2CE8, symBinAddr: 0x1000077B4, symSize: 0x4C }
  - { offsetInCU: 0x66992, offset: 0x7857D, size: 0x8, addend: 0x0, symName: __ZN5boost4asio17execution_context13service_makerC2Ev, symObjAddr: 0x2D34, symBinAddr: 0x100007800, symSize: 0x44 }
  - { offsetInCU: 0x669BF, offset: 0x785AA, size: 0x8, addend: 0x0, symName: __ZNK5boost4asio28config_from_concurrency_hint4makeERNS0_17execution_contextE, symObjAddr: 0x2D78, symBinAddr: 0x100007844, symSize: 0x74 }
  - { offsetInCU: 0x669F5, offset: 0x785E0, size: 0x8, addend: 0x0, symName: __ZN5boost4asio28config_from_concurrency_hintD0Ev, symObjAddr: 0x2DEC, symBinAddr: 0x1000078B8, symSize: 0x30 }
  - { offsetInCU: 0x66A21, offset: 0x7860C, size: 0x8, addend: 0x0, symName: __ZN5boost4asio17execution_context13service_makerD1Ev, symObjAddr: 0x2E30, symBinAddr: 0x1000078E8, symSize: 0x14 }
  - { offsetInCU: 0x66A4D, offset: 0x78638, size: 0x8, addend: 0x0, symName: __ZN5boost4asio17execution_context13service_makerD0Ev, symObjAddr: 0x2E44, symBinAddr: 0x1000078FC, symSize: 0xC }
  - { offsetInCU: 0x66A88, offset: 0x78673, size: 0x8, addend: 0x0, symName: __ZN5boost4asio6detail36config_from_concurrency_hint_serviceC1ERNS0_17execution_contextEi, symObjAddr: 0x2F40, symBinAddr: 0x1000079F8, symSize: 0x3C }
  - { offsetInCU: 0x66AEC, offset: 0x786D7, size: 0x8, addend: 0x0, symName: __ZN5boost4asio6detail10scoped_ptrINS1_36config_from_concurrency_hint_serviceEEC1EPS3_, symObjAddr: 0x2F7C, symBinAddr: 0x100007A34, symSize: 0x34 }
  - { offsetInCU: 0x66B24, offset: 0x7870F, size: 0x8, addend: 0x0, symName: __ZN5boost4asio6detail16service_registry11add_serviceINS1_36config_from_concurrency_hint_serviceEEEvPT_, symObjAddr: 0x2FB0, symBinAddr: 0x100007A68, symSize: 0x54 }
  - { offsetInCU: 0x66B73, offset: 0x7875E, size: 0x8, addend: 0x0, symName: __ZN5boost4asio6detail10scoped_ptrINS1_36config_from_concurrency_hint_serviceEE3getEv, symObjAddr: 0x3004, symBinAddr: 0x100007ABC, symSize: 0x18 }
  - { offsetInCU: 0x66B99, offset: 0x78784, size: 0x8, addend: 0x0, symName: __ZN5boost4asio6detail10scoped_ptrINS1_36config_from_concurrency_hint_serviceEEdeEv, symObjAddr: 0x301C, symBinAddr: 0x100007AD4, symSize: 0x18 }
  - { offsetInCU: 0x66BBF, offset: 0x787AA, size: 0x8, addend: 0x0, symName: __ZN5boost4asio6detail10scoped_ptrINS1_36config_from_concurrency_hint_serviceEE7releaseEv, symObjAddr: 0x3034, symBinAddr: 0x100007AEC, symSize: 0x24 }
  - { offsetInCU: 0x66BF3, offset: 0x787DE, size: 0x8, addend: 0x0, symName: __ZN5boost4asio6detail10scoped_ptrINS1_36config_from_concurrency_hint_serviceEED1Ev, symObjAddr: 0x3058, symBinAddr: 0x100007B10, symSize: 0x2C }
  - { offsetInCU: 0x66C1D, offset: 0x78808, size: 0x8, addend: 0x0, symName: __ZN5boost4asio6detail36config_from_concurrency_hint_serviceC2ERNS0_17execution_contextEi, symObjAddr: 0x3084, symBinAddr: 0x100007B3C, symSize: 0x58 }
  - { offsetInCU: 0x66C63, offset: 0x7884E, size: 0x8, addend: 0x0, symName: __ZN5boost4asio14config_serviceC2ERNS0_17execution_contextE, symObjAddr: 0x30DC, symBinAddr: 0x100007B94, symSize: 0x4C }
  - { offsetInCU: 0x66C9D, offset: 0x78888, size: 0x8, addend: 0x0, symName: __ZN5boost4asio6detail36config_from_concurrency_hint_serviceD1Ev, symObjAddr: 0x3128, symBinAddr: 0x100007BE0, symSize: 0x2C }
  - { offsetInCU: 0x66CC9, offset: 0x788B4, size: 0x8, addend: 0x0, symName: __ZN5boost4asio6detail36config_from_concurrency_hint_serviceD0Ev, symObjAddr: 0x3154, symBinAddr: 0x100007C0C, symSize: 0x30 }
  - { offsetInCU: 0x66CF5, offset: 0x788E0, size: 0x8, addend: 0x0, symName: __ZN5boost4asio14config_service8shutdownEv, symObjAddr: 0x3184, symBinAddr: 0x100007C3C, symSize: 0x10 }
  - { offsetInCU: 0x66D1D, offset: 0x78908, size: 0x8, addend: 0x0, symName: __ZN5boost4asio17execution_context7service11notify_forkENS1_10fork_eventE, symObjAddr: 0x3194, symBinAddr: 0x100007C4C, symSize: 0x14 }
  - { offsetInCU: 0x66D50, offset: 0x7893B, size: 0x8, addend: 0x0, symName: __ZNK5boost4asio6detail36config_from_concurrency_hint_service9get_valueEPKcS4_Pcm, symObjAddr: 0x31A8, symBinAddr: 0x100007C60, symSize: 0x290 }
  - { offsetInCU: 0x66DAE, offset: 0x78999, size: 0x8, addend: 0x0, symName: __ZN5boost4asio6detail30execution_context_service_baseINS0_14config_serviceEEC2ERNS0_17execution_contextE, symObjAddr: 0x3438, symBinAddr: 0x100007EF0, symSize: 0x4C }
  - { offsetInCU: 0x66DE8, offset: 0x789D3, size: 0x8, addend: 0x0, symName: __ZN5boost4asio14config_serviceD1Ev, symObjAddr: 0x3484, symBinAddr: 0x100007F3C, symSize: 0x2C }
  - { offsetInCU: 0x66E14, offset: 0x789FF, size: 0x8, addend: 0x0, symName: __ZN5boost4asio14config_serviceD0Ev, symObjAddr: 0x34B0, symBinAddr: 0x100007F68, symSize: 0x30 }
  - { offsetInCU: 0x66E40, offset: 0x78A2B, size: 0x8, addend: 0x0, symName: __ZNK5boost4asio14config_service9get_valueEPKcS3_Pcm, symObjAddr: 0x34E0, symBinAddr: 0x100007F98, symSize: 0x24 }
  - { offsetInCU: 0x66E94, offset: 0x78A7F, size: 0x8, addend: 0x0, symName: __ZN5boost4asio17execution_context7serviceC2ERS1_, symObjAddr: 0x3504, symBinAddr: 0x100007FBC, symSize: 0x88 }
  - { offsetInCU: 0x66ECE, offset: 0x78AB9, size: 0x8, addend: 0x0, symName: __ZN5boost4asio6detail30execution_context_service_baseINS0_14config_serviceEED1Ev, symObjAddr: 0x358C, symBinAddr: 0x100008044, symSize: 0x14 }
  - { offsetInCU: 0x66EFB, offset: 0x78AE6, size: 0x8, addend: 0x0, symName: __ZN5boost4asio6detail30execution_context_service_baseINS0_14config_serviceEED0Ev, symObjAddr: 0x35A0, symBinAddr: 0x100008058, symSize: 0xC }
  - { offsetInCU: 0x66F28, offset: 0x78B13, size: 0x8, addend: 0x0, symName: __ZN5boost4asio17execution_context7service3keyC1Ev, symObjAddr: 0x35AC, symBinAddr: 0x100008064, symSize: 0x2C }
  - { offsetInCU: 0x66F52, offset: 0x78B3D, size: 0x8, addend: 0x0, symName: __ZN5boost4asio17execution_context7serviceD1Ev, symObjAddr: 0x35EC, symBinAddr: 0x100008090, symSize: 0x14 }
  - { offsetInCU: 0x66F7E, offset: 0x78B69, size: 0x8, addend: 0x0, symName: __ZN5boost4asio17execution_context7serviceD0Ev, symObjAddr: 0x3600, symBinAddr: 0x1000080A4, symSize: 0xC }
  - { offsetInCU: 0x66FAA, offset: 0x78B95, size: 0x8, addend: 0x0, symName: __ZN5boost4asio17execution_context7service3keyC2Ev, symObjAddr: 0x360C, symBinAddr: 0x1000080B0, symSize: 0x1C }
  - { offsetInCU: 0x66FD4, offset: 0x78BBF, size: 0x8, addend: 0x0, symName: __ZN5boost4asio14config_serviceD2Ev, symObjAddr: 0x3628, symBinAddr: 0x1000080CC, symSize: 0x2C }
  - { offsetInCU: 0x67000, offset: 0x78BEB, size: 0x8, addend: 0x0, symName: __ZN5boost4asio6detail30execution_context_service_baseINS0_14config_serviceEED2Ev, symObjAddr: 0x3654, symBinAddr: 0x1000080F8, symSize: 0x2C }
  - { offsetInCU: 0x6702D, offset: 0x78C18, size: 0x8, addend: 0x0, symName: __ZN5boost4asio17execution_context7serviceD2Ev, symObjAddr: 0x3680, symBinAddr: 0x100008124, symSize: 0x2C }
  - { offsetInCU: 0x67059, offset: 0x78C44, size: 0x8, addend: 0x0, symName: __ZN5boost4asio6detail36config_from_concurrency_hint_serviceD2Ev, symObjAddr: 0x36AC, symBinAddr: 0x100008150, symSize: 0x2C }
  - { offsetInCU: 0x67085, offset: 0x78C70, size: 0x8, addend: 0x0, symName: __ZN5boost4asio6detail10scoped_ptrINS1_36config_from_concurrency_hint_serviceEEC2EPS3_, symObjAddr: 0x36D8, symBinAddr: 0x10000817C, symSize: 0x20 }
  - { offsetInCU: 0x670BD, offset: 0x78CA8, size: 0x8, addend: 0x0, symName: __ZN5boost4asio6detail16service_registry8init_keyINS1_36config_from_concurrency_hint_serviceEEEvRNS0_17execution_context7service3keyEz, symObjAddr: 0x36F8, symBinAddr: 0x10000819C, symSize: 0x2C }
  - { offsetInCU: 0x670ED, offset: 0x78CD8, size: 0x8, addend: 0x0, symName: __ZN5boost4asio6detail16service_registry14do_add_serviceERKNS0_17execution_context7service3keyEPS4_, symObjAddr: 0x3724, symBinAddr: 0x1000081C8, symSize: 0x174 }
  - { offsetInCU: 0x67160, offset: 0x78D4B, size: 0x8, addend: 0x0, symName: __ZN5boost4asio6detail16service_registry16init_key_from_idINS0_14config_serviceEEEvRNS0_17execution_context7service3keyERKNS1_10service_idIT_EE, symObjAddr: 0x3898, symBinAddr: 0x10000833C, symSize: 0x2C }
  - { offsetInCU: 0x6719A, offset: 0x78D85, size: 0x8, addend: 0x0, symName: __ZN5boost4asio17execution_context7service7contextEv, symObjAddr: 0x38C4, symBinAddr: 0x100008368, symSize: 0x18 }
  - { offsetInCU: 0x671C3, offset: 0x78DAE, size: 0x8, addend: 0x0, symName: __ZN5boost4asio21invalid_service_ownerC1Ev, symObjAddr: 0x3948, symBinAddr: 0x1000083EC, symSize: 0x2C }
  - { offsetInCU: 0x671EF, offset: 0x78DDA, size: 0x8, addend: 0x0, symName: __ZN5boost4asio21invalid_service_ownerD1Ev, symObjAddr: 0x3974, symBinAddr: 0x100008418, symSize: 0x2C }
  - { offsetInCU: 0x6721C, offset: 0x78E07, size: 0x8, addend: 0x0, symName: __ZN5boost4asio6detail11scoped_lockINS1_11posix_mutexEEC1ERS3_, symObjAddr: 0x39A0, symBinAddr: 0x100008444, symSize: 0x34 }
  - { offsetInCU: 0x67256, offset: 0x78E41, size: 0x8, addend: 0x0, symName: __ZN5boost4asio6detail16service_registry10keys_matchERKNS0_17execution_context7service3keyES7_, symObjAddr: 0x39D4, symBinAddr: 0x100008478, symSize: 0x108 }
  - { offsetInCU: 0x6728E, offset: 0x78E79, size: 0x8, addend: 0x0, symName: __ZN5boost4asio22service_already_existsC1Ev, symObjAddr: 0x3B48, symBinAddr: 0x1000085EC, symSize: 0x2C }
  - { offsetInCU: 0x672BA, offset: 0x78EA5, size: 0x8, addend: 0x0, symName: __ZN5boost4asio22service_already_existsD1Ev, symObjAddr: 0x3B74, symBinAddr: 0x100008618, symSize: 0x2C }
  - { offsetInCU: 0x672E7, offset: 0x78ED2, size: 0x8, addend: 0x0, symName: __ZN5boost4asio6detail11scoped_lockINS1_11posix_mutexEED1Ev, symObjAddr: 0x3BA0, symBinAddr: 0x100008644, symSize: 0x2C }
  - { offsetInCU: 0x67311, offset: 0x78EFC, size: 0x8, addend: 0x0, symName: __ZN5boost10wrapexceptINS_4asio21invalid_service_ownerEEC1ERKS2_, symObjAddr: 0x3BDC, symBinAddr: 0x100008680, symSize: 0x34 }
  - { offsetInCU: 0x6734B, offset: 0x78F36, size: 0x8, addend: 0x0, symName: __ZN5boost10wrapexceptINS_4asio21invalid_service_ownerEED1Ev, symObjAddr: 0x3C10, symBinAddr: 0x1000086B4, symSize: 0x2C }
  - { offsetInCU: 0x67378, offset: 0x78F63, size: 0x8, addend: 0x0, symName: __ZN5boost10wrapexceptINS_4asio21invalid_service_ownerEEC2ERKS2_, symObjAddr: 0x3C3C, symBinAddr: 0x1000086E0, symSize: 0xE4 }
  - { offsetInCU: 0x673B2, offset: 0x78F9D, size: 0x8, addend: 0x0, symName: __ZN5boost16exception_detail10clone_baseC2Ev, symObjAddr: 0x3D20, symBinAddr: 0x1000087C4, symSize: 0x24 }
  - { offsetInCU: 0x673E0, offset: 0x78FCB, size: 0x8, addend: 0x0, symName: __ZN5boost4asio21invalid_service_ownerC2ERKS1_, symObjAddr: 0x3D44, symBinAddr: 0x1000087E8, symSize: 0x4C }
  - { offsetInCU: 0x67416, offset: 0x79001, size: 0x8, addend: 0x0, symName: __ZN5boost9exceptionC2Ev, symObjAddr: 0x3D90, symBinAddr: 0x100008834, symSize: 0x54 }
  - { offsetInCU: 0x67440, offset: 0x7902B, size: 0x8, addend: 0x0, symName: __ZN5boost10wrapexceptINS_4asio21invalid_service_ownerEE9copy_fromEPKv, symObjAddr: 0x3DE4, symBinAddr: 0x100008888, symSize: 0x14 }
  - { offsetInCU: 0x67472, offset: 0x7905D, size: 0x8, addend: 0x0, symName: __ZN5boost9exceptionD2Ev, symObjAddr: 0x3DF8, symBinAddr: 0x10000889C, symSize: 0x40 }
  - { offsetInCU: 0x6749E, offset: 0x79089, size: 0x8, addend: 0x0, symName: __ZN5boost4asio21invalid_service_ownerD2Ev, symObjAddr: 0x3E38, symBinAddr: 0x1000088DC, symSize: 0x2C }
  - { offsetInCU: 0x674CB, offset: 0x790B6, size: 0x8, addend: 0x0, symName: __ZN5boost16exception_detail10clone_baseD2Ev, symObjAddr: 0x3E64, symBinAddr: 0x100008908, symSize: 0x14 }
  - { offsetInCU: 0x674F5, offset: 0x790E0, size: 0x8, addend: 0x0, symName: __ZNK5boost10wrapexceptINS_4asio21invalid_service_ownerEE5cloneEv, symObjAddr: 0x3E78, symBinAddr: 0x10000891C, symSize: 0xE4 }
  - { offsetInCU: 0x6753B, offset: 0x79126, size: 0x8, addend: 0x0, symName: __ZNK5boost10wrapexceptINS_4asio21invalid_service_ownerEE7rethrowEv, symObjAddr: 0x3F5C, symBinAddr: 0x100008A00, symSize: 0x6C }
  - { offsetInCU: 0x67561, offset: 0x7914C, size: 0x8, addend: 0x0, symName: __ZN5boost10wrapexceptINS_4asio21invalid_service_ownerEED0Ev, symObjAddr: 0x3FC8, symBinAddr: 0x100008A6C, symSize: 0x30 }
  - { offsetInCU: 0x6758E, offset: 0x79179, size: 0x8, addend: 0x0, symName: __ZThn8_N5boost10wrapexceptINS_4asio21invalid_service_ownerEED1Ev, symObjAddr: 0x3FF8, symBinAddr: 0x100008A9C, symSize: 0x1C }
  - { offsetInCU: 0x675A5, offset: 0x79190, size: 0x8, addend: 0x0, symName: __ZThn8_N5boost10wrapexceptINS_4asio21invalid_service_ownerEED0Ev, symObjAddr: 0x4014, symBinAddr: 0x100008AB8, symSize: 0x18 }
  - { offsetInCU: 0x675BC, offset: 0x791A7, size: 0x8, addend: 0x0, symName: __ZThn24_N5boost10wrapexceptINS_4asio21invalid_service_ownerEED1Ev, symObjAddr: 0x402C, symBinAddr: 0x100008AD0, symSize: 0x1C }
  - { offsetInCU: 0x675D3, offset: 0x791BE, size: 0x8, addend: 0x0, symName: __ZThn24_N5boost10wrapexceptINS_4asio21invalid_service_ownerEED0Ev, symObjAddr: 0x4048, symBinAddr: 0x100008AEC, symSize: 0x18 }
  - { offsetInCU: 0x675EA, offset: 0x791D5, size: 0x8, addend: 0x0, symName: __ZN5boost16exception_detail10clone_baseD1Ev, symObjAddr: 0x4060, symBinAddr: 0x100008B04, symSize: 0x14 }
  - { offsetInCU: 0x67614, offset: 0x791FF, size: 0x8, addend: 0x0, symName: __ZN5boost16exception_detail10clone_baseD0Ev, symObjAddr: 0x4074, symBinAddr: 0x100008B18, symSize: 0xC }
  - { offsetInCU: 0x6763E, offset: 0x79229, size: 0x8, addend: 0x0, symName: __ZN5boost4asio21invalid_service_ownerD0Ev, symObjAddr: 0x4080, symBinAddr: 0x100008B24, symSize: 0x30 }
  - { offsetInCU: 0x6766B, offset: 0x79256, size: 0x8, addend: 0x0, symName: __ZN5boost16exception_detail12refcount_ptrINS0_20error_info_containerEEC1Ev, symObjAddr: 0x40B0, symBinAddr: 0x100008B54, symSize: 0x2C }
  - { offsetInCU: 0x67695, offset: 0x79280, size: 0x8, addend: 0x0, symName: __ZN5boost16exception_detail12refcount_ptrINS0_20error_info_containerEEC2Ev, symObjAddr: 0x40DC, symBinAddr: 0x100008B80, symSize: 0x18 }
  - { offsetInCU: 0x676BF, offset: 0x792AA, size: 0x8, addend: 0x0, symName: __ZN5boost16exception_detail12refcount_ptrINS0_20error_info_containerEED1Ev, symObjAddr: 0x40F4, symBinAddr: 0x100008B98, symSize: 0x2C }
  - { offsetInCU: 0x676E9, offset: 0x792D4, size: 0x8, addend: 0x0, symName: __ZN5boost16exception_detail12refcount_ptrINS0_20error_info_containerEED2Ev, symObjAddr: 0x4120, symBinAddr: 0x100008BC4, symSize: 0x34 }
  - { offsetInCU: 0x67713, offset: 0x792FE, size: 0x8, addend: 0x0, symName: __ZN5boost16exception_detail12refcount_ptrINS0_20error_info_containerEE7releaseEv, symObjAddr: 0x4154, symBinAddr: 0x100008BF8, symSize: 0x60 }
  - { offsetInCU: 0x6773E, offset: 0x79329, size: 0x8, addend: 0x0, symName: __ZN5boost10wrapexceptINS_4asio21invalid_service_ownerEEC1ERKS3_, symObjAddr: 0x41B4, symBinAddr: 0x100008C58, symSize: 0x34 }
  - { offsetInCU: 0x6777E, offset: 0x79369, size: 0x8, addend: 0x0, symName: __ZN5boost10wrapexceptINS_4asio21invalid_service_ownerEE7deleterD1Ev, symObjAddr: 0x430C, symBinAddr: 0x100008DB0, symSize: 0x2C }
  - { offsetInCU: 0x677A8, offset: 0x79393, size: 0x8, addend: 0x0, symName: __ZN5boost10wrapexceptINS_4asio21invalid_service_ownerEEC2ERKS3_, symObjAddr: 0x4338, symBinAddr: 0x100008DDC, symSize: 0xC4 }
  - { offsetInCU: 0x677E3, offset: 0x793CE, size: 0x8, addend: 0x0, symName: __ZN5boost16exception_detail10clone_baseC2ERKS1_, symObjAddr: 0x43FC, symBinAddr: 0x100008EA0, symSize: 0x28 }
  - { offsetInCU: 0x6781F, offset: 0x7940A, size: 0x8, addend: 0x0, symName: __ZN5boost9exceptionC2ERKS0_, symObjAddr: 0x4424, symBinAddr: 0x100008EC8, symSize: 0x60 }
  - { offsetInCU: 0x67855, offset: 0x79440, size: 0x8, addend: 0x0, symName: __ZN5boost16exception_detail12refcount_ptrINS0_20error_info_containerEEC1ERKS3_, symObjAddr: 0x4484, symBinAddr: 0x100008F28, symSize: 0x34 }
  - { offsetInCU: 0x6788F, offset: 0x7947A, size: 0x8, addend: 0x0, symName: __ZN5boost16exception_detail12refcount_ptrINS0_20error_info_containerEEC2ERKS3_, symObjAddr: 0x44B8, symBinAddr: 0x100008F5C, symSize: 0x3C }
  - { offsetInCU: 0x678C9, offset: 0x794B4, size: 0x8, addend: 0x0, symName: __ZN5boost16exception_detail12refcount_ptrINS0_20error_info_containerEE7add_refEv, symObjAddr: 0x44F4, symBinAddr: 0x100008F98, symSize: 0x50 }
  - { offsetInCU: 0x678EF, offset: 0x794DA, size: 0x8, addend: 0x0, symName: __ZNK5boost16exception_detail12refcount_ptrINS0_20error_info_containerEE3getEv, symObjAddr: 0x4544, symBinAddr: 0x100008FE8, symSize: 0x18 }
  - { offsetInCU: 0x67915, offset: 0x79500, size: 0x8, addend: 0x0, symName: __ZN5boost16exception_detail12refcount_ptrINS0_20error_info_containerEEaSERKS3_, symObjAddr: 0x455C, symBinAddr: 0x100009000, symSize: 0x38 }
  - { offsetInCU: 0x6794B, offset: 0x79536, size: 0x8, addend: 0x0, symName: __ZN5boost16exception_detail12refcount_ptrINS0_20error_info_containerEE5adoptEPS2_, symObjAddr: 0x4594, symBinAddr: 0x100009038, symSize: 0x3C }
  - { offsetInCU: 0x67981, offset: 0x7956C, size: 0x8, addend: 0x0, symName: __ZN5boost10wrapexceptINS_4asio21invalid_service_ownerEE7deleterD2Ev, symObjAddr: 0x45D0, symBinAddr: 0x100009074, symSize: 0x58 }
  - { offsetInCU: 0x679AB, offset: 0x79596, size: 0x8, addend: 0x0, symName: __ZN5boost10wrapexceptINS_4asio21invalid_service_ownerEED2Ev, symObjAddr: 0x4628, symBinAddr: 0x1000090CC, symSize: 0x44 }
  - { offsetInCU: 0x679D8, offset: 0x795C3, size: 0x8, addend: 0x0, symName: __ZN5boost4asio21invalid_service_ownerC2Ev, symObjAddr: 0x466C, symBinAddr: 0x100009110, symSize: 0x4C }
  - { offsetInCU: 0x67A04, offset: 0x795EF, size: 0x8, addend: 0x0, symName: __ZN5boost4asio6detail11scoped_lockINS1_11posix_mutexEEC2ERS3_, symObjAddr: 0x46B8, symBinAddr: 0x10000915C, symSize: 0x74 }
  - { offsetInCU: 0x67A74, offset: 0x7965F, size: 0x8, addend: 0x0, symName: __ZNKSt9type_infoeqB8ue170006ERKS_, symObjAddr: 0x4750, symBinAddr: 0x1000091D0, symSize: 0xDC }
  - { offsetInCU: 0x67B13, offset: 0x796FE, size: 0x8, addend: 0x0, symName: __ZNSt27__type_info_implementations30__non_unique_arm_rtti_bit_impl21__is_type_name_uniqueB8ue170006Em, symObjAddr: 0x482C, symBinAddr: 0x1000092AC, symSize: 0x20 }
  - { offsetInCU: 0x67B38, offset: 0x79723, size: 0x8, addend: 0x0, symName: __ZN5boost10wrapexceptINS_4asio22service_already_existsEEC1ERKS2_, symObjAddr: 0x484C, symBinAddr: 0x1000092CC, symSize: 0x34 }
  - { offsetInCU: 0x67B72, offset: 0x7975D, size: 0x8, addend: 0x0, symName: __ZN5boost10wrapexceptINS_4asio22service_already_existsEED1Ev, symObjAddr: 0x4880, symBinAddr: 0x100009300, symSize: 0x2C }
  - { offsetInCU: 0x67B9F, offset: 0x7978A, size: 0x8, addend: 0x0, symName: __ZN5boost10wrapexceptINS_4asio22service_already_existsEEC2ERKS2_, symObjAddr: 0x48AC, symBinAddr: 0x10000932C, symSize: 0xE4 }
  - { offsetInCU: 0x67BD9, offset: 0x797C4, size: 0x8, addend: 0x0, symName: __ZN5boost4asio22service_already_existsC2ERKS1_, symObjAddr: 0x4990, symBinAddr: 0x100009410, symSize: 0x4C }
  - { offsetInCU: 0x67C0F, offset: 0x797FA, size: 0x8, addend: 0x0, symName: __ZN5boost10wrapexceptINS_4asio22service_already_existsEE9copy_fromEPKv, symObjAddr: 0x49DC, symBinAddr: 0x10000945C, symSize: 0x14 }
  - { offsetInCU: 0x67C41, offset: 0x7982C, size: 0x8, addend: 0x0, symName: __ZN5boost4asio22service_already_existsD2Ev, symObjAddr: 0x49F0, symBinAddr: 0x100009470, symSize: 0x2C }
  - { offsetInCU: 0x67C6E, offset: 0x79859, size: 0x8, addend: 0x0, symName: __ZNK5boost10wrapexceptINS_4asio22service_already_existsEE5cloneEv, symObjAddr: 0x4A1C, symBinAddr: 0x10000949C, symSize: 0xE4 }
  - { offsetInCU: 0x67CB4, offset: 0x7989F, size: 0x8, addend: 0x0, symName: __ZNK5boost10wrapexceptINS_4asio22service_already_existsEE7rethrowEv, symObjAddr: 0x4B00, symBinAddr: 0x100009580, symSize: 0x6C }
  - { offsetInCU: 0x67CDA, offset: 0x798C5, size: 0x8, addend: 0x0, symName: __ZN5boost10wrapexceptINS_4asio22service_already_existsEED0Ev, symObjAddr: 0x4B6C, symBinAddr: 0x1000095EC, symSize: 0x30 }
  - { offsetInCU: 0x67D07, offset: 0x798F2, size: 0x8, addend: 0x0, symName: __ZThn8_N5boost10wrapexceptINS_4asio22service_already_existsEED1Ev, symObjAddr: 0x4B9C, symBinAddr: 0x10000961C, symSize: 0x1C }
  - { offsetInCU: 0x67D1E, offset: 0x79909, size: 0x8, addend: 0x0, symName: __ZThn8_N5boost10wrapexceptINS_4asio22service_already_existsEED0Ev, symObjAddr: 0x4BB8, symBinAddr: 0x100009638, symSize: 0x18 }
  - { offsetInCU: 0x67D35, offset: 0x79920, size: 0x8, addend: 0x0, symName: __ZThn24_N5boost10wrapexceptINS_4asio22service_already_existsEED1Ev, symObjAddr: 0x4BD0, symBinAddr: 0x100009650, symSize: 0x1C }
  - { offsetInCU: 0x67D4C, offset: 0x79937, size: 0x8, addend: 0x0, symName: __ZThn24_N5boost10wrapexceptINS_4asio22service_already_existsEED0Ev, symObjAddr: 0x4BEC, symBinAddr: 0x10000966C, symSize: 0x18 }
  - { offsetInCU: 0x67D63, offset: 0x7994E, size: 0x8, addend: 0x0, symName: __ZN5boost4asio22service_already_existsD0Ev, symObjAddr: 0x4C04, symBinAddr: 0x100009684, symSize: 0x30 }
  - { offsetInCU: 0x67D95, offset: 0x79980, size: 0x8, addend: 0x0, symName: __ZN5boost10wrapexceptINS_4asio22service_already_existsEEC1ERKS3_, symObjAddr: 0x4C34, symBinAddr: 0x1000096B4, symSize: 0x34 }
  - { offsetInCU: 0x67DD5, offset: 0x799C0, size: 0x8, addend: 0x0, symName: __ZN5boost10wrapexceptINS_4asio22service_already_existsEE7deleterD1Ev, symObjAddr: 0x4C68, symBinAddr: 0x1000096E8, symSize: 0x2C }
  - { offsetInCU: 0x67DFF, offset: 0x799EA, size: 0x8, addend: 0x0, symName: __ZN5boost10wrapexceptINS_4asio22service_already_existsEEC2ERKS3_, symObjAddr: 0x4C94, symBinAddr: 0x100009714, symSize: 0xC4 }
  - { offsetInCU: 0x67E35, offset: 0x79A20, size: 0x8, addend: 0x0, symName: __ZN5boost10wrapexceptINS_4asio22service_already_existsEE7deleterD2Ev, symObjAddr: 0x4D58, symBinAddr: 0x1000097D8, symSize: 0x58 }
  - { offsetInCU: 0x67E5F, offset: 0x79A4A, size: 0x8, addend: 0x0, symName: __ZN5boost10wrapexceptINS_4asio22service_already_existsEED2Ev, symObjAddr: 0x4DB0, symBinAddr: 0x100009830, symSize: 0x44 }
  - { offsetInCU: 0x67E8C, offset: 0x79A77, size: 0x8, addend: 0x0, symName: __ZN5boost4asio22service_already_existsC2Ev, symObjAddr: 0x4DF4, symBinAddr: 0x100009874, symSize: 0x4C }
  - { offsetInCU: 0x67EB8, offset: 0x79AA3, size: 0x8, addend: 0x0, symName: __ZN5boost4asio6detail11scoped_lockINS1_11posix_mutexEED2Ev, symObjAddr: 0x4E40, symBinAddr: 0x1000098C0, symSize: 0x5C }
  - { offsetInCU: 0x67EE2, offset: 0x79ACD, size: 0x8, addend: 0x0, symName: __ZN5boost4asio6detail10scoped_ptrINS1_36config_from_concurrency_hint_serviceEED2Ev, symObjAddr: 0x4EC0, symBinAddr: 0x10000991C, symSize: 0x58 }
  - { offsetInCU: 0x67F0C, offset: 0x79AF7, size: 0x8, addend: 0x0, symName: __ZN5boost4asio6detail16service_registryC1ERNS0_17execution_contextE, symObjAddr: 0x4F18, symBinAddr: 0x100009974, symSize: 0x34 }
  - { offsetInCU: 0x67F49, offset: 0x79B34, size: 0x8, addend: 0x0, symName: __ZN5boost4asio6detail16service_registryC2ERNS0_17execution_contextE, symObjAddr: 0x4F4C, symBinAddr: 0x1000099A8, symSize: 0x70 }
  - { offsetInCU: 0x67F86, offset: 0x79B71, size: 0x8, addend: 0x0, symName: __ZN5boost4asio6detail11posix_mutexC1Ev, symObjAddr: 0x4FBC, symBinAddr: 0x100009A18, symSize: 0x2C }
  - { offsetInCU: 0x67FB2, offset: 0x79B9D, size: 0x8, addend: 0x0, symName: __ZN5boost4asio6detail11posix_mutexC2Ev, symObjAddr: 0x4FE8, symBinAddr: 0x100009A44, symSize: 0xC0 }
  - { offsetInCU: 0x68001, offset: 0x79BEC, size: 0x8, addend: 0x0, symName: __ZN5boost15source_locationC1ERKNSt3__115source_locationE, symObjAddr: 0x50F0, symBinAddr: 0x100009B4C, symSize: 0x34 }
  - { offsetInCU: 0x68039, offset: 0x79C24, size: 0x8, addend: 0x0, symName: __ZNK5boost6system10error_codecvbEv, symObjAddr: 0x5124, symBinAddr: 0x100009B80, symSize: 0x28 }
  - { offsetInCU: 0x6805F, offset: 0x79C4A, size: 0x8, addend: 0x0, symName: __ZNK5boost6system10error_code6failedEv, symObjAddr: 0x51AC, symBinAddr: 0x100009C08, symSize: 0xA8 }
  - { offsetInCU: 0x680A4, offset: 0x79C8F, size: 0x8, addend: 0x0, symName: __ZN5boost6system12system_errorC1ERKNS0_10error_codeEPKc, symObjAddr: 0x5254, symBinAddr: 0x100009CB0, symSize: 0x3C }
  - { offsetInCU: 0x680EE, offset: 0x79CD9, size: 0x8, addend: 0x0, symName: __ZN5boost6system12system_errorC2ERKNS0_10error_codeEPKc, symObjAddr: 0x5304, symBinAddr: 0x100009D60, symSize: 0x14C }
  - { offsetInCU: 0x68138, offset: 0x79D23, size: 0x8, addend: 0x0, symName: __ZNK5boost6system10error_code4whatEv, symObjAddr: 0x54D0, symBinAddr: 0x100009F2C, symSize: 0x164 }
  - { offsetInCU: 0x6816F, offset: 0x79D5A, size: 0x8, addend: 0x0, symName: __ZN5boost6system12system_errorD0Ev, symObjAddr: 0x5634, symBinAddr: 0x10000A090, symSize: 0x30 }
  - { offsetInCU: 0x6819C, offset: 0x79D87, size: 0x8, addend: 0x0, symName: __ZNSt3__112basic_stringIcNS_11char_traitsIcEENS_9allocatorIcEEE6appendB8ue170006ERKS5_, symObjAddr: 0x5664, symBinAddr: 0x10000A0C0, symSize: 0x4C }
  - { offsetInCU: 0x681D2, offset: 0x79DBD, size: 0x8, addend: 0x0, symName: __ZNSt3__112basic_stringIcNS_11char_traitsIcEENS_9allocatorIcEEEC1B8ue170006EOS5_, symObjAddr: 0x56B0, symBinAddr: 0x10000A10C, symSize: 0x34 }
  - { offsetInCU: 0x6820C, offset: 0x79DF7, size: 0x8, addend: 0x0, symName: __ZNKSt3__112basic_stringIcNS_11char_traitsIcEENS_9allocatorIcEEE4sizeB8ue170006Ev, symObjAddr: 0x570C, symBinAddr: 0x10000A140, symSize: 0x54 }
  - { offsetInCU: 0x68232, offset: 0x79E1D, size: 0x8, addend: 0x0, symName: __ZNKSt3__112basic_stringIcNS_11char_traitsIcEENS_9allocatorIcEEE15__get_long_sizeB8ue170006Ev, symObjAddr: 0x589C, symBinAddr: 0x10000A194, symSize: 0x28 }
  - { offsetInCU: 0x68258, offset: 0x79E43, size: 0x8, addend: 0x0, symName: __ZNKSt3__112basic_stringIcNS_11char_traitsIcEENS_9allocatorIcEEE16__get_short_sizeB8ue170006Ev, symObjAddr: 0x58C4, symBinAddr: 0x10000A1BC, symSize: 0x34 }
  - { offsetInCU: 0x6827E, offset: 0x79E69, size: 0x8, addend: 0x0, symName: __ZNSt3__112basic_stringIcNS_11char_traitsIcEENS_9allocatorIcEEEC2B8ue170006EOS5_, symObjAddr: 0x58F8, symBinAddr: 0x10000A1F0, symSize: 0x50 }
  - { offsetInCU: 0x682B8, offset: 0x79EA3, size: 0x8, addend: 0x0, symName: __ZNSt3__112basic_stringIcNS_11char_traitsIcEENS_9allocatorIcEEE14__default_initB8ue170006Ev, symObjAddr: 0x5948, symBinAddr: 0x10000A240, symSize: 0x40 }
  - { offsetInCU: 0x682DE, offset: 0x79EC9, size: 0x8, addend: 0x0, symName: __ZNSt3__117__compressed_pairINS_12basic_stringIcNS_11char_traitsIcEENS_9allocatorIcEEE5__repES5_E5firstB8ue170006Ev, symObjAddr: 0x5988, symBinAddr: 0x10000A280, symSize: 0x24 }
  - { offsetInCU: 0x68304, offset: 0x79EEF, size: 0x8, addend: 0x0, symName: __ZNSt3__122__compressed_pair_elemINS_12basic_stringIcNS_11char_traitsIcEENS_9allocatorIcEEE5__repELi0ELb0EE5__getB8ue170006Ev, symObjAddr: 0x59AC, symBinAddr: 0x10000A2A4, symSize: 0x14 }
  - { offsetInCU: 0x6832A, offset: 0x79F15, size: 0x8, addend: 0x0, symName: __ZNK5boost6system10error_code7messageEv, symObjAddr: 0x59C0, symBinAddr: 0x10000A2B8, symSize: 0xB8 }
  - { offsetInCU: 0x6836D, offset: 0x79F58, size: 0x8, addend: 0x0, symName: __ZNK5boost6system10error_code9to_stringEv, symObjAddr: 0x5A78, symBinAddr: 0x10000A370, symSize: 0x178 }
  - { offsetInCU: 0x683D3, offset: 0x79FBE, size: 0x8, addend: 0x0, symName: __ZNSt3__112basic_stringIcNS_11char_traitsIcEENS_9allocatorIcEEEpLB8ue170006ERKS5_, symObjAddr: 0x5BF0, symBinAddr: 0x10000A4E8, symSize: 0x2C }
  - { offsetInCU: 0x68409, offset: 0x79FF4, size: 0x8, addend: 0x0, symName: __ZNK5boost6system10error_code12has_locationEv, symObjAddr: 0x5C1C, symBinAddr: 0x10000A514, symSize: 0x24 }
  - { offsetInCU: 0x6842F, offset: 0x7A01A, size: 0x8, addend: 0x0, symName: __ZNK5boost15source_location9to_stringEv, symObjAddr: 0x5C94, symBinAddr: 0x10000A58C, symSize: 0x1F4 }
  - { offsetInCU: 0x6849C, offset: 0x7A087, size: 0x8, addend: 0x0, symName: __ZNK5boost6system10error_code8categoryEv, symObjAddr: 0x5E88, symBinAddr: 0x10000A780, symSize: 0x7C }
  - { offsetInCU: 0x684C2, offset: 0x7A0AD, size: 0x8, addend: 0x0, symName: __ZNK5boost6system6detail22interop_error_category4nameEv, symObjAddr: 0x5F10, symBinAddr: 0x10000A808, symSize: 0x18 }
  - { offsetInCU: 0x684E8, offset: 0x7A0D3, size: 0x8, addend: 0x0, symName: __ZNK5boost6system6detail22interop_error_category7messageEi, symObjAddr: 0x5F28, symBinAddr: 0x10000A820, symSize: 0x84 }
  - { offsetInCU: 0x6852B, offset: 0x7A116, size: 0x8, addend: 0x0, symName: __ZNK5boost6system6detail22interop_error_category7messageEiPcm, symObjAddr: 0x5FAC, symBinAddr: 0x10000A8A4, symSize: 0x58 }
  - { offsetInCU: 0x6857C, offset: 0x7A167, size: 0x8, addend: 0x0, symName: __ZNK5boost6system10error_code13category_nameEv, symObjAddr: 0x608C, symBinAddr: 0x10000A984, symSize: 0x90 }
  - { offsetInCU: 0x685A2, offset: 0x7A18D, size: 0x8, addend: 0x0, symName: __ZNK5boost15source_location4lineEv, symObjAddr: 0x611C, symBinAddr: 0x10000AA14, symSize: 0x18 }
  - { offsetInCU: 0x685C8, offset: 0x7A1B3, size: 0x8, addend: 0x0, symName: __ZNK5boost15source_location9file_nameEv, symObjAddr: 0x6134, symBinAddr: 0x10000AA2C, symSize: 0x18 }
  - { offsetInCU: 0x685EE, offset: 0x7A1D9, size: 0x8, addend: 0x0, symName: __ZNK5boost15source_location6columnEv, symObjAddr: 0x614C, symBinAddr: 0x10000AA44, symSize: 0x18 }
  - { offsetInCU: 0x68614, offset: 0x7A1FF, size: 0x8, addend: 0x0, symName: __ZNK5boost15source_location13function_nameEv, symObjAddr: 0x6164, symBinAddr: 0x10000AA5C, symSize: 0x18 }
  - { offsetInCU: 0x6863A, offset: 0x7A225, size: 0x8, addend: 0x0, symName: __ZNSt3__112basic_stringIcNS_11char_traitsIcEENS_9allocatorIcEEEpLB8ue170006Ec, symObjAddr: 0x617C, symBinAddr: 0x10000AA74, symSize: 0x34 }
  - { offsetInCU: 0x68684, offset: 0x7A26F, size: 0x8, addend: 0x0, symName: __ZN5boost10wrapexceptINS_6system12system_errorEEC1ERKS2_RKNS_15source_locationE, symObjAddr: 0x61B0, symBinAddr: 0x10000AAA8, symSize: 0x3C }
  - { offsetInCU: 0x686CE, offset: 0x7A2B9, size: 0x8, addend: 0x0, symName: __ZN5boost10wrapexceptINS_6system12system_errorEED1Ev, symObjAddr: 0x61EC, symBinAddr: 0x10000AAE4, symSize: 0x2C }
  - { offsetInCU: 0x686FB, offset: 0x7A2E6, size: 0x8, addend: 0x0, symName: __ZN5boost10wrapexceptINS_6system12system_errorEEC2ERKS2_RKNS_15source_locationE, symObjAddr: 0x6218, symBinAddr: 0x10000AB10, symSize: 0x188 }
  - { offsetInCU: 0x68745, offset: 0x7A330, size: 0x8, addend: 0x0, symName: __ZN5boost6system12system_errorC2ERKS1_, symObjAddr: 0x63A0, symBinAddr: 0x10000AC98, symSize: 0x60 }
  - { offsetInCU: 0x6877B, offset: 0x7A366, size: 0x8, addend: 0x0, symName: __ZN5boost10wrapexceptINS_6system12system_errorEE9copy_fromEPKv, symObjAddr: 0x6400, symBinAddr: 0x10000ACF8, symSize: 0x14 }
  - { offsetInCU: 0x687AD, offset: 0x7A398, size: 0x8, addend: 0x0, symName: __ZN5boost10error_infoINS_11throw_file_EPKcEC1ES3_, symObjAddr: 0x643C, symBinAddr: 0x10000AD34, symSize: 0x34 }
  - { offsetInCU: 0x687E7, offset: 0x7A3D2, size: 0x8, addend: 0x0, symName: __ZN5boost10error_infoINS_11throw_line_EiEC1Ei, symObjAddr: 0x6498, symBinAddr: 0x10000AD90, symSize: 0x34 }
  - { offsetInCU: 0x68821, offset: 0x7A40C, size: 0x8, addend: 0x0, symName: __ZN5boost10error_infoINS_15throw_function_EPKcEC1ES3_, symObjAddr: 0x64F4, symBinAddr: 0x10000ADEC, symSize: 0x34 }
  - { offsetInCU: 0x6885B, offset: 0x7A446, size: 0x8, addend: 0x0, symName: __ZN5boost10error_infoINS_13throw_column_EiEC1Ei, symObjAddr: 0x6550, symBinAddr: 0x10000AE48, symSize: 0x34 }
  - { offsetInCU: 0x68895, offset: 0x7A480, size: 0x8, addend: 0x0, symName: __ZN5boost6system12system_errorD2Ev, symObjAddr: 0x6584, symBinAddr: 0x10000AE7C, symSize: 0x2C }
  - { offsetInCU: 0x688C2, offset: 0x7A4AD, size: 0x8, addend: 0x0, symName: __ZNK5boost10wrapexceptINS_6system12system_errorEE5cloneEv, symObjAddr: 0x65B0, symBinAddr: 0x10000AEA8, symSize: 0xE4 }
  - { offsetInCU: 0x68908, offset: 0x7A4F3, size: 0x8, addend: 0x0, symName: __ZNK5boost10wrapexceptINS_6system12system_errorEE7rethrowEv, symObjAddr: 0x6694, symBinAddr: 0x10000AF8C, symSize: 0x6C }
  - { offsetInCU: 0x6892E, offset: 0x7A519, size: 0x8, addend: 0x0, symName: __ZN5boost10wrapexceptINS_6system12system_errorEED0Ev, symObjAddr: 0x6700, symBinAddr: 0x10000AFF8, symSize: 0x30 }
  - { offsetInCU: 0x6895B, offset: 0x7A546, size: 0x8, addend: 0x0, symName: __ZThn8_N5boost10wrapexceptINS_6system12system_errorEED1Ev, symObjAddr: 0x6730, symBinAddr: 0x10000B028, symSize: 0x1C }
  - { offsetInCU: 0x68972, offset: 0x7A55D, size: 0x8, addend: 0x0, symName: __ZThn8_N5boost10wrapexceptINS_6system12system_errorEED0Ev, symObjAddr: 0x674C, symBinAddr: 0x10000B044, symSize: 0x18 }
  - { offsetInCU: 0x68989, offset: 0x7A574, size: 0x8, addend: 0x0, symName: __ZThn48_N5boost10wrapexceptINS_6system12system_errorEED1Ev, symObjAddr: 0x6764, symBinAddr: 0x10000B05C, symSize: 0x1C }
  - { offsetInCU: 0x689A0, offset: 0x7A58B, size: 0x8, addend: 0x0, symName: __ZThn48_N5boost10wrapexceptINS_6system12system_errorEED0Ev, symObjAddr: 0x6780, symBinAddr: 0x10000B078, symSize: 0x18 }
  - { offsetInCU: 0x689B7, offset: 0x7A5A2, size: 0x8, addend: 0x0, symName: __ZN5boost10error_infoINS_11throw_file_EPKcEC2ES3_, symObjAddr: 0x6798, symBinAddr: 0x10000B090, symSize: 0x20 }
  - { offsetInCU: 0x689F1, offset: 0x7A5DC, size: 0x8, addend: 0x0, symName: __ZN5boost10error_infoINS_11throw_line_EiEC2Ei, symObjAddr: 0x67B8, symBinAddr: 0x10000B0B0, symSize: 0x20 }
  - { offsetInCU: 0x68A2B, offset: 0x7A616, size: 0x8, addend: 0x0, symName: __ZN5boost10error_infoINS_15throw_function_EPKcEC2ES3_, symObjAddr: 0x67D8, symBinAddr: 0x10000B0D0, symSize: 0x20 }
  - { offsetInCU: 0x68A65, offset: 0x7A650, size: 0x8, addend: 0x0, symName: __ZN5boost10error_infoINS_13throw_column_EiEC2Ei, symObjAddr: 0x67F8, symBinAddr: 0x10000B0F0, symSize: 0x20 }
  - { offsetInCU: 0x68AA4, offset: 0x7A68F, size: 0x8, addend: 0x0, symName: __ZN5boost10wrapexceptINS_6system12system_errorEEC1ERKS3_, symObjAddr: 0x6818, symBinAddr: 0x10000B110, symSize: 0x34 }
  - { offsetInCU: 0x68AE4, offset: 0x7A6CF, size: 0x8, addend: 0x0, symName: __ZN5boost10wrapexceptINS_6system12system_errorEE7deleterD1Ev, symObjAddr: 0x684C, symBinAddr: 0x10000B144, symSize: 0x2C }
  - { offsetInCU: 0x68B0E, offset: 0x7A6F9, size: 0x8, addend: 0x0, symName: __ZN5boost10wrapexceptINS_6system12system_errorEEC2ERKS3_, symObjAddr: 0x6878, symBinAddr: 0x10000B170, symSize: 0xC4 }
  - { offsetInCU: 0x68B44, offset: 0x7A72F, size: 0x8, addend: 0x0, symName: __ZN5boost10wrapexceptINS_6system12system_errorEE7deleterD2Ev, symObjAddr: 0x693C, symBinAddr: 0x10000B234, symSize: 0x58 }
  - { offsetInCU: 0x68B6E, offset: 0x7A759, size: 0x8, addend: 0x0, symName: __ZN5boost10wrapexceptINS_6system12system_errorEED2Ev, symObjAddr: 0x6994, symBinAddr: 0x10000B28C, symSize: 0x44 }
  - { offsetInCU: 0x68B9B, offset: 0x7A786, size: 0x8, addend: 0x0, symName: __ZN5boost15source_locationC2ERKNSt3__115source_locationE, symObjAddr: 0x69D8, symBinAddr: 0x10000B2D0, symSize: 0x6C }
  - { offsetInCU: 0x68BD3, offset: 0x7A7BE, size: 0x8, addend: 0x0, symName: __ZNKSt3__115source_location9file_nameB8ue170006Ev, symObjAddr: 0x6A44, symBinAddr: 0x10000B33C, symSize: 0x54 }
  - { offsetInCU: 0x68BF9, offset: 0x7A7E4, size: 0x8, addend: 0x0, symName: __ZNKSt3__115source_location13function_nameB8ue170006Ev, symObjAddr: 0x6A98, symBinAddr: 0x10000B390, symSize: 0x54 }
  - { offsetInCU: 0x68C1F, offset: 0x7A80A, size: 0x8, addend: 0x0, symName: __ZNKSt3__115source_location4lineB8ue170006Ev, symObjAddr: 0x6AEC, symBinAddr: 0x10000B3E4, symSize: 0x50 }
  - { offsetInCU: 0x68C45, offset: 0x7A830, size: 0x8, addend: 0x0, symName: __ZNKSt3__115source_location6columnB8ue170006Ev, symObjAddr: 0x6B3C, symBinAddr: 0x10000B434, symSize: 0x50 }
  - { offsetInCU: 0x68C6B, offset: 0x7A856, size: 0x8, addend: 0x0, symName: __ZN5boost4asio28config_from_concurrency_hintD2Ev, symObjAddr: 0x6B8C, symBinAddr: 0x10000B484, symSize: 0x2C }
  - { offsetInCU: 0x68C97, offset: 0x7A882, size: 0x8, addend: 0x0, symName: __ZN5boost4asio17execution_context13service_makerD2Ev, symObjAddr: 0x6BB8, symBinAddr: 0x10000B4B0, symSize: 0x2C }
  - { offsetInCU: 0x68CC3, offset: 0x7A8AE, size: 0x8, addend: 0x0, symName: __ZN5boost4asio6detail10scoped_ptrINS1_9schedulerEEC1EPS3_, symObjAddr: 0x6BE4, symBinAddr: 0x10000B4DC, symSize: 0x34 }
  - { offsetInCU: 0x68CFB, offset: 0x7A8E6, size: 0x8, addend: 0x0, symName: __ZN5boost4asio6detail10scoped_ptrINS1_9schedulerEE3getEv, symObjAddr: 0x6C48, symBinAddr: 0x10000B540, symSize: 0x18 }
  - { offsetInCU: 0x68D21, offset: 0x7A90C, size: 0x8, addend: 0x0, symName: __ZN5boost4asio6detail10scoped_ptrINS1_9schedulerEE7releaseEv, symObjAddr: 0x6C60, symBinAddr: 0x10000B558, symSize: 0x24 }
  - { offsetInCU: 0x68D55, offset: 0x7A940, size: 0x8, addend: 0x0, symName: __ZN5boost4asio6detail10scoped_ptrINS1_9schedulerEED1Ev, symObjAddr: 0x6C84, symBinAddr: 0x10000B57C, symSize: 0x2C }
  - { offsetInCU: 0x68D7F, offset: 0x7A96A, size: 0x8, addend: 0x0, symName: __ZN5boost4asio6detail10scoped_ptrINS1_9schedulerEEC2EPS3_, symObjAddr: 0x6CB0, symBinAddr: 0x10000B5A8, symSize: 0x20 }
  - { offsetInCU: 0x68DB7, offset: 0x7A9A2, size: 0x8, addend: 0x0, symName: __ZN5boost4asio6detail16service_registry11add_serviceINS1_9schedulerEEEvPT_, symObjAddr: 0x6CD0, symBinAddr: 0x10000B5C8, symSize: 0x54 }
  - { offsetInCU: 0x68E06, offset: 0x7A9F1, size: 0x8, addend: 0x0, symName: __ZN5boost4asio6detail16service_registry8init_keyINS1_9schedulerEEEvRNS0_17execution_context7service3keyEz, symObjAddr: 0x6D24, symBinAddr: 0x10000B61C, symSize: 0x2C }
  - { offsetInCU: 0x68E40, offset: 0x7AA2B, size: 0x8, addend: 0x0, symName: __ZN5boost4asio6detail16service_registry16init_key_from_idINS1_9schedulerEEEvRNS0_17execution_context7service3keyERKNS1_10service_idIT_EE, symObjAddr: 0x6D50, symBinAddr: 0x10000B648, symSize: 0x2C }
  - { offsetInCU: 0x68E7A, offset: 0x7AA65, size: 0x8, addend: 0x0, symName: __ZN5boost4asio6detail10scoped_ptrINS1_9schedulerEED2Ev, symObjAddr: 0x6D7C, symBinAddr: 0x10000B674, symSize: 0x58 }
  - { offsetInCU: 0x68EA9, offset: 0x7AA94, size: 0x8, addend: 0x0, symName: __ZN5boost4asio6detail16service_registry11use_serviceINS1_14kqueue_reactorEEERT_v, symObjAddr: 0x6DFC, symBinAddr: 0x10000B6F4, symSize: 0x60 }
  - { offsetInCU: 0x68EF8, offset: 0x7AAE3, size: 0x8, addend: 0x0, symName: __ZN5boost4asio6detail16service_registry8init_keyINS1_14kqueue_reactorEEEvRNS0_17execution_context7service3keyEz, symObjAddr: 0x6E5C, symBinAddr: 0x10000B754, symSize: 0x2C }
  - { offsetInCU: 0x68F28, offset: 0x7AB13, size: 0x8, addend: 0x0, symName: __ZN5boost4asio6detail16service_registry6createINS1_14kqueue_reactorENS0_17execution_contextEEEPNS5_7serviceEPv, symObjAddr: 0x6E88, symBinAddr: 0x10000B780, symSize: 0x5C }
  - { offsetInCU: 0x68F60, offset: 0x7AB4B, size: 0x8, addend: 0x0, symName: __ZN5boost4asio6detail16service_registry14do_use_serviceERKNS0_17execution_context7service3keyEPFPS4_PvES9_, symObjAddr: 0x6EE4, symBinAddr: 0x10000B7DC, symSize: 0x1C4 }
  - { offsetInCU: 0x68FF3, offset: 0x7ABDE, size: 0x8, addend: 0x0, symName: __ZN5boost4asio6detail16service_registry16init_key_from_idINS1_14kqueue_reactorEEEvRNS0_17execution_context7service3keyERKNS1_10service_idIT_EE, symObjAddr: 0x70A8, symBinAddr: 0x10000B9A0, symSize: 0x2C }
  - { offsetInCU: 0x6902D, offset: 0x7AC18, size: 0x8, addend: 0x0, symName: __ZN5boost4asio6detail14kqueue_reactorC1ERNS0_17execution_contextE, symObjAddr: 0x70D4, symBinAddr: 0x10000B9CC, symSize: 0x34 }
  - { offsetInCU: 0x69067, offset: 0x7AC52, size: 0x8, addend: 0x0, symName: __ZN5boost4asio6detail14kqueue_reactorC2ERNS0_17execution_contextE, symObjAddr: 0x7108, symBinAddr: 0x10000BA00, symSize: 0x468 }
  - { offsetInCU: 0x690EC, offset: 0x7ACD7, size: 0x8, addend: 0x0, symName: __ZN5boost4asio6detail30execution_context_service_baseINS1_14kqueue_reactorEEC2ERNS0_17execution_contextE, symObjAddr: 0x7570, symBinAddr: 0x10000BE68, symSize: 0x4C }
  - { offsetInCU: 0x69126, offset: 0x7AD11, size: 0x8, addend: 0x0, symName: __ZN5boost4asio6detail14scheduler_taskC2Ev, symObjAddr: 0x75BC, symBinAddr: 0x10000BEB4, symSize: 0x24 }
  - { offsetInCU: 0x69152, offset: 0x7AD3D, size: 0x8, addend: 0x0, symName: __ZN5boost4asio6configC1ERNS0_17execution_contextE, symObjAddr: 0x7608, symBinAddr: 0x10000BF00, symSize: 0x34 }
  - { offsetInCU: 0x6918F, offset: 0x7AD7A, size: 0x8, addend: 0x0, symName: __ZNK5boost4asio6config3getIbEENS0_10constraintIXsr11is_integralIT_EE5valueES4_E4typeEPKcS8_S4_, symObjAddr: 0x763C, symBinAddr: 0x10000BF34, symSize: 0x50 }
  - { offsetInCU: 0x691E8, offset: 0x7ADD3, size: 0x8, addend: 0x0, symName: __ZNK5boost4asio6config3getIiEENS0_10constraintIXsr11is_integralIT_EE5valueES4_E4typeEPKcS8_S4_, symObjAddr: 0x768C, symBinAddr: 0x10000BF84, symSize: 0x40 }
  - { offsetInCU: 0x69241, offset: 0x7AE2C, size: 0x8, addend: 0x0, symName: __ZN5boost4asio6detail27conditionally_enabled_mutexC1Ebi, symObjAddr: 0x76CC, symBinAddr: 0x10000BFC4, symSize: 0x48 }
  - { offsetInCU: 0x69287, offset: 0x7AE72, size: 0x8, addend: 0x0, symName: __ZN5boost4asio6detail14kqueue_reactor16do_kqueue_createEv, symObjAddr: 0x7714, symBinAddr: 0x10000C00C, symSize: 0x90 }
  - { offsetInCU: 0x692CE, offset: 0x7AEB9, size: 0x8, addend: 0x0, symName: __ZN5boost4asio6detail23pipe_select_interrupterC1Ev, symObjAddr: 0x77A4, symBinAddr: 0x10000C09C, symSize: 0x2C }
  - { offsetInCU: 0x692FA, offset: 0x7AEE5, size: 0x8, addend: 0x0, symName: __ZN5boost4asio6detail15timer_queue_setC1Ev, symObjAddr: 0x77D0, symBinAddr: 0x10000C0C8, symSize: 0x2C }
  - { offsetInCU: 0x69327, offset: 0x7AF12, size: 0x8, addend: 0x0, symName: __ZNK5boost4asio6detail27conditionally_enabled_mutex7enabledEv, symObjAddr: 0x77FC, symBinAddr: 0x10000C0F4, symSize: 0x1C }
  - { offsetInCU: 0x6934D, offset: 0x7AF38, size: 0x8, addend: 0x0, symName: __ZNK5boost4asio6config3getIjEENS0_10constraintIXsr11is_integralIT_EE5valueES4_E4typeEPKcS8_S4_, symObjAddr: 0x7818, symBinAddr: 0x10000C110, symSize: 0x40 }
  - { offsetInCU: 0x693A6, offset: 0x7AF91, size: 0x8, addend: 0x0, symName: __ZN5boost4asio6detail11object_poolINS1_14kqueue_reactor16descriptor_stateEEC1IJbiEEEjDpT_, symObjAddr: 0x7858, symBinAddr: 0x10000C150, symSize: 0x50 }
  - { offsetInCU: 0x6940B, offset: 0x7AFF6, size: 0x8, addend: 0x0, symName: __ZNK5boost4asio6detail23pipe_select_interrupter15read_descriptorEv, symObjAddr: 0x78A8, symBinAddr: 0x10000C1A0, symSize: 0x18 }
  - { offsetInCU: 0x69431, offset: 0x7B01C, size: 0x8, addend: 0x0, symName: __ZN5boost4asio6detail11object_poolINS1_14kqueue_reactor16descriptor_stateEED1Ev, symObjAddr: 0x7900, symBinAddr: 0x10000C1F8, symSize: 0x2C }
  - { offsetInCU: 0x6945B, offset: 0x7B046, size: 0x8, addend: 0x0, symName: __ZN5boost4asio6detail27conditionally_enabled_mutexD1Ev, symObjAddr: 0x792C, symBinAddr: 0x10000C224, symSize: 0x2C }
  - { offsetInCU: 0x69485, offset: 0x7B070, size: 0x8, addend: 0x0, symName: __ZN5boost4asio6detail23pipe_select_interrupterD1Ev, symObjAddr: 0x7958, symBinAddr: 0x10000C250, symSize: 0x2C }
  - { offsetInCU: 0x694B1, offset: 0x7B09C, size: 0x8, addend: 0x0, symName: __ZN5boost4asio6detail14scheduler_taskD2Ev, symObjAddr: 0x7984, symBinAddr: 0x10000C27C, symSize: 0x14 }
  - { offsetInCU: 0x694DB, offset: 0x7B0C6, size: 0x8, addend: 0x0, symName: __ZN5boost4asio6detail30execution_context_service_baseINS1_14kqueue_reactorEED2Ev, symObjAddr: 0x7998, symBinAddr: 0x10000C290, symSize: 0x2C }
  - { offsetInCU: 0x69508, offset: 0x7B0F3, size: 0x8, addend: 0x0, symName: __ZN5boost4asio6detail14kqueue_reactorD1Ev, symObjAddr: 0x79C4, symBinAddr: 0x10000C2BC, symSize: 0x2C }
  - { offsetInCU: 0x69534, offset: 0x7B11F, size: 0x8, addend: 0x0, symName: __ZN5boost4asio6detail14kqueue_reactorD0Ev, symObjAddr: 0x79F0, symBinAddr: 0x10000C2E8, symSize: 0x30 }
  - { offsetInCU: 0x69560, offset: 0x7B14B, size: 0x8, addend: 0x0, symName: __ZN5boost4asio6detail14kqueue_reactor8shutdownEv, symObjAddr: 0x7A20, symBinAddr: 0x10000C318, symSize: 0x170 }
  - { offsetInCU: 0x695CF, offset: 0x7B1BA, size: 0x8, addend: 0x0, symName: __ZN5boost4asio6detail14kqueue_reactor11notify_forkENS0_17execution_context10fork_eventE, symObjAddr: 0x7B90, symBinAddr: 0x10000C488, symSize: 0x374 }
  - { offsetInCU: 0x696D8, offset: 0x7B2C3, size: 0x8, addend: 0x0, symName: __ZN5boost4asio6detail14kqueue_reactor9interruptEv, symObjAddr: 0x83C0, symBinAddr: 0x10000CCB8, symSize: 0x28 }
  - { offsetInCU: 0x69701, offset: 0x7B2EC, size: 0x8, addend: 0x0, symName: __ZThn40_N5boost4asio6detail14kqueue_reactor3runElRNS1_8op_queueINS1_19scheduler_operationEEE, symObjAddr: 0x83E8, symBinAddr: 0x10000CCE0, symSize: 0x28 }
  - { offsetInCU: 0x69718, offset: 0x7B303, size: 0x8, addend: 0x0, symName: __ZThn40_N5boost4asio6detail14kqueue_reactor9interruptEv, symObjAddr: 0x8410, symBinAddr: 0x10000CD08, symSize: 0x18 }
  - { offsetInCU: 0x6972F, offset: 0x7B31A, size: 0x8, addend: 0x0, symName: __ZN5boost4asio6detail30execution_context_service_baseINS1_14kqueue_reactorEED1Ev, symObjAddr: 0x8428, symBinAddr: 0x10000CD20, symSize: 0x14 }
  - { offsetInCU: 0x6975C, offset: 0x7B347, size: 0x8, addend: 0x0, symName: __ZN5boost4asio6detail30execution_context_service_baseINS1_14kqueue_reactorEED0Ev, symObjAddr: 0x843C, symBinAddr: 0x10000CD34, symSize: 0xC }
  - { offsetInCU: 0x69789, offset: 0x7B374, size: 0x8, addend: 0x0, symName: __ZN5boost4asio6detail16service_registry11use_serviceINS1_9schedulerEEERT_v, symObjAddr: 0x8448, symBinAddr: 0x10000CD40, symSize: 0x60 }
  - { offsetInCU: 0x697D8, offset: 0x7B3C3, size: 0x8, addend: 0x0, symName: __ZN5boost4asio6detail16service_registry6createINS1_9schedulerENS0_17execution_contextEEEPNS5_7serviceEPv, symObjAddr: 0x84A8, symBinAddr: 0x10000CDA0, symSize: 0x6C }
  - { offsetInCU: 0x69810, offset: 0x7B3FB, size: 0x8, addend: 0x0, symName: __ZN5boost4asio6configC2ERNS0_17execution_contextE, symObjAddr: 0x8514, symBinAddr: 0x10000CE0C, symSize: 0x3C }
  - { offsetInCU: 0x69848, offset: 0x7B433, size: 0x8, addend: 0x0, symName: __ZN5boost4asio6detail16service_registry11use_serviceINS0_14config_serviceEEERT_v, symObjAddr: 0x8578, symBinAddr: 0x10000CE70, symSize: 0x60 }
  - { offsetInCU: 0x69897, offset: 0x7B482, size: 0x8, addend: 0x0, symName: __ZN5boost4asio6detail16service_registry8init_keyINS0_14config_serviceEEEvRNS0_17execution_context7service3keyEz, symObjAddr: 0x85D8, symBinAddr: 0x10000CED0, symSize: 0x2C }
  - { offsetInCU: 0x698C7, offset: 0x7B4B2, size: 0x8, addend: 0x0, symName: __ZN5boost4asio6detail16service_registry6createINS0_14config_serviceENS0_17execution_contextEEEPNS5_7serviceEPv, symObjAddr: 0x8604, symBinAddr: 0x10000CEFC, symSize: 0x5C }
  - { offsetInCU: 0x698FF, offset: 0x7B4EA, size: 0x8, addend: 0x0, symName: __ZN5boost4asio14config_serviceC1ERNS0_17execution_contextE, symObjAddr: 0x8660, symBinAddr: 0x10000CF58, symSize: 0x34 }
  - { offsetInCU: 0x69939, offset: 0x7B524, size: 0x8, addend: 0x0, symName: __ZNSt12out_of_rangeC1B8ue170006EPKc, symObjAddr: 0x883C, symBinAddr: 0x10000D134, symSize: 0x34 }
  - { offsetInCU: 0x69973, offset: 0x7B55E, size: 0x8, addend: 0x0, symName: __ZN5boost10wrapexceptISt12out_of_rangeEC1ERKS1_, symObjAddr: 0x8870, symBinAddr: 0x10000D168, symSize: 0x34 }
  - { offsetInCU: 0x699AD, offset: 0x7B598, size: 0x8, addend: 0x0, symName: __ZN5boost10wrapexceptISt12out_of_rangeED1Ev, symObjAddr: 0x88A4, symBinAddr: 0x10000D19C, symSize: 0x2C }
  - { offsetInCU: 0x699DA, offset: 0x7B5C5, size: 0x8, addend: 0x0, symName: __ZN5boost10wrapexceptISt12out_of_rangeEC2ERKS1_, symObjAddr: 0x88D0, symBinAddr: 0x10000D1C8, symSize: 0xE4 }
  - { offsetInCU: 0x69A14, offset: 0x7B5FF, size: 0x8, addend: 0x0, symName: __ZNSt12out_of_rangeC2B8ue170006ERKS_, symObjAddr: 0x89B4, symBinAddr: 0x10000D2AC, symSize: 0x4C }
  - { offsetInCU: 0x69A4A, offset: 0x7B635, size: 0x8, addend: 0x0, symName: __ZN5boost10wrapexceptISt12out_of_rangeE9copy_fromEPKv, symObjAddr: 0x8A00, symBinAddr: 0x10000D2F8, symSize: 0x14 }
  - { offsetInCU: 0x69A7C, offset: 0x7B667, size: 0x8, addend: 0x0, symName: __ZNK5boost10wrapexceptISt12out_of_rangeE5cloneEv, symObjAddr: 0x8A14, symBinAddr: 0x10000D30C, symSize: 0xE4 }
  - { offsetInCU: 0x69AC2, offset: 0x7B6AD, size: 0x8, addend: 0x0, symName: __ZNK5boost10wrapexceptISt12out_of_rangeE7rethrowEv, symObjAddr: 0x8AF8, symBinAddr: 0x10000D3F0, symSize: 0x6C }
  - { offsetInCU: 0x69AE8, offset: 0x7B6D3, size: 0x8, addend: 0x0, symName: __ZN5boost10wrapexceptISt12out_of_rangeED0Ev, symObjAddr: 0x8B64, symBinAddr: 0x10000D45C, symSize: 0x30 }
  - { offsetInCU: 0x69B15, offset: 0x7B700, size: 0x8, addend: 0x0, symName: __ZThn8_N5boost10wrapexceptISt12out_of_rangeED1Ev, symObjAddr: 0x8B94, symBinAddr: 0x10000D48C, symSize: 0x1C }
  - { offsetInCU: 0x69B2C, offset: 0x7B717, size: 0x8, addend: 0x0, symName: __ZThn8_N5boost10wrapexceptISt12out_of_rangeED0Ev, symObjAddr: 0x8BB0, symBinAddr: 0x10000D4A8, symSize: 0x18 }
  - { offsetInCU: 0x69B43, offset: 0x7B72E, size: 0x8, addend: 0x0, symName: __ZThn24_N5boost10wrapexceptISt12out_of_rangeED1Ev, symObjAddr: 0x8BC8, symBinAddr: 0x10000D4C0, symSize: 0x1C }
  - { offsetInCU: 0x69B5A, offset: 0x7B745, size: 0x8, addend: 0x0, symName: __ZThn24_N5boost10wrapexceptISt12out_of_rangeED0Ev, symObjAddr: 0x8BE4, symBinAddr: 0x10000D4DC, symSize: 0x18 }
  - { offsetInCU: 0x69B76, offset: 0x7B761, size: 0x8, addend: 0x0, symName: __ZN5boost10wrapexceptISt12out_of_rangeEC1ERKS2_, symObjAddr: 0x8BFC, symBinAddr: 0x10000D4F4, symSize: 0x34 }
  - { offsetInCU: 0x69BB6, offset: 0x7B7A1, size: 0x8, addend: 0x0, symName: __ZN5boost10wrapexceptISt12out_of_rangeE7deleterD1Ev, symObjAddr: 0x8C30, symBinAddr: 0x10000D528, symSize: 0x2C }
  - { offsetInCU: 0x69BE0, offset: 0x7B7CB, size: 0x8, addend: 0x0, symName: __ZN5boost10wrapexceptISt12out_of_rangeEC2ERKS2_, symObjAddr: 0x8C5C, symBinAddr: 0x10000D554, symSize: 0xC4 }
  - { offsetInCU: 0x69C16, offset: 0x7B801, size: 0x8, addend: 0x0, symName: __ZN5boost10wrapexceptISt12out_of_rangeE7deleterD2Ev, symObjAddr: 0x8D20, symBinAddr: 0x10000D618, symSize: 0x58 }
  - { offsetInCU: 0x69C40, offset: 0x7B82B, size: 0x8, addend: 0x0, symName: __ZN5boost10wrapexceptISt12out_of_rangeED2Ev, symObjAddr: 0x8D78, symBinAddr: 0x10000D670, symSize: 0x44 }
  - { offsetInCU: 0x69C6D, offset: 0x7B858, size: 0x8, addend: 0x0, symName: __ZNSt12out_of_rangeC2B8ue170006EPKc, symObjAddr: 0x8DBC, symBinAddr: 0x10000D6B4, symSize: 0x4C }
  - { offsetInCU: 0x69CA7, offset: 0x7B892, size: 0x8, addend: 0x0, symName: __ZNSt3__114numeric_limitsIiE3minB8ue170006Ev, symObjAddr: 0x8F38, symBinAddr: 0x10000D830, symSize: 0x14 }
  - { offsetInCU: 0x69CBB, offset: 0x7B8A6, size: 0x8, addend: 0x0, symName: __ZNSt3__114numeric_limitsIiE3maxB8ue170006Ev, symObjAddr: 0x8F4C, symBinAddr: 0x10000D844, symSize: 0x14 }
  - { offsetInCU: 0x69CCF, offset: 0x7B8BA, size: 0x8, addend: 0x0, symName: __ZNSt3__123__libcpp_numeric_limitsIiLb1EE3minB8ue170006Ev, symObjAddr: 0x8F60, symBinAddr: 0x10000D858, symSize: 0x8 }
  - { offsetInCU: 0x69CE3, offset: 0x7B8CE, size: 0x8, addend: 0x0, symName: __ZNSt3__123__libcpp_numeric_limitsIiLb1EE3maxB8ue170006Ev, symObjAddr: 0x8F68, symBinAddr: 0x10000D860, symSize: 0x8 }
  - { offsetInCU: 0x69CF7, offset: 0x7B8E2, size: 0x8, addend: 0x0, symName: __ZN5boost4asio6detail27conditionally_enabled_mutexC2Ebi, symObjAddr: 0x8F70, symBinAddr: 0x10000D868, symSize: 0x80 }
  - { offsetInCU: 0x69D3D, offset: 0x7B928, size: 0x8, addend: 0x0, symName: __ZN5boost4asio6detail23pipe_select_interrupterC2Ev, symObjAddr: 0x8FF0, symBinAddr: 0x10000D8E8, symSize: 0x2C }
  - { offsetInCU: 0x69D69, offset: 0x7B954, size: 0x8, addend: 0x0, symName: __ZN5boost4asio6detail23pipe_select_interrupter16open_descriptorsEv, symObjAddr: 0x901C, symBinAddr: 0x10000D914, symSize: 0x15C }
  - { offsetInCU: 0x69DBC, offset: 0x7B9A7, size: 0x8, addend: 0x0, symName: __ZN5boost4asio6detail15timer_queue_setC2Ev, symObjAddr: 0x9178, symBinAddr: 0x10000DA70, symSize: 0x18 }
  - { offsetInCU: 0x69DE9, offset: 0x7B9D4, size: 0x8, addend: 0x0, symName: __ZNSt3__114numeric_limitsIjE3maxB8ue170006Ev, symObjAddr: 0x92A0, symBinAddr: 0x10000DB98, symSize: 0x14 }
  - { offsetInCU: 0x69DFD, offset: 0x7B9E8, size: 0x8, addend: 0x0, symName: __ZNSt3__123__libcpp_numeric_limitsIjLb1EE3maxB8ue170006Ev, symObjAddr: 0x92B4, symBinAddr: 0x10000DBAC, symSize: 0x8 }
  - { offsetInCU: 0x69E11, offset: 0x7B9FC, size: 0x8, addend: 0x0, symName: __ZN5boost4asio6detail11object_poolINS1_14kqueue_reactor16descriptor_stateEEC2IJbiEEEjDpT_, symObjAddr: 0x92BC, symBinAddr: 0x10000DBB4, symSize: 0x108 }
  - { offsetInCU: 0x69E8B, offset: 0x7BA76, size: 0x8, addend: 0x0, symName: __ZN5boost4asio6detail18object_pool_access6createINS1_14kqueue_reactor16descriptor_stateEJbiEEEPT_DpT0_, symObjAddr: 0x93C4, symBinAddr: 0x10000DCBC, symSize: 0x70 }
  - { offsetInCU: 0x69EDB, offset: 0x7BAC6, size: 0x8, addend: 0x0, symName: __ZN5boost4asio6detail18object_pool_access4nextINS1_14kqueue_reactor16descriptor_stateEEERPT_S7_, symObjAddr: 0x9434, symBinAddr: 0x10000DD2C, symSize: 0x14 }
  - { offsetInCU: 0x69F07, offset: 0x7BAF2, size: 0x8, addend: 0x0, symName: __ZN5boost4asio6detail18object_pool_access4prevINS1_14kqueue_reactor16descriptor_stateEEERPT_S7_, symObjAddr: 0x9448, symBinAddr: 0x10000DD40, symSize: 0x18 }
  - { offsetInCU: 0x69F33, offset: 0x7BB1E, size: 0x8, addend: 0x0, symName: __ZN5boost4asio6detail14kqueue_reactor16descriptor_stateC1Ebi, symObjAddr: 0x9460, symBinAddr: 0x10000DD58, symSize: 0x48 }
  - { offsetInCU: 0x69F79, offset: 0x7BB64, size: 0x8, addend: 0x0, symName: __ZN5boost4asio6detail14kqueue_reactor16descriptor_stateC2Ebi, symObjAddr: 0x94A8, symBinAddr: 0x10000DDA0, symSize: 0x10C }
  - { offsetInCU: 0x69FBF, offset: 0x7BBAA, size: 0x8, addend: 0x0, symName: __ZN5boost4asio6detail8op_queueINS1_10reactor_opEEC1Ev, symObjAddr: 0x95B4, symBinAddr: 0x10000DEAC, symSize: 0x2C }
  - { offsetInCU: 0x69FE9, offset: 0x7BBD4, size: 0x8, addend: 0x0, symName: __ZN5boost4asio6detail8op_queueINS1_10reactor_opEED1Ev, symObjAddr: 0x95E0, symBinAddr: 0x10000DED8, symSize: 0x2C }
  - { offsetInCU: 0x6A013, offset: 0x7BBFE, size: 0x8, addend: 0x0, symName: __ZN5boost4asio6detail8op_queueINS1_10reactor_opEEC2Ev, symObjAddr: 0x960C, symBinAddr: 0x10000DF04, symSize: 0x34 }
  - { offsetInCU: 0x6A03D, offset: 0x7BC28, size: 0x8, addend: 0x0, symName: __ZN5boost4asio6detail8op_queueINS1_10reactor_opEED2Ev, symObjAddr: 0x9640, symBinAddr: 0x10000DF38, symSize: 0x78 }
  - { offsetInCU: 0x6A07C, offset: 0x7BC67, size: 0x8, addend: 0x0, symName: __ZN5boost4asio6detail8op_queueINS1_10reactor_opEE3popEv, symObjAddr: 0x96B8, symBinAddr: 0x10000DFB0, symSize: 0x84 }
  - { offsetInCU: 0x6A0BF, offset: 0x7BCAA, size: 0x8, addend: 0x0, symName: __ZN5boost4asio6detail15op_queue_access7destroyINS1_10reactor_opEEEvPT_, symObjAddr: 0x973C, symBinAddr: 0x10000E034, symSize: 0x24 }
  - { offsetInCU: 0x6A0EB, offset: 0x7BCD6, size: 0x8, addend: 0x0, symName: __ZN5boost4asio6detail15op_queue_access4nextINS1_10reactor_opEEEPT_S6_, symObjAddr: 0x9760, symBinAddr: 0x10000E058, symSize: 0x18 }
  - { offsetInCU: 0x6A11C, offset: 0x7BD07, size: 0x8, addend: 0x0, symName: __ZN5boost4asio6detail15op_queue_access4nextINS1_10reactor_opES4_EEvRPT_PT0_, symObjAddr: 0x9778, symBinAddr: 0x10000E070, symSize: 0x24 }
  - { offsetInCU: 0x6A15F, offset: 0x7BD4A, size: 0x8, addend: 0x0, symName: __ZN5boost4asio6detail19scheduler_operation7destroyEv, symObjAddr: 0x979C, symBinAddr: 0x10000E094, symSize: 0x50 }
  - { offsetInCU: 0x6A185, offset: 0x7BD70, size: 0x8, addend: 0x0, symName: __ZN5boost6system10error_codeC1Ev, symObjAddr: 0x97EC, symBinAddr: 0x10000E0E4, symSize: 0x2C }
  - { offsetInCU: 0x6A1AF, offset: 0x7BD9A, size: 0x8, addend: 0x0, symName: __ZN5boost6system10error_codeC2Ev, symObjAddr: 0x9818, symBinAddr: 0x10000E110, symSize: 0x20 }
  - { offsetInCU: 0x6A1D9, offset: 0x7BDC4, size: 0x8, addend: 0x0, symName: __ZN5boost4asio6detail11object_poolINS1_14kqueue_reactor16descriptor_stateEED2Ev, symObjAddr: 0x9890, symBinAddr: 0x10000E188, symSize: 0x50 }
  - { offsetInCU: 0x6A203, offset: 0x7BDEE, size: 0x8, addend: 0x0, symName: __ZN5boost4asio6detail11object_poolINS1_14kqueue_reactor16descriptor_stateEE12destroy_listEPS4_, symObjAddr: 0x98E0, symBinAddr: 0x10000E1D8, symSize: 0x5C }
  - { offsetInCU: 0x6A254, offset: 0x7BE3F, size: 0x8, addend: 0x0, symName: __ZN5boost4asio6detail18object_pool_access7destroyINS1_14kqueue_reactor16descriptor_stateEEEvPT_, symObjAddr: 0x993C, symBinAddr: 0x10000E234, symSize: 0x48 }
  - { offsetInCU: 0x6A280, offset: 0x7BE6B, size: 0x8, addend: 0x0, symName: __ZN5boost4asio6detail14kqueue_reactor16descriptor_stateD1Ev, symObjAddr: 0x9984, symBinAddr: 0x10000E27C, symSize: 0x2C }
  - { offsetInCU: 0x6A2AC, offset: 0x7BE97, size: 0x8, addend: 0x0, symName: __ZN5boost4asio6detail14kqueue_reactor16descriptor_stateD2Ev, symObjAddr: 0x99B0, symBinAddr: 0x10000E2A8, symSize: 0x7C }
  - { offsetInCU: 0x6A2D8, offset: 0x7BEC3, size: 0x8, addend: 0x0, symName: __ZN5boost4asio6detail27conditionally_enabled_mutexD2Ev, symObjAddr: 0x9A2C, symBinAddr: 0x10000E324, symSize: 0x38 }
  - { offsetInCU: 0x6A302, offset: 0x7BEED, size: 0x8, addend: 0x0, symName: __ZN5boost4asio6detail23pipe_select_interrupterD2Ev, symObjAddr: 0x9ACC, symBinAddr: 0x10000E35C, symSize: 0x34 }
  - { offsetInCU: 0x6A32E, offset: 0x7BF19, size: 0x8, addend: 0x0, symName: __ZN5boost4asio6detail23pipe_select_interrupter17close_descriptorsEv, symObjAddr: 0x9B00, symBinAddr: 0x10000E390, symSize: 0x70 }
  - { offsetInCU: 0x6A356, offset: 0x7BF41, size: 0x8, addend: 0x0, symName: __ZN5boost4asio6detail14kqueue_reactorD2Ev, symObjAddr: 0x9B70, symBinAddr: 0x10000E400, symSize: 0x94 }
  - { offsetInCU: 0x6A382, offset: 0x7BF6D, size: 0x8, addend: 0x0, symName: __ZN5boost4asio6detail27conditionally_enabled_mutex11scoped_lock6unlockEv, symObjAddr: 0x9C38, symBinAddr: 0x10000E494, symSize: 0x48 }
  - { offsetInCU: 0x6A3A8, offset: 0x7BF93, size: 0x8, addend: 0x0, symName: __ZN5boost4asio6detail8op_queueINS1_19scheduler_operationEEC1Ev, symObjAddr: 0x9C80, symBinAddr: 0x10000E4DC, symSize: 0x2C }
  - { offsetInCU: 0x6A3D2, offset: 0x7BFBD, size: 0x8, addend: 0x0, symName: __ZN5boost4asio6detail11object_poolINS1_14kqueue_reactor16descriptor_stateEE5firstEv, symObjAddr: 0x9CAC, symBinAddr: 0x10000E508, symSize: 0x18 }
  - { offsetInCU: 0x6A3FD, offset: 0x7BFE8, size: 0x8, addend: 0x0, symName: __ZN5boost4asio6detail8op_queueINS1_19scheduler_operationEE4pushINS1_10reactor_opEEEvRNS2_IT_EE, symObjAddr: 0x9CC4, symBinAddr: 0x10000E520, symSize: 0xB8 }
  - { offsetInCU: 0x6A44F, offset: 0x7C03A, size: 0x8, addend: 0x0, symName: __ZN5boost4asio6detail11object_poolINS1_14kqueue_reactor16descriptor_stateEE4freeEPS4_, symObjAddr: 0x9D7C, symBinAddr: 0x10000E5D8, symSize: 0x11C }
  - { offsetInCU: 0x6A483, offset: 0x7C06E, size: 0x8, addend: 0x0, symName: __ZN5boost4asio6detail15timer_queue_set14get_all_timersERNS1_8op_queueINS1_19scheduler_operationEEE, symObjAddr: 0x9E98, symBinAddr: 0x10000E6F4, symSize: 0x6C }
  - { offsetInCU: 0x6A4DB, offset: 0x7C0C6, size: 0x8, addend: 0x0, symName: __ZN5boost4asio6detail9scheduler18abandon_operationsERNS1_8op_queueINS1_19scheduler_operationEEE, symObjAddr: 0x9F04, symBinAddr: 0x10000E760, symSize: 0x64 }
  - { offsetInCU: 0x6A524, offset: 0x7C10F, size: 0x8, addend: 0x0, symName: __ZN5boost4asio6detail8op_queueINS1_19scheduler_operationEED1Ev, symObjAddr: 0x9F68, symBinAddr: 0x10000E7C4, symSize: 0x2C }
  - { offsetInCU: 0x6A54E, offset: 0x7C139, size: 0x8, addend: 0x0, symName: __ZN5boost4asio6detail27conditionally_enabled_mutex6unlockEv, symObjAddr: 0xA068, symBinAddr: 0x10000E7F0, symSize: 0x40 }
  - { offsetInCU: 0x6A574, offset: 0x7C15F, size: 0x8, addend: 0x0, symName: __ZN5boost4asio6detail8op_queueINS1_19scheduler_operationEEC2Ev, symObjAddr: 0xA0A8, symBinAddr: 0x10000E830, symSize: 0x34 }
  - { offsetInCU: 0x6A59E, offset: 0x7C189, size: 0x8, addend: 0x0, symName: __ZN5boost4asio6detail15op_queue_access5frontINS1_10reactor_opEEERPT_RNS1_8op_queueIS5_EE, symObjAddr: 0xA0DC, symBinAddr: 0x10000E864, symSize: 0x14 }
  - { offsetInCU: 0x6A5CF, offset: 0x7C1BA, size: 0x8, addend: 0x0, symName: __ZN5boost4asio6detail15op_queue_access4nextINS1_19scheduler_operationES4_EEvRPT_PT0_, symObjAddr: 0xA0F0, symBinAddr: 0x10000E878, symSize: 0x24 }
  - { offsetInCU: 0x6A612, offset: 0x7C1FD, size: 0x8, addend: 0x0, symName: __ZN5boost4asio6detail15op_queue_access4backINS1_10reactor_opEEERPT_RNS1_8op_queueIS5_EE, symObjAddr: 0xA114, symBinAddr: 0x10000E89C, symSize: 0x18 }
  - { offsetInCU: 0x6A63E, offset: 0x7C229, size: 0x8, addend: 0x0, symName: __ZN5boost4asio6detail8op_queueINS1_19scheduler_operationEE4pushIS3_EEvRNS2_IT_EE, symObjAddr: 0xA12C, symBinAddr: 0x10000E8B4, symSize: 0xB8 }
  - { offsetInCU: 0x6A690, offset: 0x7C27B, size: 0x8, addend: 0x0, symName: __ZN5boost4asio6detail15op_queue_access5frontINS1_19scheduler_operationEEERPT_RNS1_8op_queueIS5_EE, symObjAddr: 0xA1E4, symBinAddr: 0x10000E96C, symSize: 0x14 }
  - { offsetInCU: 0x6A6BC, offset: 0x7C2A7, size: 0x8, addend: 0x0, symName: __ZN5boost4asio6detail15op_queue_access4backINS1_19scheduler_operationEEERPT_RNS1_8op_queueIS5_EE, symObjAddr: 0xA1F8, symBinAddr: 0x10000E980, symSize: 0x18 }
  - { offsetInCU: 0x6A6E8, offset: 0x7C2D3, size: 0x8, addend: 0x0, symName: __ZN5boost4asio6detail8op_queueINS1_19scheduler_operationEED2Ev, symObjAddr: 0xA210, symBinAddr: 0x10000E998, symSize: 0x78 }
  - { offsetInCU: 0x6A727, offset: 0x7C312, size: 0x8, addend: 0x0, symName: __ZN5boost4asio6detail8op_queueINS1_19scheduler_operationEE3popEv, symObjAddr: 0xA288, symBinAddr: 0x10000EA10, symSize: 0x84 }
  - { offsetInCU: 0x6A76A, offset: 0x7C355, size: 0x8, addend: 0x0, symName: __ZN5boost4asio6detail15op_queue_access7destroyINS1_19scheduler_operationEEEvPT_, symObjAddr: 0xA30C, symBinAddr: 0x10000EA94, symSize: 0x24 }
  - { offsetInCU: 0x6A796, offset: 0x7C381, size: 0x8, addend: 0x0, symName: __ZN5boost4asio6detail15op_queue_access4nextINS1_19scheduler_operationEEEPT_S6_, symObjAddr: 0xA330, symBinAddr: 0x10000EAB8, symSize: 0x18 }
  - { offsetInCU: 0x6A7C2, offset: 0x7C3AD, size: 0x8, addend: 0x0, symName: __ZN5boost4asio6detail23pipe_select_interrupter8recreateEv, symObjAddr: 0xA3A8, symBinAddr: 0x10000EAD0, symSize: 0x3C }
  - { offsetInCU: 0x6A7EA, offset: 0x7C3D5, size: 0x8, addend: 0x0, symName: __ZN5boost4asio6detail14kqueue_reactor11get_timeoutElR8timespec, symObjAddr: 0xA3E4, symBinAddr: 0x10000EB0C, symSize: 0xD8 }
  - { offsetInCU: 0x6A843, offset: 0x7C42E, size: 0x8, addend: 0x0, symName: __ZN5boost4asio6detail23pipe_select_interrupter5resetEv, symObjAddr: 0xA4BC, symBinAddr: 0x10000EBE4, symSize: 0x168 }
  - { offsetInCU: 0x6A896, offset: 0x7C481, size: 0x8, addend: 0x0, symName: __ZNK5boost4asio6detail8op_queueINS1_10reactor_opEE5emptyEv, symObjAddr: 0xA624, symBinAddr: 0x10000ED4C, symSize: 0x24 }
  - { offsetInCU: 0x6A8BC, offset: 0x7C4A7, size: 0x8, addend: 0x0, symName: __ZN5boost4asio6detail8op_queueINS1_10reactor_opEE5frontEv, symObjAddr: 0xA648, symBinAddr: 0x10000ED70, symSize: 0x18 }
  - { offsetInCU: 0x6A8E2, offset: 0x7C4CD, size: 0x8, addend: 0x0, symName: __ZN5boost4asio6detail8op_queueINS1_19scheduler_operationEE4pushEPS3_, symObjAddr: 0xA660, symBinAddr: 0x10000ED88, symSize: 0x80 }
  - { offsetInCU: 0x6A916, offset: 0x7C501, size: 0x8, addend: 0x0, symName: __ZN5boost4asio6detail10reactor_op7performEv, symObjAddr: 0xA6E0, symBinAddr: 0x10000EE08, symSize: 0x28 }
  - { offsetInCU: 0x6A93C, offset: 0x7C527, size: 0x8, addend: 0x0, symName: __ZN5boost4asio6detail27conditionally_enabled_mutex11scoped_lock4lockEv, symObjAddr: 0xA708, symBinAddr: 0x10000EE30, symSize: 0xE4 }
  - { offsetInCU: 0x6A97F, offset: 0x7C56A, size: 0x8, addend: 0x0, symName: __ZN5boost4asio6detail15timer_queue_set16get_ready_timersERNS1_8op_queueINS1_19scheduler_operationEEE, symObjAddr: 0xA7EC, symBinAddr: 0x10000EF14, symSize: 0x6C }
  - { offsetInCU: 0x6A9D7, offset: 0x7C5C2, size: 0x8, addend: 0x0, symName: __ZNK5boost4asio6detail15timer_queue_set18wait_duration_usecEl, symObjAddr: 0xA858, symBinAddr: 0x10000EF80, symSize: 0x7C }
  - { offsetInCU: 0x6AA3F, offset: 0x7C62A, size: 0x8, addend: 0x0, symName: __ZN5boost4asio6detail11posix_mutex8try_lockEv, symObjAddr: 0xA8D4, symBinAddr: 0x10000EFFC, symSize: 0x30 }
  - { offsetInCU: 0x6AA65, offset: 0x7C650, size: 0x8, addend: 0x0, symName: __ZN5boost4asio6detail23pipe_select_interrupter9interruptEv, symObjAddr: 0xA904, symBinAddr: 0x10000F02C, symSize: 0x38 }
  - { offsetInCU: 0x6AAA9, offset: 0x7C694, size: 0x8, addend: 0x0, symName: __ZN5boost4asio6detail11scoped_lockINS1_11posix_mutexEE6unlockEv, symObjAddr: 0xA93C, symBinAddr: 0x10000F064, symSize: 0x48 }
  - { offsetInCU: 0x6AACF, offset: 0x7C6BA, size: 0x8, addend: 0x0, symName: __ZN5boost4asio6detail11scoped_lockINS1_11posix_mutexEE4lockEv, symObjAddr: 0xA984, symBinAddr: 0x10000F0AC, symSize: 0x4C }
  - { offsetInCU: 0x6AAFA, offset: 0x7C6E5, size: 0x8, addend: 0x0, symName: __ZN5boost4asio6detail16service_registry16auto_service_ptrD1Ev, symObjAddr: 0xA9D0, symBinAddr: 0x10000F0F8, symSize: 0x2C }
  - { offsetInCU: 0x6AB24, offset: 0x7C70F, size: 0x8, addend: 0x0, symName: __ZN5boost4asio6detail16service_registry16auto_service_ptrD2Ev, symObjAddr: 0xA9FC, symBinAddr: 0x10000F124, symSize: 0x38 }
  - { offsetInCU: 0x6AB4E, offset: 0x7C739, size: 0x8, addend: 0x0, symName: __ZN5boost4asio6detail9schedulerC2ERNS0_17execution_contextEbPFPNS1_14scheduler_taskES4_E, symObjAddr: 0xAA7C, symBinAddr: 0x10000F15C, symSize: 0x3AC }
  - { offsetInCU: 0x6ABBA, offset: 0x7C7A5, size: 0x8, addend: 0x0, symName: __ZN5boost4asio6detail30execution_context_service_baseINS1_9schedulerEEC2ERNS0_17execution_contextE, symObjAddr: 0xAE28, symBinAddr: 0x10000F508, symSize: 0x4C }
  - { offsetInCU: 0x6ABF4, offset: 0x7C7DF, size: 0x8, addend: 0x0, symName: __ZN5boost4asio6detail27conditionally_enabled_eventC1Ev, symObjAddr: 0xAE74, symBinAddr: 0x10000F554, symSize: 0x2C }
  - { offsetInCU: 0x6AC1E, offset: 0x7C809, size: 0x8, addend: 0x0, symName: __ZN5boost4asio6detail9scheduler14task_operationC1Ev, symObjAddr: 0xAEA0, symBinAddr: 0x10000F580, symSize: 0x2C }
  - { offsetInCU: 0x6AC48, offset: 0x7C833, size: 0x8, addend: 0x0, symName: __ZNSt3__16atomicIlEC1B8ue170006El, symObjAddr: 0xAECC, symBinAddr: 0x10000F5AC, symSize: 0x34 }
  - { offsetInCU: 0x6AC80, offset: 0x7C86B, size: 0x8, addend: 0x0, symName: __ZNK5boost4asio6config3getIlEENS0_10constraintIXsr11is_integralIT_EE5valueES4_E4typeEPKcS8_S4_, symObjAddr: 0xAF00, symBinAddr: 0x10000F5E0, symSize: 0x40 }
  - { offsetInCU: 0x6ACD9, offset: 0x7C8C4, size: 0x8, addend: 0x0, symName: __ZNSt3__113__atomic_baseIlLb1EEppB8ue170006Ev, symObjAddr: 0xAF40, symBinAddr: 0x10000F620, symSize: 0x30 }
  - { offsetInCU: 0x6AD04, offset: 0x7C8EF, size: 0x8, addend: 0x0, symName: __ZN5boost4asio6detail20posix_signal_blockerC1Ev, symObjAddr: 0xAF70, symBinAddr: 0x10000F650, symSize: 0x2C }
  - { offsetInCU: 0x6AD2E, offset: 0x7C919, size: 0x8, addend: 0x0, symName: __ZN5boost4asio6detail9scheduler15thread_functionC1EPS2_, symObjAddr: 0xAF9C, symBinAddr: 0x10000F67C, symSize: 0x34 }
  - { offsetInCU: 0x6AD66, offset: 0x7C951, size: 0x8, addend: 0x0, symName: __ZN5boost4asio6detail12posix_threadC1INS1_9scheduler15thread_functionEEET_j, symObjAddr: 0xAFD0, symBinAddr: 0x10000F6B0, symSize: 0x3C }
  - { offsetInCU: 0x6ADB2, offset: 0x7C99D, size: 0x8, addend: 0x0, symName: __ZN5boost4asio6detail20posix_signal_blockerD1Ev, symObjAddr: 0xB00C, symBinAddr: 0x10000F6EC, symSize: 0x2C }
  - { offsetInCU: 0x6ADDC, offset: 0x7C9C7, size: 0x8, addend: 0x0, symName: __ZN5boost4asio6detail9scheduler14task_operationD1Ev, symObjAddr: 0xB038, symBinAddr: 0x10000F718, symSize: 0x2C }
  - { offsetInCU: 0x6AE08, offset: 0x7C9F3, size: 0x8, addend: 0x0, symName: __ZN5boost4asio6detail27conditionally_enabled_eventD1Ev, symObjAddr: 0xB064, symBinAddr: 0x10000F744, symSize: 0x2C }
  - { offsetInCU: 0x6AE32, offset: 0x7CA1D, size: 0x8, addend: 0x0, symName: __ZN5boost4asio6detail30execution_context_service_baseINS1_9schedulerEED2Ev, symObjAddr: 0xB090, symBinAddr: 0x10000F770, symSize: 0x2C }
  - { offsetInCU: 0x6AE5F, offset: 0x7CA4A, size: 0x8, addend: 0x0, symName: __ZN5boost4asio6detail9schedulerD1Ev, symObjAddr: 0xB0BC, symBinAddr: 0x10000F79C, symSize: 0x2C }
  - { offsetInCU: 0x6AE8B, offset: 0x7CA76, size: 0x8, addend: 0x0, symName: __ZN5boost4asio6detail9schedulerD0Ev, symObjAddr: 0xB0E8, symBinAddr: 0x10000F7C8, symSize: 0x30 }
  - { offsetInCU: 0x6AEB7, offset: 0x7CAA2, size: 0x8, addend: 0x0, symName: __ZN5boost4asio6detail9scheduler8shutdownEv, symObjAddr: 0xB118, symBinAddr: 0x10000F7F8, symSize: 0x16C }
  - { offsetInCU: 0x6AF0A, offset: 0x7CAF5, size: 0x8, addend: 0x0, symName: __ZN5boost4asio6detail30execution_context_service_baseINS1_9schedulerEED1Ev, symObjAddr: 0xB284, symBinAddr: 0x10000F964, symSize: 0x14 }
  - { offsetInCU: 0x6AF37, offset: 0x7CB22, size: 0x8, addend: 0x0, symName: __ZN5boost4asio6detail30execution_context_service_baseINS1_9schedulerEED0Ev, symObjAddr: 0xB298, symBinAddr: 0x10000F978, symSize: 0xC }
  - { offsetInCU: 0x6AF64, offset: 0x7CB4F, size: 0x8, addend: 0x0, symName: __ZN5boost4asio6detail27conditionally_enabled_eventC2Ev, symObjAddr: 0xB2A4, symBinAddr: 0x10000F984, symSize: 0x60 }
  - { offsetInCU: 0x6AF8E, offset: 0x7CB79, size: 0x8, addend: 0x0, symName: __ZN5boost4asio6detail11posix_eventC1Ev, symObjAddr: 0xB304, symBinAddr: 0x10000F9E4, symSize: 0x2C }
  - { offsetInCU: 0x6AFBA, offset: 0x7CBA5, size: 0x8, addend: 0x0, symName: __ZN5boost4asio6detail11posix_eventC2Ev, symObjAddr: 0xB330, symBinAddr: 0x10000FA10, symSize: 0xC4 }
  - { offsetInCU: 0x6B009, offset: 0x7CBF4, size: 0x8, addend: 0x0, symName: __ZN5boost4asio6detail9scheduler14task_operationC2Ev, symObjAddr: 0xB3F4, symBinAddr: 0x10000FAD4, symSize: 0x30 }
  - { offsetInCU: 0x6B033, offset: 0x7CC1E, size: 0x8, addend: 0x0, symName: __ZN5boost4asio6detail19scheduler_operationC2EPFvPvPS2_RKNS_6system10error_codeEmE, symObjAddr: 0xB424, symBinAddr: 0x10000FB04, symSize: 0x28 }
  - { offsetInCU: 0x6B06B, offset: 0x7CC56, size: 0x8, addend: 0x0, symName: __ZNSt3__16atomicIlEC2B8ue170006El, symObjAddr: 0xB44C, symBinAddr: 0x10000FB2C, symSize: 0x34 }
  - { offsetInCU: 0x6B0A3, offset: 0x7CC8E, size: 0x8, addend: 0x0, symName: __ZNSt3__113__atomic_baseIlLb1EEC2B8ue170006El, symObjAddr: 0xB480, symBinAddr: 0x10000FB60, symSize: 0x34 }
  - { offsetInCU: 0x6B0DB, offset: 0x7CCC6, size: 0x8, addend: 0x0, symName: __ZNSt3__113__atomic_baseIlLb0EEC2B8ue170006El, symObjAddr: 0xB4B4, symBinAddr: 0x10000FB94, symSize: 0x34 }
  - { offsetInCU: 0x6B113, offset: 0x7CCFE, size: 0x8, addend: 0x0, symName: __ZNSt3__117__cxx_atomic_implIlNS_22__cxx_atomic_base_implIlEEEC1B8ue170006El, symObjAddr: 0xB4E8, symBinAddr: 0x10000FBC8, symSize: 0x34 }
  - { offsetInCU: 0x6B14D, offset: 0x7CD38, size: 0x8, addend: 0x0, symName: __ZNSt3__117__cxx_atomic_implIlNS_22__cxx_atomic_base_implIlEEEC2B8ue170006El, symObjAddr: 0xB51C, symBinAddr: 0x10000FBFC, symSize: 0x34 }
  - { offsetInCU: 0x6B187, offset: 0x7CD72, size: 0x8, addend: 0x0, symName: __ZNSt3__122__cxx_atomic_base_implIlEC2El, symObjAddr: 0xB550, symBinAddr: 0x10000FC30, symSize: 0x20 }
  - { offsetInCU: 0x6B1C1, offset: 0x7CDAC, size: 0x8, addend: 0x0, symName: __ZNSt3__114numeric_limitsIlE3minB8ue170006Ev, symObjAddr: 0xB6A0, symBinAddr: 0x10000FD80, symSize: 0x14 }
  - { offsetInCU: 0x6B1D5, offset: 0x7CDC0, size: 0x8, addend: 0x0, symName: __ZNSt3__114numeric_limitsIlE3maxB8ue170006Ev, symObjAddr: 0xB6B4, symBinAddr: 0x10000FD94, symSize: 0x14 }
  - { offsetInCU: 0x6B1E9, offset: 0x7CDD4, size: 0x8, addend: 0x0, symName: __ZNSt3__123__libcpp_numeric_limitsIlLb1EE3minB8ue170006Ev, symObjAddr: 0xB6C8, symBinAddr: 0x10000FDA8, symSize: 0x8 }
  - { offsetInCU: 0x6B1FD, offset: 0x7CDE8, size: 0x8, addend: 0x0, symName: __ZNSt3__123__libcpp_numeric_limitsIlLb1EE3maxB8ue170006Ev, symObjAddr: 0xB6D0, symBinAddr: 0x10000FDB0, symSize: 0x8 }
  - { offsetInCU: 0x6B211, offset: 0x7CDFC, size: 0x8, addend: 0x0, symName: __ZNSt3__113__atomic_baseIlLb1EE9fetch_addB8ue170006ElNS_12memory_orderE, symObjAddr: 0xB6D8, symBinAddr: 0x10000FDB8, symSize: 0x34 }
  - { offsetInCU: 0x6B253, offset: 0x7CE3E, size: 0x8, addend: 0x0, symName: __ZN5boost4asio6detail20posix_signal_blockerC2Ev, symObjAddr: 0xB7E4, symBinAddr: 0x10000FEC4, symSize: 0x8C }
  - { offsetInCU: 0x6B294, offset: 0x7CE7F, size: 0x8, addend: 0x0, symName: __ZN5boost4asio6detail9scheduler15thread_functionC2EPS2_, symObjAddr: 0xB870, symBinAddr: 0x10000FF50, symSize: 0x20 }
  - { offsetInCU: 0x6B2CC, offset: 0x7CEB7, size: 0x8, addend: 0x0, symName: __ZN5boost4asio6detail12posix_threadC2INS1_9scheduler15thread_functionEEET_j, symObjAddr: 0xB890, symBinAddr: 0x10000FF70, symSize: 0xB4 }
  - { offsetInCU: 0x6B318, offset: 0x7CF03, size: 0x8, addend: 0x0, symName: __ZN5boost4asio6detail12posix_thread12start_threadEPNS2_9func_baseE, symObjAddr: 0xB944, symBinAddr: 0x100010024, symSize: 0xD0 }
  - { offsetInCU: 0x6B37E, offset: 0x7CF69, size: 0x8, addend: 0x0, symName: __ZN5boost4asio6detail12posix_thread4funcINS1_9scheduler15thread_functionEEC1ES5_, symObjAddr: 0xBA14, symBinAddr: 0x1000100F4, symSize: 0x34 }
  - { offsetInCU: 0x6B3B6, offset: 0x7CFA1, size: 0x8, addend: 0x0, symName: _boost_asio_detail_posix_thread_function, symObjAddr: 0xBA48, symBinAddr: 0x100010128, symSize: 0x64 }
  - { offsetInCU: 0x6B3F2, offset: 0x7CFDD, size: 0x8, addend: 0x0, symName: __ZN5boost4asio6detail12posix_thread18auto_func_base_ptrD1Ev, symObjAddr: 0xBAAC, symBinAddr: 0x10001018C, symSize: 0x2C }
  - { offsetInCU: 0x6B41C, offset: 0x7D007, size: 0x8, addend: 0x0, symName: __ZN5boost4asio6detail12posix_thread18auto_func_base_ptrD2Ev, symObjAddr: 0xBAD8, symBinAddr: 0x1000101B8, symSize: 0x58 }
  - { offsetInCU: 0x6B446, offset: 0x7D031, size: 0x8, addend: 0x0, symName: __ZN5boost4asio6detail12posix_thread4funcINS1_9scheduler15thread_functionEEC2ES5_, symObjAddr: 0xBB30, symBinAddr: 0x100010210, symSize: 0x50 }
  - { offsetInCU: 0x6B47E, offset: 0x7D069, size: 0x8, addend: 0x0, symName: __ZN5boost4asio6detail12posix_thread9func_baseC2Ev, symObjAddr: 0xBB80, symBinAddr: 0x100010260, symSize: 0x24 }
  - { offsetInCU: 0x6B4AA, offset: 0x7D095, size: 0x8, addend: 0x0, symName: __ZN5boost4asio6detail12posix_thread4funcINS1_9scheduler15thread_functionEED1Ev, symObjAddr: 0xBBA4, symBinAddr: 0x100010284, symSize: 0x2C }
  - { offsetInCU: 0x6B4D6, offset: 0x7D0C1, size: 0x8, addend: 0x0, symName: __ZN5boost4asio6detail12posix_thread4funcINS1_9scheduler15thread_functionEED0Ev, symObjAddr: 0xBBD0, symBinAddr: 0x1000102B0, symSize: 0x30 }
  - { offsetInCU: 0x6B502, offset: 0x7D0ED, size: 0x8, addend: 0x0, symName: __ZN5boost4asio6detail12posix_thread4funcINS1_9scheduler15thread_functionEE3runEv, symObjAddr: 0xBC00, symBinAddr: 0x1000102E0, symSize: 0x28 }
  - { offsetInCU: 0x6B528, offset: 0x7D113, size: 0x8, addend: 0x0, symName: __ZN5boost4asio6detail12posix_thread9func_baseD1Ev, symObjAddr: 0xBC28, symBinAddr: 0x100010308, symSize: 0x14 }
  - { offsetInCU: 0x6B552, offset: 0x7D13D, size: 0x8, addend: 0x0, symName: __ZN5boost4asio6detail12posix_thread9func_baseD0Ev, symObjAddr: 0xBC3C, symBinAddr: 0x10001031C, symSize: 0xC }
  - { offsetInCU: 0x6B57C, offset: 0x7D167, size: 0x8, addend: 0x0, symName: __ZN5boost4asio6detail12posix_thread4funcINS1_9scheduler15thread_functionEED2Ev, symObjAddr: 0xBC48, symBinAddr: 0x100010328, symSize: 0x2C }
  - { offsetInCU: 0x6B5A8, offset: 0x7D193, size: 0x8, addend: 0x0, symName: __ZN5boost4asio6detail12posix_thread9func_baseD2Ev, symObjAddr: 0xBC74, symBinAddr: 0x100010354, symSize: 0x14 }
  - { offsetInCU: 0x6B5D2, offset: 0x7D1BD, size: 0x8, addend: 0x0, symName: __ZN5boost4asio6detail9scheduler15thread_functionclEv, symObjAddr: 0xBC88, symBinAddr: 0x100010368, symSize: 0x40 }
  - { offsetInCU: 0x6B606, offset: 0x7D1F1, size: 0x8, addend: 0x0, symName: __ZN5boost4asio6detail9scheduler3runERNS_6system10error_codeE, symObjAddr: 0xBCC8, symBinAddr: 0x1000103A8, symSize: 0x1AC }
  - { offsetInCU: 0x6B676, offset: 0x7D261, size: 0x8, addend: 0x0, symName: __ZNKSt3__113__atomic_baseIlLb0EEcvlB8ue170006Ev, symObjAddr: 0xBE74, symBinAddr: 0x100010554, symSize: 0x28 }
  - { offsetInCU: 0x6B6A1, offset: 0x7D28C, size: 0x8, addend: 0x0, symName: __ZN5boost4asio6detail21scheduler_thread_infoC1Ev, symObjAddr: 0xBF08, symBinAddr: 0x10001057C, symSize: 0x2C }
  - { offsetInCU: 0x6B6CD, offset: 0x7D2B8, size: 0x8, addend: 0x0, symName: __ZN5boost4asio6detail10call_stackINS1_14thread_contextENS1_16thread_info_baseEE7contextC1EPS3_RS4_, symObjAddr: 0xBF34, symBinAddr: 0x1000105A8, symSize: 0x3C }
  - { offsetInCU: 0x6B713, offset: 0x7D2FE, size: 0x8, addend: 0x0, symName: __ZN5boost4asio6detail9scheduler10do_run_oneERNS1_27conditionally_enabled_mutex11scoped_lockERNS1_21scheduler_thread_infoERKNS_6system10error_codeE, symObjAddr: 0xBF70, symBinAddr: 0x1000105E4, symSize: 0x320 }
  - { offsetInCU: 0x6B7D2, offset: 0x7D3BD, size: 0x8, addend: 0x0, symName: __ZNSt3__114numeric_limitsImE3maxB8ue170006Ev, symObjAddr: 0xC290, symBinAddr: 0x100010904, symSize: 0x14 }
  - { offsetInCU: 0x6B7E6, offset: 0x7D3D1, size: 0x8, addend: 0x0, symName: __ZN5boost4asio6detail10call_stackINS1_14thread_contextENS1_16thread_info_baseEE7contextD1Ev, symObjAddr: 0xC2A4, symBinAddr: 0x100010918, symSize: 0x2C }
  - { offsetInCU: 0x6B810, offset: 0x7D3FB, size: 0x8, addend: 0x0, symName: __ZN5boost4asio6detail21scheduler_thread_infoD1Ev, symObjAddr: 0xC2D0, symBinAddr: 0x100010944, symSize: 0x2C }
  - { offsetInCU: 0x6B83C, offset: 0x7D427, size: 0x8, addend: 0x0, symName: __ZNKSt3__113__atomic_baseIlLb0EE4loadB8ue170006ENS_12memory_orderE, symObjAddr: 0xC2FC, symBinAddr: 0x100010970, symSize: 0x2C }
  - { offsetInCU: 0x6B870, offset: 0x7D45B, size: 0x8, addend: 0x0, symName: __ZN5boost4asio6detail21scheduler_thread_infoC2Ev, symObjAddr: 0xC508, symBinAddr: 0x100010A1C, symSize: 0x60 }
  - { offsetInCU: 0x6B89C, offset: 0x7D487, size: 0x8, addend: 0x0, symName: __ZN5boost4asio6detail16thread_info_baseC2Ev, symObjAddr: 0xC568, symBinAddr: 0x100010A7C, symSize: 0x84 }
  - { offsetInCU: 0x6B8E3, offset: 0x7D4CE, size: 0x8, addend: 0x0, symName: __ZN5boost4asio6detail16thread_info_baseD2Ev, symObjAddr: 0xC5EC, symBinAddr: 0x100010B00, symSize: 0xA8 }
  - { offsetInCU: 0x6B922, offset: 0x7D50D, size: 0x8, addend: 0x0, symName: __ZNSt13exception_ptrC1B8ue170006Ev, symObjAddr: 0xC694, symBinAddr: 0x100010BA8, symSize: 0x2C }
  - { offsetInCU: 0x6B94C, offset: 0x7D537, size: 0x8, addend: 0x0, symName: __ZNSt13exception_ptrC2B8ue170006Ev, symObjAddr: 0xC6C0, symBinAddr: 0x100010BD4, symSize: 0x18 }
  - { offsetInCU: 0x6B976, offset: 0x7D561, size: 0x8, addend: 0x0, symName: __ZN5boost4asio6detail10call_stackINS1_14thread_contextENS1_16thread_info_baseEE7contextC2EPS3_RS4_, symObjAddr: 0xC728, symBinAddr: 0x100010C3C, symSize: 0x9C }
  - { offsetInCU: 0x6B9BC, offset: 0x7D5A7, size: 0x8, addend: 0x0, symName: __ZNK5boost4asio6detail15keyword_tss_ptrINS1_10call_stackINS1_14thread_contextENS1_16thread_info_baseEE7contextEEcvPS7_Ev, symObjAddr: 0xC7C4, symBinAddr: 0x100010CD8, symSize: 0x30 }
  - { offsetInCU: 0x6B9E2, offset: 0x7D5CD, size: 0x8, addend: 0x0, symName: __ZN5boost4asio6detail7tss_ptrINS1_10call_stackINS1_14thread_contextENS1_16thread_info_baseEE7contextEEaSEPS7_, symObjAddr: 0xC7F4, symBinAddr: 0x100010D08, symSize: 0x2C }
  - { offsetInCU: 0x6BA16, offset: 0x7D601, size: 0x8, addend: 0x0, symName: __ZN5boost4asio6detail15keyword_tss_ptrINS1_10call_stackINS1_14thread_contextENS1_16thread_info_baseEE7contextEEaSEPS7_, symObjAddr: 0xC820, symBinAddr: 0x100010D34, symSize: 0x38 }
  - { offsetInCU: 0x6BA4A, offset: 0x7D635, size: 0x8, addend: 0x0, symName: __ZNK5boost4asio6detail8op_queueINS1_19scheduler_operationEE5emptyEv, symObjAddr: 0xC858, symBinAddr: 0x100010D6C, symSize: 0x24 }
  - { offsetInCU: 0x6BA70, offset: 0x7D65B, size: 0x8, addend: 0x0, symName: __ZN5boost4asio6detail8op_queueINS1_19scheduler_operationEE5frontEv, symObjAddr: 0xC87C, symBinAddr: 0x100010D90, symSize: 0x18 }
  - { offsetInCU: 0x6BA96, offset: 0x7D681, size: 0x8, addend: 0x0, symName: __ZN5boost4asio6detail27conditionally_enabled_event21unlock_and_signal_oneERNS1_27conditionally_enabled_mutex11scoped_lockE, symObjAddr: 0xC894, symBinAddr: 0x100010DA8, symSize: 0x50 }
  - { offsetInCU: 0x6BAD4, offset: 0x7D6BF, size: 0x8, addend: 0x0, symName: __ZN5boost4asio6detail9scheduler12task_cleanupD1Ev, symObjAddr: 0xC8E4, symBinAddr: 0x100010DF8, symSize: 0x2C }
  - { offsetInCU: 0x6BAFE, offset: 0x7D6E9, size: 0x8, addend: 0x0, symName: __ZN5boost4asio6detail9scheduler26wake_one_thread_and_unlockERNS1_27conditionally_enabled_mutex11scoped_lockE, symObjAddr: 0xC910, symBinAddr: 0x100010E24, symSize: 0xA8 }
  - { offsetInCU: 0x6BB37, offset: 0x7D722, size: 0x8, addend: 0x0, symName: __ZN5boost4asio6detail19scheduler_operation8completeEPvRKNS_6system10error_codeEm, symObjAddr: 0xC9B8, symBinAddr: 0x100010ECC, symSize: 0x40 }
  - { offsetInCU: 0x6BB87, offset: 0x7D772, size: 0x8, addend: 0x0, symName: __ZN5boost4asio6detail16thread_info_base25rethrow_pending_exceptionEv, symObjAddr: 0xC9F8, symBinAddr: 0x100010F0C, symSize: 0x98 }
  - { offsetInCU: 0x6BBCF, offset: 0x7D7BA, size: 0x8, addend: 0x0, symName: __ZN5boost4asio6detail9scheduler12work_cleanupD1Ev, symObjAddr: 0xCA90, symBinAddr: 0x100010FA4, symSize: 0x2C }
  - { offsetInCU: 0x6BBF9, offset: 0x7D7E4, size: 0x8, addend: 0x0, symName: __ZN5boost4asio6detail27conditionally_enabled_event5clearERNS1_27conditionally_enabled_mutex11scoped_lockE, symObjAddr: 0xCABC, symBinAddr: 0x100010FD0, symSize: 0x50 }
  - { offsetInCU: 0x6BC2D, offset: 0x7D818, size: 0x8, addend: 0x0, symName: __ZN5boost4asio6detail27conditionally_enabled_event13wait_for_usecERNS1_27conditionally_enabled_mutex11scoped_lockEl, symObjAddr: 0xCB0C, symBinAddr: 0x100011020, symSize: 0xCC }
  - { offsetInCU: 0x6BC6F, offset: 0x7D85A, size: 0x8, addend: 0x0, symName: __ZN5boost4asio6detail27conditionally_enabled_event4waitERNS1_27conditionally_enabled_mutex11scoped_lockE, symObjAddr: 0xCBD8, symBinAddr: 0x1000110EC, symSize: 0x98 }
  - { offsetInCU: 0x6BCA3, offset: 0x7D88E, size: 0x8, addend: 0x0, symName: __ZN5boost4asio6detail11posix_event21unlock_and_signal_oneINS1_27conditionally_enabled_mutex11scoped_lockEEEvRT_, symObjAddr: 0xCC70, symBinAddr: 0x100011184, symSize: 0xA4 }
  - { offsetInCU: 0x6BCEE, offset: 0x7D8D9, size: 0x8, addend: 0x0, symName: __ZN5boost4asio6detail9scheduler12task_cleanupD2Ev, symObjAddr: 0xCD14, symBinAddr: 0x100011228, symSize: 0xC4 }
  - { offsetInCU: 0x6BD18, offset: 0x7D903, size: 0x8, addend: 0x0, symName: __ZNSt3__113__atomic_baseIlLb1EEpLB8ue170006El, symObjAddr: 0xCE04, symBinAddr: 0x100011318, symSize: 0x38 }
  - { offsetInCU: 0x6BD4C, offset: 0x7D937, size: 0x8, addend: 0x0, symName: __ZN5boost4asio6detail27conditionally_enabled_event27maybe_unlock_and_signal_oneERNS1_27conditionally_enabled_mutex11scoped_lockE, symObjAddr: 0xCE3C, symBinAddr: 0x100011350, symSize: 0x78 }
  - { offsetInCU: 0x6BD80, offset: 0x7D96B, size: 0x8, addend: 0x0, symName: __ZN5boost4asio6detail11posix_event27maybe_unlock_and_signal_oneINS1_27conditionally_enabled_mutex11scoped_lockEEEbRT_, symObjAddr: 0xCEB4, symBinAddr: 0x1000113C8, symSize: 0xC0 }
  - { offsetInCU: 0x6BDBD, offset: 0x7D9A8, size: 0x8, addend: 0x0, symName: __ZN5boost4asio6detail9scheduler12work_cleanupD2Ev, symObjAddr: 0xCF74, symBinAddr: 0x100011488, symSize: 0xF0 }
  - { offsetInCU: 0x6BDE7, offset: 0x7D9D2, size: 0x8, addend: 0x0, symName: __ZN5boost4asio6detail11posix_event5clearINS1_27conditionally_enabled_mutex11scoped_lockEEEvRT_, symObjAddr: 0xD1FC, symBinAddr: 0x10001158C, symSize: 0x6C }
  - { offsetInCU: 0x6BE24, offset: 0x7DA0F, size: 0x8, addend: 0x0, symName: __ZN5boost4asio6detail11posix_event13wait_for_usecINS1_27conditionally_enabled_mutex11scoped_lockEEEbRT_l, symObjAddr: 0xD268, symBinAddr: 0x1000115F8, symSize: 0x108 }
  - { offsetInCU: 0x6BE91, offset: 0x7DA7C, size: 0x8, addend: 0x0, symName: __ZN5boost4asio6detail10null_eventC1Ev, symObjAddr: 0xD370, symBinAddr: 0x100011700, symSize: 0x2C }
  - { offsetInCU: 0x6BEBB, offset: 0x7DAA6, size: 0x8, addend: 0x0, symName: __ZN5boost4asio6detail10null_event13wait_for_usecINS1_27conditionally_enabled_mutex11scoped_lockEEEbRT_l, symObjAddr: 0xD39C, symBinAddr: 0x10001172C, symSize: 0x34 }
  - { offsetInCU: 0x6BF06, offset: 0x7DAF1, size: 0x8, addend: 0x0, symName: __ZN5boost4asio6detail10null_eventD1Ev, symObjAddr: 0xD3D0, symBinAddr: 0x100011760, symSize: 0x2C }
  - { offsetInCU: 0x6BF30, offset: 0x7DB1B, size: 0x8, addend: 0x0, symName: __ZN5boost4asio6detail27conditionally_enabled_mutex11scoped_lock5mutexEv, symObjAddr: 0xD3FC, symBinAddr: 0x10001178C, symSize: 0x1C }
  - { offsetInCU: 0x6BF56, offset: 0x7DB41, size: 0x8, addend: 0x0, symName: __ZN5boost4asio6detail10null_eventC2Ev, symObjAddr: 0xD418, symBinAddr: 0x1000117A8, symSize: 0x2C }
  - { offsetInCU: 0x6BF80, offset: 0x7DB6B, size: 0x8, addend: 0x0, symName: __ZN5boost4asio6detail10null_event16do_wait_for_usecEl, symObjAddr: 0xD444, symBinAddr: 0x1000117D4, symSize: 0x5C }
  - { offsetInCU: 0x6BFB8, offset: 0x7DBA3, size: 0x8, addend: 0x0, symName: __ZN5boost4asio6detail10null_eventD2Ev, symObjAddr: 0xD4A0, symBinAddr: 0x100011830, symSize: 0x2C }
  - { offsetInCU: 0x6BFE2, offset: 0x7DBCD, size: 0x8, addend: 0x0, symName: __ZN5boost4asio6detail11posix_event4waitINS1_27conditionally_enabled_mutex11scoped_lockEEEvRT_, symObjAddr: 0xD4CC, symBinAddr: 0x10001185C, symSize: 0xB0 }
  - { offsetInCU: 0x6C01F, offset: 0x7DC0A, size: 0x8, addend: 0x0, symName: __ZN5boost4asio6detail10null_event4waitINS1_27conditionally_enabled_mutex11scoped_lockEEEvRT_, symObjAddr: 0xD57C, symBinAddr: 0x10001190C, symSize: 0x24 }
  - { offsetInCU: 0x6C05A, offset: 0x7DC45, size: 0x8, addend: 0x0, symName: __ZN5boost4asio6detail10null_event7do_waitEv, symObjAddr: 0xD5A0, symBinAddr: 0x100011930, symSize: 0x14 }
  - { offsetInCU: 0x6C071, offset: 0x7DC5C, size: 0x8, addend: 0x0, symName: __ZNSt3__123__libcpp_numeric_limitsImLb1EE3maxB8ue170006Ev, symObjAddr: 0xD5B4, symBinAddr: 0x100011944, symSize: 0x8 }
  - { offsetInCU: 0x6C085, offset: 0x7DC70, size: 0x8, addend: 0x0, symName: __ZN5boost4asio6detail10call_stackINS1_14thread_contextENS1_16thread_info_baseEE7contextD2Ev, symObjAddr: 0xD5BC, symBinAddr: 0x10001194C, symSize: 0x48 }
  - { offsetInCU: 0x6C0AF, offset: 0x7DC9A, size: 0x8, addend: 0x0, symName: __ZN5boost4asio6detail21scheduler_thread_infoD2Ev, symObjAddr: 0xD604, symBinAddr: 0x100011994, symSize: 0x38 }
  - { offsetInCU: 0x6C0DB, offset: 0x7DCC6, size: 0x8, addend: 0x0, symName: __ZN5boost4asio6detail20posix_signal_blockerD2Ev, symObjAddr: 0xD63C, symBinAddr: 0x1000119CC, symSize: 0x64 }
  - { offsetInCU: 0x6C105, offset: 0x7DCF0, size: 0x8, addend: 0x0, symName: __ZN5boost4asio6detail9scheduler14task_operationD2Ev, symObjAddr: 0xD6A0, symBinAddr: 0x100011A30, symSize: 0x2C }
  - { offsetInCU: 0x6C131, offset: 0x7DD1C, size: 0x8, addend: 0x0, symName: __ZN5boost4asio6detail19scheduler_operationD2Ev, symObjAddr: 0xD6CC, symBinAddr: 0x100011A5C, symSize: 0x14 }
  - { offsetInCU: 0x6C15B, offset: 0x7DD46, size: 0x8, addend: 0x0, symName: __ZN5boost4asio6detail27conditionally_enabled_eventD2Ev, symObjAddr: 0xD6E0, symBinAddr: 0x100011A70, symSize: 0x38 }
  - { offsetInCU: 0x6C185, offset: 0x7DD70, size: 0x8, addend: 0x0, symName: __ZN5boost4asio6detail11posix_eventD1Ev, symObjAddr: 0xD718, symBinAddr: 0x100011AA8, symSize: 0x2C }
  - { offsetInCU: 0x6C1AF, offset: 0x7DD9A, size: 0x8, addend: 0x0, symName: __ZN5boost4asio6detail11posix_eventD2Ev, symObjAddr: 0xD744, symBinAddr: 0x100011AD4, symSize: 0x3C }
  - { offsetInCU: 0x6C1D9, offset: 0x7DDC4, size: 0x8, addend: 0x0, symName: __ZN5boost4asio6detail9schedulerD2Ev, symObjAddr: 0xD780, symBinAddr: 0x100011B10, symSize: 0x114 }
  - { offsetInCU: 0x6C21A, offset: 0x7DE05, size: 0x8, addend: 0x0, symName: __ZNSt3__117basic_string_viewIcNS_11char_traitsIcEEEC1B8ue170006EPKcm, symObjAddr: 0xDAE8, symBinAddr: 0x100011C24, symSize: 0x3C }
  - { offsetInCU: 0x6C264, offset: 0x7DE4F, size: 0x8, addend: 0x0, symName: __ZNSt3__117basic_string_viewIcNS_11char_traitsIcEEEC2B8ue170006EPKcm, symObjAddr: 0xDB24, symBinAddr: 0x100011C60, symSize: 0x2C }
  - { offsetInCU: 0x6C2AE, offset: 0x7DE99, size: 0x8, addend: 0x0, symName: __ZN5boost4asio3ssl7contextC2ENS1_12context_base6methodE, symObjAddr: 0xDB50, symBinAddr: 0x100011C8C, symSize: 0xAAC }
  - { offsetInCU: 0x6C30D, offset: 0x7DEF8, size: 0x8, addend: 0x0, symName: __ZN5boost6system10error_codeC1INS_4asio5error12basic_errorsEEET_PNSt3__19enable_ifIXoosr18is_error_code_enumIS6_EE5valuesr3std18is_error_code_enumIS6_EE5valueEvE4typeE, symObjAddr: 0xE65C, symBinAddr: 0x100012798, symSize: 0x3C }
  - { offsetInCU: 0x6C359, offset: 0x7DF44, size: 0x8, addend: 0x0, symName: __ZN5boost4asio3ssl7context15translate_errorEl, symObjAddr: 0xE698, symBinAddr: 0x1000127D4, symSize: 0x78 }
  - { offsetInCU: 0x6C381, offset: 0x7DF6C, size: 0x8, addend: 0x0, symName: __ZN5boost4asio3ssl7context11set_optionsEy, symObjAddr: 0xE710, symBinAddr: 0x10001284C, symSize: 0x78 }
  - { offsetInCU: 0x6C3CA, offset: 0x7DFB5, size: 0x8, addend: 0x0, symName: __ZN5boost4asio3ssl12context_baseD2Ev, symObjAddr: 0xE788, symBinAddr: 0x1000128C4, symSize: 0x14 }
  - { offsetInCU: 0x6C3F4, offset: 0x7DFDF, size: 0x8, addend: 0x0, symName: __ZN5boost6system10error_codeC2INS_4asio5error12basic_errorsEEET_PNSt3__19enable_ifIXoosr18is_error_code_enumIS6_EE5valuesr3std18is_error_code_enumIS6_EE5valueEvE4typeE, symObjAddr: 0xE79C, symBinAddr: 0x1000128D8, symSize: 0x60 }
  - { offsetInCU: 0x6C440, offset: 0x7E02B, size: 0x8, addend: 0x0, symName: __ZL14ERR_GET_REASONm, symObjAddr: 0xE838, symBinAddr: 0x100012974, symSize: 0x48 }
  - { offsetInCU: 0x6C470, offset: 0x7E05B, size: 0x8, addend: 0x0, symName: __ZN5boost4asio3ssl7context11set_optionsEyRNS_6system10error_codeE, symObjAddr: 0xE880, symBinAddr: 0x1000129BC, symSize: 0x6C }
  - { offsetInCU: 0x6C4B9, offset: 0x7E0A4, size: 0x8, addend: 0x0, symName: __ZN5boost4asio3ssl7context15set_verify_modeEiRNS_6system10error_codeE, symObjAddr: 0xE8EC, symBinAddr: 0x100012A28, symSize: 0x88 }
  - { offsetInCU: 0x6C502, offset: 0x7E0ED, size: 0x8, addend: 0x0, symName: __ZN5boost6system10error_codeC2EiRKNS0_14error_categoryE, symObjAddr: 0xE974, symBinAddr: 0x100012AB0, symSize: 0x78 }
  - { offsetInCU: 0x6C548, offset: 0x7E133, size: 0x8, addend: 0x0, symName: __ZN5boost6system12system_errorC2ERKNS0_10error_codeE, symObjAddr: 0xEAA4, symBinAddr: 0x100012BE0, symSize: 0xA0 }
  - { offsetInCU: 0x6C582, offset: 0x7E16D, size: 0x8, addend: 0x0, symName: __ZN5boost4asio3ssl7contextD2Ev, symObjAddr: 0xEB44, symBinAddr: 0x100012C80, symSize: 0x188 }
  - { offsetInCU: 0x6C604, offset: 0x7E1EF, size: 0x8, addend: 0x0, symName: __ZN5boost4asio2ip22basic_resolver_resultsINS1_3tcpEED2Ev, symObjAddr: 0xECCC, symBinAddr: 0x100012E08, symSize: 0x2C }
  - { offsetInCU: 0x6C630, offset: 0x7E21B, size: 0x8, addend: 0x0, symName: __ZN5boost4asio2ip23basic_resolver_iteratorINS1_3tcpEED2Ev, symObjAddr: 0xECF8, symBinAddr: 0x100012E34, symSize: 0x2C }
  - { offsetInCU: 0x6C65C, offset: 0x7E247, size: 0x8, addend: 0x0, symName: __ZNSt3__110shared_ptrINS_6vectorIN5boost4asio2ip20basic_resolver_entryINS4_3tcpEEENS_9allocatorIS7_EEEEED1B8ue170006Ev, symObjAddr: 0xED24, symBinAddr: 0x100012E60, symSize: 0x2C }
  - { offsetInCU: 0x6C686, offset: 0x7E271, size: 0x8, addend: 0x0, symName: __ZNSt3__110shared_ptrINS_6vectorIN5boost4asio2ip20basic_resolver_entryINS4_3tcpEEENS_9allocatorIS7_EEEEED2B8ue170006Ev, symObjAddr: 0xED50, symBinAddr: 0x100012E8C, symSize: 0x54 }
  - { offsetInCU: 0x6C6B0, offset: 0x7E29B, size: 0x8, addend: 0x0, symName: __ZNSt3__119__shared_weak_count16__release_sharedB8ue170006Ev, symObjAddr: 0xEDA4, symBinAddr: 0x100012EE0, symSize: 0x3C }
  - { offsetInCU: 0x6C6D6, offset: 0x7E2C1, size: 0x8, addend: 0x0, symName: __ZNSt3__114__shared_count16__release_sharedB8ue170006Ev, symObjAddr: 0xEDE0, symBinAddr: 0x100012F1C, symSize: 0x7C }
  - { offsetInCU: 0x6C6FC, offset: 0x7E2E7, size: 0x8, addend: 0x0, symName: __ZN5boost4asio10io_contextD2Ev, symObjAddr: 0xEE8C, symBinAddr: 0x100012FC8, symSize: 0x3C }
  - { offsetInCU: 0x6C729, offset: 0x7E314, size: 0x8, addend: 0x0, symName: __ZN5boost5beast9websocket12close_reasonC2Et, symObjAddr: 0xEEC8, symBinAddr: 0x100013004, symSize: 0x3C }
  - { offsetInCU: 0x6C761, offset: 0x7E34C, size: 0x8, addend: 0x0, symName: __ZN5boost14static_strings19basic_static_stringILm123EcNSt3__111char_traitsIcEEEC1Ev, symObjAddr: 0xEF04, symBinAddr: 0x100013040, symSize: 0x2C }
  - { offsetInCU: 0x6C78B, offset: 0x7E376, size: 0x8, addend: 0x0, symName: __ZN5boost14static_strings19basic_static_stringILm123EcNSt3__111char_traitsIcEEEC2Ev, symObjAddr: 0xEF30, symBinAddr: 0x10001306C, symSize: 0x34 }
  - { offsetInCU: 0x6C7B5, offset: 0x7E3A0, size: 0x8, addend: 0x0, symName: __ZN5boost14static_strings6detail18static_string_baseILm123EcNSt3__111char_traitsIcEEEC2Ev, symObjAddr: 0xEF64, symBinAddr: 0x1000130A0, symSize: 0x5C }
  - { offsetInCU: 0x6C7DF, offset: 0x7E3CA, size: 0x8, addend: 0x0, symName: __ZN5boost14static_strings19basic_static_stringILm123EcNSt3__111char_traitsIcEEE4termEv, symObjAddr: 0xEFC0, symBinAddr: 0x1000130FC, symSize: 0x2C }
  - { offsetInCU: 0x6C805, offset: 0x7E3F0, size: 0x8, addend: 0x0, symName: __ZN5boost14static_strings6detail18static_string_baseILm123EcNSt3__111char_traitsIcEEE9term_implEv, symObjAddr: 0xEFEC, symBinAddr: 0x100013128, symSize: 0x38 }
  - { offsetInCU: 0x6C82B, offset: 0x7E416, size: 0x8, addend: 0x0, symName: __ZNSt3__111char_traitsIcE6assignB8ue170006ERcRKc, symObjAddr: 0xF024, symBinAddr: 0x100013160, symSize: 0x24 }
  - { offsetInCU: 0x6C85C, offset: 0x7E447, size: 0x8, addend: 0x0, symName: __ZN5boost4asio3ssl6detail12openssl_initILb1EEC2Ev, symObjAddr: 0xF650, symBinAddr: 0x100013184, symSize: 0x70 }
  - { offsetInCU: 0x6C8A7, offset: 0x7E492, size: 0x8, addend: 0x0, symName: __ZN5boost4asio3ssl6detail17openssl_init_baseC2Ev, symObjAddr: 0xF6C0, symBinAddr: 0x1000131F4, symSize: 0x2C }
  - { offsetInCU: 0x6C8D3, offset: 0x7E4BE, size: 0x8, addend: 0x0, symName: __ZN5boost4asio3ssl6detail17openssl_init_baseD2Ev, symObjAddr: 0xF7F4, symBinAddr: 0x100013328, symSize: 0x2C }
  - { offsetInCU: 0x6C8FF, offset: 0x7E4EA, size: 0x8, addend: 0x0, symName: __ZN5boost4asio3ssl6detail17openssl_init_base7do_initC1Ev, symObjAddr: 0xF820, symBinAddr: 0x100013354, symSize: 0x2C }
  - { offsetInCU: 0x6C92E, offset: 0x7E519, size: 0x8, addend: 0x0, symName: __ZNSt3__110shared_ptrIN5boost4asio3ssl6detail17openssl_init_base7do_initEEC1B8ue170006IS6_vEEPT_, symObjAddr: 0xF84C, symBinAddr: 0x100013380, symSize: 0x34 }
  - { offsetInCU: 0x6C973, offset: 0x7E55E, size: 0x8, addend: 0x0, symName: __ZNSt3__110shared_ptrIN5boost4asio3ssl6detail17openssl_init_base7do_initEED1B8ue170006Ev, symObjAddr: 0xF880, symBinAddr: 0x1000133B4, symSize: 0x2C }
  - { offsetInCU: 0x6C99D, offset: 0x7E588, size: 0x8, addend: 0x0, symName: __ZNSt3__110shared_ptrIN5boost4asio3ssl6detail17openssl_init_base7do_initEEC1B8ue170006ERKS7_, symObjAddr: 0xF8AC, symBinAddr: 0x1000133E0, symSize: 0x34 }
  - { offsetInCU: 0x6C9D7, offset: 0x7E5C2, size: 0x8, addend: 0x0, symName: __ZN5boost4asio3ssl6detail17openssl_init_base7do_initC2Ev, symObjAddr: 0xF8E0, symBinAddr: 0x100013414, symSize: 0x14 }
  - { offsetInCU: 0x6CA01, offset: 0x7E5EC, size: 0x8, addend: 0x0, symName: __ZNSt3__110shared_ptrIN5boost4asio3ssl6detail17openssl_init_base7do_initEEC2B8ue170006IS6_vEEPT_, symObjAddr: 0xF8F4, symBinAddr: 0x100013428, symSize: 0xEC }
  - { offsetInCU: 0x6CAEF, offset: 0x7E6DA, size: 0x8, addend: 0x0, symName: __ZNSt3__110unique_ptrIN5boost4asio3ssl6detail17openssl_init_base7do_initENS_14default_deleteIS6_EEEC1B8ue170006ILb1EvEEPS6_, symObjAddr: 0xF9E0, symBinAddr: 0x100013514, symSize: 0x34 }
  - { offsetInCU: 0x6CB3F, offset: 0x7E72A, size: 0x8, addend: 0x0, symName: __ZNSt3__19allocatorIN5boost4asio3ssl6detail17openssl_init_base7do_initEEC1B8ue170006Ev, symObjAddr: 0xFA14, symBinAddr: 0x100013548, symSize: 0x2C }
  - { offsetInCU: 0x6CC09, offset: 0x7E7F4, size: 0x8, addend: 0x0, symName: __ZNSt3__120__shared_ptr_pointerIPN5boost4asio3ssl6detail17openssl_init_base7do_initENS_10shared_ptrIS6_E27__shared_ptr_default_deleteIS6_S6_EENS_9allocatorIS6_EEEC1B8ue170006ES7_SB_SD_, symObjAddr: 0xFA40, symBinAddr: 0x100013574, symSize: 0x34 }
  - { offsetInCU: 0x6CC5D, offset: 0x7E848, size: 0x8, addend: 0x0, symName: __ZNSt3__110unique_ptrIN5boost4asio3ssl6detail17openssl_init_base7do_initENS_14default_deleteIS6_EEE7releaseB8ue170006Ev, symObjAddr: 0xFA74, symBinAddr: 0x1000135A8, symSize: 0x44 }
  - { offsetInCU: 0x6CC94, offset: 0x7E87F, size: 0x8, addend: 0x0, symName: __ZNSt3__110shared_ptrIN5boost4asio3ssl6detail17openssl_init_base7do_initEE18__enable_weak_thisB8ue170006Ez, symObjAddr: 0xFAB8, symBinAddr: 0x1000135EC, symSize: 0x10 }
  - { offsetInCU: 0x6CCBB, offset: 0x7E8A6, size: 0x8, addend: 0x0, symName: __ZNSt3__110unique_ptrIN5boost4asio3ssl6detail17openssl_init_base7do_initENS_14default_deleteIS6_EEED1B8ue170006Ev, symObjAddr: 0xFAC8, symBinAddr: 0x1000135FC, symSize: 0x2C }
  - { offsetInCU: 0x6CCE5, offset: 0x7E8D0, size: 0x8, addend: 0x0, symName: __ZNSt3__110unique_ptrIN5boost4asio3ssl6detail17openssl_init_base7do_initENS_14default_deleteIS6_EEEC2B8ue170006ILb1EvEEPS6_, symObjAddr: 0xFAF4, symBinAddr: 0x100013628, symSize: 0x44 }
  - { offsetInCU: 0x6CD2B, offset: 0x7E916, size: 0x8, addend: 0x0, symName: __ZNSt3__117__compressed_pairIPN5boost4asio3ssl6detail17openssl_init_base7do_initENS_14default_deleteIS6_EEEC1B8ue170006IRS7_NS_16__value_init_tagEEEOT_OT0_, symObjAddr: 0xFB38, symBinAddr: 0x10001366C, symSize: 0x3C }
  - { offsetInCU: 0x6CD83, offset: 0x7E96E, size: 0x8, addend: 0x0, symName: __ZNSt3__117__compressed_pairIPN5boost4asio3ssl6detail17openssl_init_base7do_initENS_14default_deleteIS6_EEEC2B8ue170006IRS7_NS_16__value_init_tagEEEOT_OT0_, symObjAddr: 0xFB74, symBinAddr: 0x1000136A8, symSize: 0x40 }
  - { offsetInCU: 0x6CDDB, offset: 0x7E9C6, size: 0x8, addend: 0x0, symName: __ZNSt3__122__compressed_pair_elemIPN5boost4asio3ssl6detail17openssl_init_base7do_initELi0ELb0EEC2B8ue170006IRS7_vEEOT_, symObjAddr: 0xFBB4, symBinAddr: 0x1000136E8, symSize: 0x24 }
  - { offsetInCU: 0x6CE1E, offset: 0x7EA09, size: 0x8, addend: 0x0, symName: __ZNSt3__122__compressed_pair_elemINS_14default_deleteIN5boost4asio3ssl6detail17openssl_init_base7do_initEEELi1ELb1EEC2B8ue170006ENS_16__value_init_tagE, symObjAddr: 0xFBD8, symBinAddr: 0x10001370C, symSize: 0x14 }
  - { offsetInCU: 0x6CE53, offset: 0x7EA3E, size: 0x8, addend: 0x0, symName: __ZNSt3__19allocatorIN5boost4asio3ssl6detail17openssl_init_base7do_initEEC2B8ue170006Ev, symObjAddr: 0xFBEC, symBinAddr: 0x100013720, symSize: 0x2C }
  - { offsetInCU: 0x6CE7D, offset: 0x7EA68, size: 0x8, addend: 0x0, symName: __ZNSt3__116__non_trivial_ifILb1ENS_9allocatorIN5boost4asio3ssl6detail17openssl_init_base7do_initEEEEC2B8ue170006Ev, symObjAddr: 0xFC18, symBinAddr: 0x10001374C, symSize: 0x14 }
  - { offsetInCU: 0x6CEA7, offset: 0x7EA92, size: 0x8, addend: 0x0, symName: __ZNSt3__120__shared_ptr_pointerIPN5boost4asio3ssl6detail17openssl_init_base7do_initENS_10shared_ptrIS6_E27__shared_ptr_default_deleteIS6_S6_EENS_9allocatorIS6_EEEC2B8ue170006ES7_SB_SD_, symObjAddr: 0xFC2C, symBinAddr: 0x100013760, symSize: 0xA8 }
  - { offsetInCU: 0x6CEFB, offset: 0x7EAE6, size: 0x8, addend: 0x0, symName: __ZNSt3__119__shared_weak_countC2B8ue170006El, symObjAddr: 0xFCD4, symBinAddr: 0x100013808, symSize: 0x54 }
  - { offsetInCU: 0x6CF39, offset: 0x7EB24, size: 0x8, addend: 0x0, symName: __ZNSt3__117__compressed_pairIPN5boost4asio3ssl6detail17openssl_init_base7do_initENS_10shared_ptrIS6_E27__shared_ptr_default_deleteIS6_S6_EEEC1B8ue170006IRS7_SB_EEOT_OT0_, symObjAddr: 0xFD28, symBinAddr: 0x10001385C, symSize: 0x3C }
  - { offsetInCU: 0x6CF9D, offset: 0x7EB88, size: 0x8, addend: 0x0, symName: __ZNSt3__117__compressed_pairINS0_IPN5boost4asio3ssl6detail17openssl_init_base7do_initENS_10shared_ptrIS6_E27__shared_ptr_default_deleteIS6_S6_EEEENS_9allocatorIS6_EEEC1B8ue170006ISC_SE_EEOT_OT0_, symObjAddr: 0xFD64, symBinAddr: 0x100013898, symSize: 0x3C }
  - { offsetInCU: 0x6CFF5, offset: 0x7EBE0, size: 0x8, addend: 0x0, symName: __ZNSt3__120__shared_ptr_pointerIPN5boost4asio3ssl6detail17openssl_init_base7do_initENS_10shared_ptrIS6_E27__shared_ptr_default_deleteIS6_S6_EENS_9allocatorIS6_EEED1Ev, symObjAddr: 0xFDA0, symBinAddr: 0x1000138D4, symSize: 0x2C }
  - { offsetInCU: 0x6D021, offset: 0x7EC0C, size: 0x8, addend: 0x0, symName: __ZNSt3__120__shared_ptr_pointerIPN5boost4asio3ssl6detail17openssl_init_base7do_initENS_10shared_ptrIS6_E27__shared_ptr_default_deleteIS6_S6_EENS_9allocatorIS6_EEED0Ev, symObjAddr: 0xFDCC, symBinAddr: 0x100013900, symSize: 0x30 }
  - { offsetInCU: 0x6D04D, offset: 0x7EC38, size: 0x8, addend: 0x0, symName: __ZNSt3__120__shared_ptr_pointerIPN5boost4asio3ssl6detail17openssl_init_base7do_initENS_10shared_ptrIS6_E27__shared_ptr_default_deleteIS6_S6_EENS_9allocatorIS6_EEE16__on_zero_sharedEv, symObjAddr: 0xFDFC, symBinAddr: 0x100013930, symSize: 0x64 }
  - { offsetInCU: 0x6D075, offset: 0x7EC60, size: 0x8, addend: 0x0, symName: __ZNKSt3__120__shared_ptr_pointerIPN5boost4asio3ssl6detail17openssl_init_base7do_initENS_10shared_ptrIS6_E27__shared_ptr_default_deleteIS6_S6_EENS_9allocatorIS6_EEE13__get_deleterERKSt9type_info, symObjAddr: 0xFE60, symBinAddr: 0x100013994, symSize: 0x68 }
  - { offsetInCU: 0x6D0AA, offset: 0x7EC95, size: 0x8, addend: 0x0, symName: __ZNSt3__120__shared_ptr_pointerIPN5boost4asio3ssl6detail17openssl_init_base7do_initENS_10shared_ptrIS6_E27__shared_ptr_default_deleteIS6_S6_EENS_9allocatorIS6_EEE21__on_zero_shared_weakEv, symObjAddr: 0xFEC8, symBinAddr: 0x1000139FC, symSize: 0x60 }
  - { offsetInCU: 0x6D0EE, offset: 0x7ECD9, size: 0x8, addend: 0x0, symName: __ZNSt3__114__shared_countC2B8ue170006El, symObjAddr: 0xFF28, symBinAddr: 0x100013A5C, symSize: 0x30 }
  - { offsetInCU: 0x6D126, offset: 0x7ED11, size: 0x8, addend: 0x0, symName: __ZNSt3__117__compressed_pairIPN5boost4asio3ssl6detail17openssl_init_base7do_initENS_10shared_ptrIS6_E27__shared_ptr_default_deleteIS6_S6_EEEC2B8ue170006IRS7_SB_EEOT_OT0_, symObjAddr: 0xFF58, symBinAddr: 0x100013A8C, symSize: 0x44 }
  - { offsetInCU: 0x6D17E, offset: 0x7ED69, size: 0x8, addend: 0x0, symName: __ZNSt3__122__compressed_pair_elemINS_10shared_ptrIN5boost4asio3ssl6detail17openssl_init_base7do_initEE27__shared_ptr_default_deleteIS7_S7_EELi1ELb1EEC2B8ue170006ISA_vEEOT_, symObjAddr: 0xFF9C, symBinAddr: 0x100013AD0, symSize: 0x18 }
  - { offsetInCU: 0x6D1C1, offset: 0x7EDAC, size: 0x8, addend: 0x0, symName: __ZNSt3__117__compressed_pairINS0_IPN5boost4asio3ssl6detail17openssl_init_base7do_initENS_10shared_ptrIS6_E27__shared_ptr_default_deleteIS6_S6_EEEENS_9allocatorIS6_EEEC2B8ue170006ISC_SE_EEOT_OT0_, symObjAddr: 0xFFB4, symBinAddr: 0x100013AE8, symSize: 0x44 }
  - { offsetInCU: 0x6D219, offset: 0x7EE04, size: 0x8, addend: 0x0, symName: __ZNSt3__122__compressed_pair_elemINS_17__compressed_pairIPN5boost4asio3ssl6detail17openssl_init_base7do_initENS_10shared_ptrIS7_E27__shared_ptr_default_deleteIS7_S7_EEEELi0ELb0EEC2B8ue170006ISD_vEEOT_, symObjAddr: 0xFFF8, symBinAddr: 0x100013B2C, symSize: 0x24 }
  - { offsetInCU: 0x6D25C, offset: 0x7EE47, size: 0x8, addend: 0x0, symName: __ZNSt3__122__compressed_pair_elemINS_9allocatorIN5boost4asio3ssl6detail17openssl_init_base7do_initEEELi1ELb1EEC2B8ue170006IS8_vEEOT_, symObjAddr: 0x1001C, symBinAddr: 0x100013B50, symSize: 0x18 }
  - { offsetInCU: 0x6D29F, offset: 0x7EE8A, size: 0x8, addend: 0x0, symName: __ZNSt3__120__shared_ptr_pointerIPN5boost4asio3ssl6detail17openssl_init_base7do_initENS_10shared_ptrIS6_E27__shared_ptr_default_deleteIS6_S6_EENS_9allocatorIS6_EEED2Ev, symObjAddr: 0x10034, symBinAddr: 0x100013B68, symSize: 0x2C }
  - { offsetInCU: 0x6D2CB, offset: 0x7EEB6, size: 0x8, addend: 0x0, symName: __ZNSt3__117__compressed_pairINS0_IPN5boost4asio3ssl6detail17openssl_init_base7do_initENS_10shared_ptrIS6_E27__shared_ptr_default_deleteIS6_S6_EEEENS_9allocatorIS6_EEE5firstB8ue170006Ev, symObjAddr: 0x10060, symBinAddr: 0x100013B94, symSize: 0x24 }
  - { offsetInCU: 0x6D2F1, offset: 0x7EEDC, size: 0x8, addend: 0x0, symName: __ZNSt3__117__compressed_pairIPN5boost4asio3ssl6detail17openssl_init_base7do_initENS_10shared_ptrIS6_E27__shared_ptr_default_deleteIS6_S6_EEE6secondB8ue170006Ev, symObjAddr: 0x10084, symBinAddr: 0x100013BB8, symSize: 0x24 }
  - { offsetInCU: 0x6D317, offset: 0x7EF02, size: 0x8, addend: 0x0, symName: __ZNKSt3__114default_deleteIN5boost4asio3ssl6detail17openssl_init_base7do_initEEclB8ue170006EPS6_, symObjAddr: 0x100A8, symBinAddr: 0x100013BDC, symSize: 0x4C }
  - { offsetInCU: 0x6D34D, offset: 0x7EF38, size: 0x8, addend: 0x0, symName: __ZNSt3__117__compressed_pairIPN5boost4asio3ssl6detail17openssl_init_base7do_initENS_10shared_ptrIS6_E27__shared_ptr_default_deleteIS6_S6_EEE5firstB8ue170006Ev, symObjAddr: 0x100F4, symBinAddr: 0x100013C28, symSize: 0x24 }
  - { offsetInCU: 0x6D373, offset: 0x7EF5E, size: 0x8, addend: 0x0, symName: __ZNSt3__122__compressed_pair_elemINS_17__compressed_pairIPN5boost4asio3ssl6detail17openssl_init_base7do_initENS_10shared_ptrIS7_E27__shared_ptr_default_deleteIS7_S7_EEEELi0ELb0EE5__getB8ue170006Ev, symObjAddr: 0x10118, symBinAddr: 0x100013C4C, symSize: 0x14 }
  - { offsetInCU: 0x6D399, offset: 0x7EF84, size: 0x8, addend: 0x0, symName: __ZNSt3__122__compressed_pair_elemINS_10shared_ptrIN5boost4asio3ssl6detail17openssl_init_base7do_initEE27__shared_ptr_default_deleteIS7_S7_EELi1ELb1EE5__getB8ue170006Ev, symObjAddr: 0x1012C, symBinAddr: 0x100013C60, symSize: 0x14 }
  - { offsetInCU: 0x6D3BF, offset: 0x7EFAA, size: 0x8, addend: 0x0, symName: __ZN5boost4asio3ssl6detail17openssl_init_base7do_initD1Ev, symObjAddr: 0x10140, symBinAddr: 0x100013C74, symSize: 0x2C }
  - { offsetInCU: 0x6D3E9, offset: 0x7EFD4, size: 0x8, addend: 0x0, symName: __ZN5boost4asio3ssl6detail17openssl_init_base7do_initD2Ev, symObjAddr: 0x1016C, symBinAddr: 0x100013CA0, symSize: 0x14 }
  - { offsetInCU: 0x6D413, offset: 0x7EFFE, size: 0x8, addend: 0x0, symName: __ZNSt3__122__compressed_pair_elemIPN5boost4asio3ssl6detail17openssl_init_base7do_initELi0ELb0EE5__getB8ue170006Ev, symObjAddr: 0x10180, symBinAddr: 0x100013CB4, symSize: 0x14 }
  - { offsetInCU: 0x6D439, offset: 0x7F024, size: 0x8, addend: 0x0, symName: __ZNKSt3__117__compressed_pairINS0_IPN5boost4asio3ssl6detail17openssl_init_base7do_initENS_10shared_ptrIS6_E27__shared_ptr_default_deleteIS6_S6_EEEENS_9allocatorIS6_EEE5firstB8ue170006Ev, symObjAddr: 0x10194, symBinAddr: 0x100013CC8, symSize: 0x24 }
  - { offsetInCU: 0x6D45F, offset: 0x7F04A, size: 0x8, addend: 0x0, symName: __ZNKSt3__117__compressed_pairIPN5boost4asio3ssl6detail17openssl_init_base7do_initENS_10shared_ptrIS6_E27__shared_ptr_default_deleteIS6_S6_EEE6secondB8ue170006Ev, symObjAddr: 0x101B8, symBinAddr: 0x100013CEC, symSize: 0x24 }
  - { offsetInCU: 0x6D485, offset: 0x7F070, size: 0x8, addend: 0x0, symName: __ZNKSt3__122__compressed_pair_elemINS_17__compressed_pairIPN5boost4asio3ssl6detail17openssl_init_base7do_initENS_10shared_ptrIS7_E27__shared_ptr_default_deleteIS7_S7_EEEELi0ELb0EE5__getB8ue170006Ev, symObjAddr: 0x101DC, symBinAddr: 0x100013D10, symSize: 0x14 }
  - { offsetInCU: 0x6D4AB, offset: 0x7F096, size: 0x8, addend: 0x0, symName: __ZNKSt3__122__compressed_pair_elemINS_10shared_ptrIN5boost4asio3ssl6detail17openssl_init_base7do_initEE27__shared_ptr_default_deleteIS7_S7_EELi1ELb1EE5__getB8ue170006Ev, symObjAddr: 0x101F0, symBinAddr: 0x100013D24, symSize: 0x14 }
  - { offsetInCU: 0x6D4D1, offset: 0x7F0BC, size: 0x8, addend: 0x0, symName: __ZNSt3__117__compressed_pairINS0_IPN5boost4asio3ssl6detail17openssl_init_base7do_initENS_10shared_ptrIS6_E27__shared_ptr_default_deleteIS6_S6_EEEENS_9allocatorIS6_EEE6secondB8ue170006Ev, symObjAddr: 0x10204, symBinAddr: 0x100013D38, symSize: 0x24 }
  - { offsetInCU: 0x6D506, offset: 0x7F0F1, size: 0x8, addend: 0x0, symName: __ZNSt3__19allocatorINS_20__shared_ptr_pointerIPN5boost4asio3ssl6detail17openssl_init_base7do_initENS_10shared_ptrIS7_E27__shared_ptr_default_deleteIS7_S7_EENS0_IS7_EEEEEC1B8ue170006IS7_EERKNS0_IT_EE, symObjAddr: 0x10228, symBinAddr: 0x100013D5C, symSize: 0x34 }
  - { offsetInCU: 0x6D544, offset: 0x7F12F, size: 0x8, addend: 0x0, symName: __ZNSt3__19allocatorINS_20__shared_ptr_pointerIPN5boost4asio3ssl6detail17openssl_init_base7do_initENS_10shared_ptrIS7_E27__shared_ptr_default_deleteIS7_S7_EENS0_IS7_EEEEE10deallocateB8ue170006EPSE_m, symObjAddr: 0x1025C, symBinAddr: 0x100013D90, symSize: 0x40 }
  - { offsetInCU: 0x6D58B, offset: 0x7F176, size: 0x8, addend: 0x0, symName: __ZNSt3__114pointer_traitsIPNS_20__shared_ptr_pointerIPN5boost4asio3ssl6detail17openssl_init_base7do_initENS_10shared_ptrIS7_E27__shared_ptr_default_deleteIS7_S7_EENS_9allocatorIS7_EEEEE10pointer_toB8ue170006ERSF_, symObjAddr: 0x1029C, symBinAddr: 0x100013DD0, symSize: 0x14 }
  - { offsetInCU: 0x6D5AE, offset: 0x7F199, size: 0x8, addend: 0x0, symName: __ZNSt3__122__compressed_pair_elemINS_9allocatorIN5boost4asio3ssl6detail17openssl_init_base7do_initEEELi1ELb1EE5__getB8ue170006Ev, symObjAddr: 0x102B0, symBinAddr: 0x100013DE4, symSize: 0x14 }
  - { offsetInCU: 0x6D5D4, offset: 0x7F1BF, size: 0x8, addend: 0x0, symName: __ZNSt3__19allocatorINS_20__shared_ptr_pointerIPN5boost4asio3ssl6detail17openssl_init_base7do_initENS_10shared_ptrIS7_E27__shared_ptr_default_deleteIS7_S7_EENS0_IS7_EEEEEC2B8ue170006IS7_EERKNS0_IT_EE, symObjAddr: 0x102C4, symBinAddr: 0x100013DF8, symSize: 0x30 }
  - { offsetInCU: 0x6D612, offset: 0x7F1FD, size: 0x8, addend: 0x0, symName: __ZNSt3__116__non_trivial_ifILb1ENS_9allocatorINS_20__shared_ptr_pointerIPN5boost4asio3ssl6detail17openssl_init_base7do_initENS_10shared_ptrIS8_E27__shared_ptr_default_deleteIS8_S8_EENS1_IS8_EEEEEEEC2B8ue170006Ev, symObjAddr: 0x102F4, symBinAddr: 0x100013E28, symSize: 0x14 }
  - { offsetInCU: 0x6D63C, offset: 0x7F227, size: 0x8, addend: 0x0, symName: __ZNSt3__117__compressed_pairIPN5boost4asio3ssl6detail17openssl_init_base7do_initENS_14default_deleteIS6_EEE5firstB8ue170006Ev, symObjAddr: 0x10430, symBinAddr: 0x100013F64, symSize: 0x24 }
  - { offsetInCU: 0x6D662, offset: 0x7F24D, size: 0x8, addend: 0x0, symName: __ZNSt3__110unique_ptrIN5boost4asio3ssl6detail17openssl_init_base7do_initENS_14default_deleteIS6_EEED2B8ue170006Ev, symObjAddr: 0x10454, symBinAddr: 0x100013F88, symSize: 0x30 }
  - { offsetInCU: 0x6D68C, offset: 0x7F277, size: 0x8, addend: 0x0, symName: __ZNSt3__110unique_ptrIN5boost4asio3ssl6detail17openssl_init_base7do_initENS_14default_deleteIS6_EEE5resetB8ue170006EPS6_, symObjAddr: 0x10484, symBinAddr: 0x100013FB8, symSize: 0x78 }
  - { offsetInCU: 0x6D6D4, offset: 0x7F2BF, size: 0x8, addend: 0x0, symName: __ZNSt3__117__compressed_pairIPN5boost4asio3ssl6detail17openssl_init_base7do_initENS_14default_deleteIS6_EEE6secondB8ue170006Ev, symObjAddr: 0x104FC, symBinAddr: 0x100014030, symSize: 0x24 }
  - { offsetInCU: 0x6D6FA, offset: 0x7F2E5, size: 0x8, addend: 0x0, symName: __ZNSt3__122__compressed_pair_elemINS_14default_deleteIN5boost4asio3ssl6detail17openssl_init_base7do_initEEELi1ELb1EE5__getB8ue170006Ev, symObjAddr: 0x10520, symBinAddr: 0x100014054, symSize: 0x14 }
  - { offsetInCU: 0x6D720, offset: 0x7F30B, size: 0x8, addend: 0x0, symName: __ZNSt3__110shared_ptrIN5boost4asio3ssl6detail17openssl_init_base7do_initEED2B8ue170006Ev, symObjAddr: 0x10534, symBinAddr: 0x100014068, symSize: 0x54 }
  - { offsetInCU: 0x6D74A, offset: 0x7F335, size: 0x8, addend: 0x0, symName: __ZNSt3__110shared_ptrIN5boost4asio3ssl6detail17openssl_init_base7do_initEEC2B8ue170006ERKS7_, symObjAddr: 0x10588, symBinAddr: 0x1000140BC, symSize: 0x70 }
  - { offsetInCU: 0x6D784, offset: 0x7F36F, size: 0x8, addend: 0x0, symName: __ZNSt3__119__shared_weak_count12__add_sharedB8ue170006Ev, symObjAddr: 0x105F8, symBinAddr: 0x10001412C, symSize: 0x24 }
  - { offsetInCU: 0x6D7AA, offset: 0x7F395, size: 0x8, addend: 0x0, symName: __ZNSt3__114__shared_count12__add_sharedB8ue170006Ev, symObjAddr: 0x1061C, symBinAddr: 0x100014150, symSize: 0x28 }
  - { offsetInCU: 0x6D7D0, offset: 0x7F3BB, size: 0x8, addend: 0x0, symName: __ZN5boost4asio3ssl6detail12openssl_initILb1EED2Ev, symObjAddr: 0x10674, symBinAddr: 0x1000141A8, symSize: 0x34 }
  - { offsetInCU: 0x6D7FA, offset: 0x7F3E5, size: 0x8, addend: 0x0, symName: __ZNSt3__110unique_ptrIN5boost5beast9websocket6streamINS1_4asio3ssl6streamINS5_19basic_stream_socketINS5_2ip3tcpENS5_15any_io_executorEEEEELb1EEENS_14default_deleteISE_EEED2B8ue170006Ev, symObjAddr: 0x106A8, symBinAddr: 0x1000141DC, symSize: 0x30 }
  - { offsetInCU: 0x6D842, offset: 0x7F42D, size: 0x8, addend: 0x0, symName: __ZNKSt3__113basic_ostreamIcNS_11char_traitsIcEEE6sentrycvbB8ue170006Ev, symObjAddr: 0x108C4, symBinAddr: 0x1000143F8, symSize: 0x1C }
  - { offsetInCU: 0x6D868, offset: 0x7F453, size: 0x8, addend: 0x0, symName: __ZNSt3__119ostreambuf_iteratorIcNS_11char_traitsIcEEEC1B8ue170006ERNS_13basic_ostreamIcS2_EE, symObjAddr: 0x10B20, symBinAddr: 0x100014654, symSize: 0x34 }
  - { offsetInCU: 0x6D8A2, offset: 0x7F48D, size: 0x8, addend: 0x0, symName: __ZNKSt3__18ios_base5flagsB8ue170006Ev, symObjAddr: 0x10B54, symBinAddr: 0x100014688, symSize: 0x18 }
  - { offsetInCU: 0x6D8CA, offset: 0x7F4B5, size: 0x8, addend: 0x0, symName: __ZNKSt3__19basic_iosIcNS_11char_traitsIcEEE4fillB8ue170006Ev, symObjAddr: 0x10B6C, symBinAddr: 0x1000146A0, symSize: 0x64 }
  - { offsetInCU: 0x6D8F2, offset: 0x7F4DD, size: 0x8, addend: 0x0, symName: __ZNKSt3__119ostreambuf_iteratorIcNS_11char_traitsIcEEE6failedB8ue170006Ev, symObjAddr: 0x10BD0, symBinAddr: 0x100014704, symSize: 0x24 }
  - { offsetInCU: 0x6D918, offset: 0x7F503, size: 0x8, addend: 0x0, symName: __ZNSt3__19basic_iosIcNS_11char_traitsIcEEE8setstateB8ue170006Ej, symObjAddr: 0x10BF4, symBinAddr: 0x100014728, symSize: 0x2C }
  - { offsetInCU: 0x6D94F, offset: 0x7F53A, size: 0x8, addend: 0x0, symName: __ZNKSt3__18ios_base5widthB8ue170006Ev, symObjAddr: 0x10C20, symBinAddr: 0x100014754, symSize: 0x18 }
  - { offsetInCU: 0x6D977, offset: 0x7F562, size: 0x8, addend: 0x0, symName: __ZNSt3__115basic_streambufIcNS_11char_traitsIcEEE5sputnB8ue170006EPKcl, symObjAddr: 0x10C38, symBinAddr: 0x10001476C, symSize: 0x3C }
  - { offsetInCU: 0x6D9BD, offset: 0x7F5A8, size: 0x8, addend: 0x0, symName: __ZNSt3__112basic_stringIcNS_11char_traitsIcEENS_9allocatorIcEEEC1B8ue170006Emc, symObjAddr: 0x10C74, symBinAddr: 0x1000147A8, symSize: 0x3C }
  - { offsetInCU: 0x6DA07, offset: 0x7F5F2, size: 0x8, addend: 0x0, symName: __ZNSt3__112basic_stringIcNS_11char_traitsIcEENS_9allocatorIcEEE4dataB8ue170006Ev, symObjAddr: 0x10CB0, symBinAddr: 0x1000147E4, symSize: 0x28 }
  - { offsetInCU: 0x6DA2D, offset: 0x7F618, size: 0x8, addend: 0x0, symName: __ZNSt3__18ios_base5widthB8ue170006El, symObjAddr: 0x10CD8, symBinAddr: 0x10001480C, symSize: 0x2C }
  - { offsetInCU: 0x6DA77, offset: 0x7F662, size: 0x8, addend: 0x0, symName: __ZNSt3__112basic_stringIcNS_11char_traitsIcEENS_9allocatorIcEEEC2B8ue170006Emc, symObjAddr: 0x10D04, symBinAddr: 0x100014838, symSize: 0x4C }
  - { offsetInCU: 0x6DAC1, offset: 0x7F6AC, size: 0x8, addend: 0x0, symName: __ZNSt3__112basic_stringIcNS_11char_traitsIcEENS_9allocatorIcEEE13__get_pointerB8ue170006Ev, symObjAddr: 0x10D64, symBinAddr: 0x100014898, symSize: 0x54 }
  - { offsetInCU: 0x6DAE7, offset: 0x7F6D2, size: 0x8, addend: 0x0, symName: __ZNSt3__112basic_stringIcNS_11char_traitsIcEENS_9allocatorIcEEE18__get_long_pointerB8ue170006Ev, symObjAddr: 0x10DB8, symBinAddr: 0x1000148EC, symSize: 0x28 }
  - { offsetInCU: 0x6DB0D, offset: 0x7F6F8, size: 0x8, addend: 0x0, symName: __ZNSt3__112basic_stringIcNS_11char_traitsIcEENS_9allocatorIcEEE19__get_short_pointerB8ue170006Ev, symObjAddr: 0x10DE0, symBinAddr: 0x100014914, symSize: 0x28 }
  - { offsetInCU: 0x6DB33, offset: 0x7F71E, size: 0x8, addend: 0x0, symName: __ZNSt3__114pointer_traitsIPcE10pointer_toB8ue170006ERc, symObjAddr: 0x10E08, symBinAddr: 0x10001493C, symSize: 0x14 }
  - { offsetInCU: 0x6DB56, offset: 0x7F741, size: 0x8, addend: 0x0, symName: __ZNSt3__119ostreambuf_iteratorIcNS_11char_traitsIcEEEC2B8ue170006ERNS_13basic_ostreamIcS2_EE, symObjAddr: 0x10E1C, symBinAddr: 0x100014950, symSize: 0x54 }
  - { offsetInCU: 0x6DB90, offset: 0x7F77B, size: 0x8, addend: 0x0, symName: __ZNKSt3__19basic_iosIcNS_11char_traitsIcEEE5rdbufB8ue170006Ev, symObjAddr: 0x10E70, symBinAddr: 0x1000149A4, symSize: 0x24 }
  - { offsetInCU: 0x6DBB8, offset: 0x7F7A3, size: 0x8, addend: 0x0, symName: __ZNKSt3__18ios_base5rdbufB8ue170006Ev, symObjAddr: 0x10E94, symBinAddr: 0x1000149C8, symSize: 0x18 }
  - { offsetInCU: 0x6DBDE, offset: 0x7F7C9, size: 0x8, addend: 0x0, symName: __ZNSt3__111char_traitsIcE11eq_int_typeB8ue170006Eii, symObjAddr: 0x10EAC, symBinAddr: 0x1000149E0, symSize: 0x28 }
  - { offsetInCU: 0x6DC13, offset: 0x7F7FE, size: 0x8, addend: 0x0, symName: __ZNSt3__111char_traitsIcE3eofB8ue170006Ev, symObjAddr: 0x10ED4, symBinAddr: 0x100014A08, symSize: 0x8 }
  - { offsetInCU: 0x6DC27, offset: 0x7F812, size: 0x8, addend: 0x0, symName: __ZNKSt3__19basic_iosIcNS_11char_traitsIcEEE5widenB8ue170006Ec, symObjAddr: 0x10EDC, symBinAddr: 0x100014A10, symSize: 0x84 }
  - { offsetInCU: 0x6DC92, offset: 0x7F87D, size: 0x8, addend: 0x0, symName: __ZNKSt3__15ctypeIcE5widenB8ue170006Ec, symObjAddr: 0x10F8C, symBinAddr: 0x100014AC0, symSize: 0x38 }
  - { offsetInCU: 0x6DCC9, offset: 0x7F8B4, size: 0x8, addend: 0x0, symName: __ZNSt3__18ios_base8setstateB8ue170006Ej, symObjAddr: 0x10FC4, symBinAddr: 0x100014AF8, symSize: 0x34 }
  - { offsetInCU: 0x6DD02, offset: 0x7F8ED, size: 0x8, addend: 0x0, symName: __ZN5boost4asio2ip14basic_resolverINS1_3tcpENS0_15any_io_executorEEC2INS0_10io_contextEEERT_NS0_10constraintIXsr14is_convertibleIS9_RNS0_17execution_contextEEE5valueEiE4typeE, symObjAddr: 0x10FF8, symBinAddr: 0x100014B2C, symSize: 0x68 }
  - { offsetInCU: 0x6DD4E, offset: 0x7F939, size: 0x8, addend: 0x0, symName: __ZN5boost4asio6detail14io_object_implINS1_16resolver_serviceINS0_2ip3tcpEEENS0_15any_io_executorEEC1INS0_10io_contextEEEiiRT_, symObjAddr: 0x11060, symBinAddr: 0x100014B94, symSize: 0x44 }
  - { offsetInCU: 0x6DDA5, offset: 0x7F990, size: 0x8, addend: 0x0, symName: __ZN5boost4asio2ip13resolver_baseD2Ev, symObjAddr: 0x110A4, symBinAddr: 0x100014BD8, symSize: 0x14 }
  - { offsetInCU: 0x6DDCF, offset: 0x7F9BA, size: 0x8, addend: 0x0, symName: __ZN5boost4asio6detail14io_object_implINS1_16resolver_serviceINS0_2ip3tcpEEENS0_15any_io_executorEEC2INS0_10io_contextEEEiiRT_, symObjAddr: 0x110B8, symBinAddr: 0x100014BEC, symSize: 0xE8 }
  - { offsetInCU: 0x6DE26, offset: 0x7FA11, size: 0x8, addend: 0x0, symName: __ZNSt3__110shared_ptrIvEC1B8ue170006Ev, symObjAddr: 0x111CC, symBinAddr: 0x100014D00, symSize: 0x2C }
  - { offsetInCU: 0x6DE50, offset: 0x7FA3B, size: 0x8, addend: 0x0, symName: __ZN5boost4asio10io_context12get_executorEv, symObjAddr: 0x111F8, symBinAddr: 0x100014D2C, symSize: 0x38 }
  - { offsetInCU: 0x6DE79, offset: 0x7FA64, size: 0x8, addend: 0x0, symName: __ZN5boost4asio15any_io_executorC1INS0_10io_context19basic_executor_typeINSt3__19allocatorIvEELm0EEEEET_NS0_10constraintIXsr13conditional_tIXaantsr7is_sameIS9_S1_EE5valuentsr10is_base_ofINS0_9execution6detail17any_executor_baseES9_EE5valueENSC_24is_valid_target_executorIS9_FvNSB_12context_as_tIRNS0_17execution_contextEEENSC_8blocking7never_tILi0EEENSB_11prefer_onlyINSJ_10possibly_tILi0EEEEENSM_INSC_16outstanding_work9tracked_tILi0EEEEENSM_INSQ_11untracked_tILi0EEEEENSM_INSC_12relationship6fork_tILi0EEEEENSM_INSX_14continuation_tILi0EEEEEEEENS5_17integral_constantIbLb0EEEEE5valueEiE4typeE, symObjAddr: 0x11230, symBinAddr: 0x100014D64, symSize: 0x3C }
  - { offsetInCU: 0x6DEC6, offset: 0x7FAB1, size: 0x8, addend: 0x0, symName: __ZN5boost4asio10io_context19basic_executor_typeINSt3__19allocatorIvEELm0EED1Ev, symObjAddr: 0x1126C, symBinAddr: 0x100014DA0, symSize: 0x2C }
  - { offsetInCU: 0x6DEF0, offset: 0x7FADB, size: 0x8, addend: 0x0, symName: __ZN5boost4asio6detail21resolver_service_base9constructERNSt3__110shared_ptrIvEE, symObjAddr: 0x11298, symBinAddr: 0x100014DCC, symSize: 0x2C }
  - { offsetInCU: 0x6DF29, offset: 0x7FB14, size: 0x8, addend: 0x0, symName: __ZN5boost4asio15any_io_executorD1Ev, symObjAddr: 0x112C4, symBinAddr: 0x100014DF8, symSize: 0x2C }
  - { offsetInCU: 0x6DF56, offset: 0x7FB41, size: 0x8, addend: 0x0, symName: __ZNSt3__110shared_ptrIvED1B8ue170006Ev, symObjAddr: 0x112F0, symBinAddr: 0x100014E24, symSize: 0x2C }
  - { offsetInCU: 0x6DF85, offset: 0x7FB70, size: 0x8, addend: 0x0, symName: __ZN5boost4asio6detail16service_registry11use_serviceINS1_16resolver_serviceINS0_2ip3tcpEEEEERT_RNS0_10io_contextE, symObjAddr: 0x1131C, symBinAddr: 0x100014E50, symSize: 0x64 }
  - { offsetInCU: 0x6DFE4, offset: 0x7FBCF, size: 0x8, addend: 0x0, symName: __ZN5boost4asio6detail16service_registry8init_keyINS1_16resolver_serviceINS0_2ip3tcpEEEEEvRNS0_17execution_context7service3keyEz, symObjAddr: 0x11380, symBinAddr: 0x100014EB4, symSize: 0x2C }
  - { offsetInCU: 0x6E014, offset: 0x7FBFF, size: 0x8, addend: 0x0, symName: __ZN5boost4asio6detail16service_registry6createINS1_16resolver_serviceINS0_2ip3tcpEEENS0_10io_contextEEEPNS0_17execution_context7serviceEPv, symObjAddr: 0x113AC, symBinAddr: 0x100014EE0, symSize: 0x5C }
  - { offsetInCU: 0x6E056, offset: 0x7FC41, size: 0x8, addend: 0x0, symName: __ZN5boost4asio6detail16service_registry16init_key_from_idINS1_16resolver_serviceINS0_2ip3tcpEEEEEvRNS0_17execution_context7service3keyERKNS1_10service_idIT_EE, symObjAddr: 0x11408, symBinAddr: 0x100014F3C, symSize: 0x2C }
  - { offsetInCU: 0x6E090, offset: 0x7FC7B, size: 0x8, addend: 0x0, symName: __ZN5boost4asio6detail16resolver_serviceINS0_2ip3tcpEEC1ERNS0_17execution_contextE, symObjAddr: 0x11434, symBinAddr: 0x100014F68, symSize: 0x34 }
  - { offsetInCU: 0x6E0C8, offset: 0x7FCB3, size: 0x8, addend: 0x0, symName: __ZN5boost4asio6detail16resolver_serviceINS0_2ip3tcpEEC2ERNS0_17execution_contextE, symObjAddr: 0x11468, symBinAddr: 0x100014F9C, symSize: 0x84 }
  - { offsetInCU: 0x6E100, offset: 0x7FCEB, size: 0x8, addend: 0x0, symName: __ZN5boost4asio6detail30execution_context_service_baseINS1_16resolver_serviceINS0_2ip3tcpEEEEC2ERNS0_17execution_contextE, symObjAddr: 0x114EC, symBinAddr: 0x100015020, symSize: 0x4C }
  - { offsetInCU: 0x6E13A, offset: 0x7FD25, size: 0x8, addend: 0x0, symName: __ZN5boost4asio6detail21resolver_service_baseC2ERNS0_17execution_contextE, symObjAddr: 0x11538, symBinAddr: 0x10001506C, symSize: 0x188 }
  - { offsetInCU: 0x6E177, offset: 0x7FD62, size: 0x8, addend: 0x0, symName: __ZN5boost4asio6detail30execution_context_service_baseINS1_16resolver_serviceINS0_2ip3tcpEEEED2Ev, symObjAddr: 0x116C0, symBinAddr: 0x1000151F4, symSize: 0x2C }
  - { offsetInCU: 0x6E1A4, offset: 0x7FD8F, size: 0x8, addend: 0x0, symName: __ZN5boost4asio6detail16resolver_serviceINS0_2ip3tcpEED1Ev, symObjAddr: 0x116EC, symBinAddr: 0x100015220, symSize: 0x2C }
  - { offsetInCU: 0x6E1D0, offset: 0x7FDBB, size: 0x8, addend: 0x0, symName: __ZN5boost4asio6detail16resolver_serviceINS0_2ip3tcpEED0Ev, symObjAddr: 0x11718, symBinAddr: 0x10001524C, symSize: 0x30 }
  - { offsetInCU: 0x6E1FC, offset: 0x7FDE7, size: 0x8, addend: 0x0, symName: __ZN5boost4asio6detail16resolver_serviceINS0_2ip3tcpEE8shutdownEv, symObjAddr: 0x11748, symBinAddr: 0x10001527C, symSize: 0x28 }
  - { offsetInCU: 0x6E222, offset: 0x7FE0D, size: 0x8, addend: 0x0, symName: __ZN5boost4asio6detail16resolver_serviceINS0_2ip3tcpEE11notify_forkENS0_17execution_context10fork_eventE, symObjAddr: 0x11770, symBinAddr: 0x1000152A4, symSize: 0x30 }
  - { offsetInCU: 0x6E256, offset: 0x7FE41, size: 0x8, addend: 0x0, symName: __ZN5boost4asio6detail30execution_context_service_baseINS1_16resolver_serviceINS0_2ip3tcpEEEED1Ev, symObjAddr: 0x117A0, symBinAddr: 0x1000152D4, symSize: 0x14 }
  - { offsetInCU: 0x6E283, offset: 0x7FE6E, size: 0x8, addend: 0x0, symName: __ZN5boost4asio6detail30execution_context_service_baseINS1_16resolver_serviceINS0_2ip3tcpEEEED0Ev, symObjAddr: 0x117B4, symBinAddr: 0x1000152E8, symSize: 0xC }
  - { offsetInCU: 0x6E2B0, offset: 0x7FE9B, size: 0x8, addend: 0x0, symName: __ZN5boost4asio6detail10scoped_ptrINS1_12posix_threadEEC1EPS3_, symObjAddr: 0x117C0, symBinAddr: 0x1000152F4, symSize: 0x34 }
  - { offsetInCU: 0x6E2E8, offset: 0x7FED3, size: 0x8, addend: 0x0, symName: __ZN5boost4asio6detail10scoped_ptrINS1_9schedulerEEptEv, symObjAddr: 0x117F4, symBinAddr: 0x100015328, symSize: 0x18 }
  - { offsetInCU: 0x6E30E, offset: 0x7FEF9, size: 0x8, addend: 0x0, symName: __ZN5boost4asio6detail9scheduler12work_startedEv, symObjAddr: 0x1180C, symBinAddr: 0x100015340, symSize: 0x28 }
  - { offsetInCU: 0x6E334, offset: 0x7FF1F, size: 0x8, addend: 0x0, symName: __ZN5boost4asio6detail10scoped_ptrINS1_12posix_threadEED1Ev, symObjAddr: 0x11834, symBinAddr: 0x100015368, symSize: 0x2C }
  - { offsetInCU: 0x6E35E, offset: 0x7FF49, size: 0x8, addend: 0x0, symName: __ZN5boost4asio6detail10scoped_ptrINS1_12posix_threadEEC2EPS3_, symObjAddr: 0x11860, symBinAddr: 0x100015394, symSize: 0x20 }
  - { offsetInCU: 0x6E396, offset: 0x7FF81, size: 0x8, addend: 0x0, symName: __ZN5boost4asio6detail10scoped_ptrINS1_12posix_threadEED2Ev, symObjAddr: 0x11880, symBinAddr: 0x1000153B4, symSize: 0x58 }
  - { offsetInCU: 0x6E3C0, offset: 0x7FFAB, size: 0x8, addend: 0x0, symName: __ZN5boost4asio6detail16resolver_serviceINS0_2ip3tcpEED2Ev, symObjAddr: 0x118D8, symBinAddr: 0x10001540C, symSize: 0x38 }
  - { offsetInCU: 0x6E3EC, offset: 0x7FFD7, size: 0x8, addend: 0x0, symName: __ZN5boost4asio6detail21resolver_service_baseD2Ev, symObjAddr: 0x11910, symBinAddr: 0x100015444, symSize: 0x58 }
  - { offsetInCU: 0x6E419, offset: 0x80004, size: 0x8, addend: 0x0, symName: __ZN5boost4asio6detail21resolver_service_base13base_shutdownEv, symObjAddr: 0x11968, symBinAddr: 0x10001549C, symSize: 0xB0 }
  - { offsetInCU: 0x6E442, offset: 0x8002D, size: 0x8, addend: 0x0, symName: __ZN5boost4asio6detail10scoped_ptrINS1_12posix_threadEE3getEv, symObjAddr: 0x11A18, symBinAddr: 0x10001554C, symSize: 0x18 }
  - { offsetInCU: 0x6E468, offset: 0x80053, size: 0x8, addend: 0x0, symName: __ZN5boost4asio6detail10scoped_ptrINS1_12posix_threadEEptEv, symObjAddr: 0x11A30, symBinAddr: 0x100015564, symSize: 0x18 }
  - { offsetInCU: 0x6E48E, offset: 0x80079, size: 0x8, addend: 0x0, symName: __ZN5boost4asio6detail10scoped_ptrINS1_12posix_threadEE5resetEPS3_, symObjAddr: 0x11A48, symBinAddr: 0x10001557C, symSize: 0x60 }
  - { offsetInCU: 0x6E4C2, offset: 0x800AD, size: 0x8, addend: 0x0, symName: __ZN5boost4asio6detail10scoped_ptrINS1_9schedulerEE5resetEPS3_, symObjAddr: 0x11AA8, symBinAddr: 0x1000155DC, symSize: 0x60 }
  - { offsetInCU: 0x6E4F6, offset: 0x800E1, size: 0x8, addend: 0x0, symName: __ZN5boost4asio6detail21resolver_service_base16base_notify_forkENS0_17execution_context10fork_eventE, symObjAddr: 0x11B08, symBinAddr: 0x10001563C, symSize: 0xB8 }
  - { offsetInCU: 0x6E52F, offset: 0x8011A, size: 0x8, addend: 0x0, symName: __ZN5boost4asio6detail9scheduler7restartEv, symObjAddr: 0x11BC0, symBinAddr: 0x1000156F4, symSize: 0x44 }
  - { offsetInCU: 0x6E568, offset: 0x80153, size: 0x8, addend: 0x0, symName: __ZNSt3__110shared_ptrIvEC2B8ue170006Ev, symObjAddr: 0x11C04, symBinAddr: 0x100015738, symSize: 0x1C }
  - { offsetInCU: 0x6E592, offset: 0x8017D, size: 0x8, addend: 0x0, symName: __ZN5boost4asio10io_context19basic_executor_typeINSt3__19allocatorIvEELm0EEC1ERS1_, symObjAddr: 0x11C20, symBinAddr: 0x100015754, symSize: 0x34 }
  - { offsetInCU: 0x6E5CC, offset: 0x801B7, size: 0x8, addend: 0x0, symName: __ZN5boost4asio10io_context19basic_executor_typeINSt3__19allocatorIvEELm0EEC2ERS1_, symObjAddr: 0x11C54, symBinAddr: 0x100015788, symSize: 0x20 }
  - { offsetInCU: 0x6E606, offset: 0x801F1, size: 0x8, addend: 0x0, symName: __ZN5boost4asio15any_io_executorC2INS0_10io_context19basic_executor_typeINSt3__19allocatorIvEELm0EEEEET_NS0_10constraintIXsr13conditional_tIXaantsr7is_sameIS9_S1_EE5valuentsr10is_base_ofINS0_9execution6detail17any_executor_baseES9_EE5valueENSC_24is_valid_target_executorIS9_FvNSB_12context_as_tIRNS0_17execution_contextEEENSC_8blocking7never_tILi0EEENSB_11prefer_onlyINSJ_10possibly_tILi0EEEEENSM_INSC_16outstanding_work9tracked_tILi0EEEEENSM_INSQ_11untracked_tILi0EEEEENSM_INSC_12relationship6fork_tILi0EEEEENSM_INSX_14continuation_tILi0EEEEEEEENS5_17integral_constantIbLb0EEEEE5valueEiE4typeE, symObjAddr: 0x11C74, symBinAddr: 0x1000157A8, symSize: 0x7C }
  - { offsetInCU: 0x6E653, offset: 0x8023E, size: 0x8, addend: 0x0, symName: __ZN5boost4asio10io_context19basic_executor_typeINSt3__19allocatorIvEELm0EEC1EOS6_, symObjAddr: 0x11CF0, symBinAddr: 0x100015824, symSize: 0x34 }
  - { offsetInCU: 0x6E692, offset: 0x8027D, size: 0x8, addend: 0x0, symName: __ZN5boost4asio9execution12any_executorIJNS1_12context_as_tIRNS0_17execution_contextEEENS1_6detail8blocking7never_tILi0EEENS1_11prefer_onlyINS8_10possibly_tILi0EEEEENSB_INS7_16outstanding_work9tracked_tILi0EEEEENSB_INSF_11untracked_tILi0EEEEENSB_INS7_12relationship6fork_tILi0EEEEENSB_INSM_14continuation_tILi0EEEEEEEC2INS0_10io_context19basic_executor_typeINSt3__19allocatorIvEELm0EEEEET_PNSX_9enable_ifIXsr13conditional_tIXaantsr7is_sameIS11_ST_EE5valuentsr10is_base_ofINS7_17any_executor_baseES11_EE5valueENS7_24is_valid_target_executorIS11_FvS6_SA_SE_SI_SL_SP_SS_EEENSX_17integral_constantIbLb0EEEEE5valueEvE4typeE, symObjAddr: 0x11D24, symBinAddr: 0x100015858, symSize: 0xA8 }
  - { offsetInCU: 0x6E6E2, offset: 0x802CD, size: 0x8, addend: 0x0, symName: __ZN5boost4asio10io_context19basic_executor_typeINSt3__19allocatorIvEELm0EEC2EOS6_, symObjAddr: 0x11DCC, symBinAddr: 0x100015900, symSize: 0x24 }
  - { offsetInCU: 0x6E71C, offset: 0x80307, size: 0x8, addend: 0x0, symName: __ZN5boost4asio9execution6detail17any_executor_baseC2INS0_10io_context19basic_executor_typeINSt3__19allocatorIvEELm0EEEEET_NS7_17integral_constantIbLb0EEE, symObjAddr: 0x11DF0, symBinAddr: 0x100015924, symSize: 0x84 }
  - { offsetInCU: 0x6E76C, offset: 0x80357, size: 0x8, addend: 0x0, symName: __ZN5boost4asio9execution6detail17any_executor_baseD2Ev, symObjAddr: 0x11E80, symBinAddr: 0x1000159B4, symSize: 0x58 }
  - { offsetInCU: 0x6E796, offset: 0x80381, size: 0x8, addend: 0x0, symName: __ZN5boost4asio9execution6detail17any_executor_base14query_blockingINS0_10io_context19basic_executor_typeINSt3__19allocatorIvEELm0EEEEENS2_10blocking_tILi0EEERKT_NS7_17integral_constantIbLb1EEE, symObjAddr: 0x11F44, symBinAddr: 0x100015A78, symSize: 0x3C }
  - { offsetInCU: 0x6E7D0, offset: 0x803BB, size: 0x8, addend: 0x0, symName: __ZN5boost4asio9execution6detail10blocking_tILi0EEC1ENS2_8blocking8always_tILi0EEE, symObjAddr: 0x11F80, symBinAddr: 0x100015AB4, symSize: 0x2C }
  - { offsetInCU: 0x6E805, offset: 0x803F0, size: 0x8, addend: 0x0, symName: __ZN5boost4asio9execution6detail17any_executor_base16construct_objectINS0_10io_context19basic_executor_typeINSt3__19allocatorIvEELm0EEEEEvRT_NS7_17integral_constantIbLb1EEE, symObjAddr: 0x11FAC, symBinAddr: 0x100015AE0, symSize: 0x50 }
  - { offsetInCU: 0x6E850, offset: 0x8043B, size: 0x8, addend: 0x0, symName: __ZN5boost4asio9execution6detail17any_executor_base14target_type_exINS0_10io_context19basic_executor_typeINSt3__19allocatorIvEELm0EEEEERKSt9type_infov, symObjAddr: 0x11FFC, symBinAddr: 0x100015B30, symSize: 0xC }
  - { offsetInCU: 0x6E86E, offset: 0x80459, size: 0x8, addend: 0x0, symName: __ZN5boost4asio9execution6detail17any_executor_base8equal_exINS0_10io_context19basic_executor_typeINSt3__19allocatorIvEELm0EEEEEbRKS3_SC_, symObjAddr: 0x12008, symBinAddr: 0x100015B3C, symSize: 0x60 }
  - { offsetInCU: 0x6E8CC, offset: 0x804B7, size: 0x8, addend: 0x0, symName: __ZN5boost4asio9execution6detail17any_executor_base10execute_exINS0_10io_context19basic_executor_typeINSt3__19allocatorIvEELm0EEEEEvRKS3_ONS0_6detail17executor_functionE, symObjAddr: 0x12068, symBinAddr: 0x100015B9C, symSize: 0x38 }
  - { offsetInCU: 0x6E91A, offset: 0x80505, size: 0x8, addend: 0x0, symName: __ZN5boost4asio9execution6detail17any_executor_base19blocking_execute_exINS0_10io_context19basic_executor_typeINSt3__19allocatorIvEELm0EEEEEvRKS3_NS0_6detail22executor_function_viewE, symObjAddr: 0x120A0, symBinAddr: 0x100015BD4, symSize: 0x44 }
  - { offsetInCU: 0x6E968, offset: 0x80553, size: 0x8, addend: 0x0, symName: __ZNK5boost4asio9execution6detail17any_executor_base6targetINS0_10io_context19basic_executor_typeINSt3__19allocatorIvEELm0EEEEEPKT_v, symObjAddr: 0x120E4, symBinAddr: 0x100015C18, symSize: 0x84 }
  - { offsetInCU: 0x6E997, offset: 0x80582, size: 0x8, addend: 0x0, symName: __ZNK5boost4asio10io_context19basic_executor_typeINSt3__19allocatorIvEELm0EE7executeINS0_6detail17executor_functionEEEvOT_, symObjAddr: 0x121E8, symBinAddr: 0x100015D1C, symSize: 0x1F0 }
  - { offsetInCU: 0x6EA24, offset: 0x8060F, size: 0x8, addend: 0x0, symName: __ZNK5boost4asio10io_context19basic_executor_typeINSt3__19allocatorIvEELm0EE4bitsEv, symObjAddr: 0x123D8, symBinAddr: 0x100015F0C, symSize: 0x1C }
  - { offsetInCU: 0x6EA4A, offset: 0x80635, size: 0x8, addend: 0x0, symName: __ZNK5boost4asio10io_context19basic_executor_typeINSt3__19allocatorIvEELm0EE11context_ptrEv, symObjAddr: 0x123F4, symBinAddr: 0x100015F28, symSize: 0x1C }
  - { offsetInCU: 0x6EA70, offset: 0x8065B, size: 0x8, addend: 0x0, symName: __ZN5boost4asio6detail9scheduler12can_dispatchEv, symObjAddr: 0x12410, symBinAddr: 0x100015F44, symSize: 0x30 }
  - { offsetInCU: 0x6EA99, offset: 0x80684, size: 0x8, addend: 0x0, symName: __ZN5boost4asio6detail17executor_functionC1EOS2_, symObjAddr: 0x12440, symBinAddr: 0x100015F74, symSize: 0x34 }
  - { offsetInCU: 0x6EAD1, offset: 0x806BC, size: 0x8, addend: 0x0, symName: __ZN5boost4asio6detail16std_fenced_blockC1ENS2_6full_tE, symObjAddr: 0x12474, symBinAddr: 0x100015FA8, symSize: 0x34 }
  - { offsetInCU: 0x6EB07, offset: 0x806F2, size: 0x8, addend: 0x0, symName: __ZN5boost4asio6detail17executor_functionclEv, symObjAddr: 0x124A8, symBinAddr: 0x100015FDC, symSize: 0x64 }
  - { offsetInCU: 0x6EB4A, offset: 0x80735, size: 0x8, addend: 0x0, symName: __ZN5boost4asio6detail16std_fenced_blockD1Ev, symObjAddr: 0x1250C, symBinAddr: 0x100016040, symSize: 0x2C }
  - { offsetInCU: 0x6EB74, offset: 0x8075F, size: 0x8, addend: 0x0, symName: __ZN5boost4asio6detail9scheduler25capture_current_exceptionEv, symObjAddr: 0x12538, symBinAddr: 0x10001606C, symSize: 0x48 }
  - { offsetInCU: 0x6EBB4, offset: 0x8079F, size: 0x8, addend: 0x0, symName: __ZN5boost4asio6detail17executor_functionD1Ev, symObjAddr: 0x12580, symBinAddr: 0x1000160B4, symSize: 0x2C }
  - { offsetInCU: 0x6EBE8, offset: 0x807D3, size: 0x8, addend: 0x0, symName: __ZN5boost4asio6detail11executor_opINS1_17executor_functionENSt3__19allocatorIvEENS1_19scheduler_operationEE3ptr8allocateERKS6_, symObjAddr: 0x125AC, symBinAddr: 0x1000160E0, symSize: 0x40 }
  - { offsetInCU: 0x6EC22, offset: 0x8080D, size: 0x8, addend: 0x0, symName: __ZN5boost4asio6detail11executor_opINS1_17executor_functionENSt3__19allocatorIvEENS1_19scheduler_operationEEC1IS3_EEOT_RKS6_, symObjAddr: 0x125EC, symBinAddr: 0x100016120, symSize: 0x3C }
  - { offsetInCU: 0x6EC75, offset: 0x80860, size: 0x8, addend: 0x0, symName: __ZN5boost4asio6detail9scheduler25post_immediate_completionEPNS1_19scheduler_operationEb, symObjAddr: 0x12628, symBinAddr: 0x10001615C, symSize: 0xFC }
  - { offsetInCU: 0x6ECE5, offset: 0x808D0, size: 0x8, addend: 0x0, symName: __ZN5boost4asio6detail11executor_opINS1_17executor_functionENSt3__19allocatorIvEENS1_19scheduler_operationEE3ptrD1Ev, symObjAddr: 0x12724, symBinAddr: 0x100016258, symSize: 0x2C }
  - { offsetInCU: 0x6ED0F, offset: 0x808FA, size: 0x8, addend: 0x0, symName: __ZN5boost4asio6detail10call_stackINS1_14thread_contextENS1_16thread_info_baseEE8containsEPS3_, symObjAddr: 0x12750, symBinAddr: 0x100016284, symSize: 0x8C }
  - { offsetInCU: 0x6ED40, offset: 0x8092B, size: 0x8, addend: 0x0, symName: __ZN5boost4asio6detail17executor_functionC2EOS2_, symObjAddr: 0x127DC, symBinAddr: 0x100016310, symSize: 0x2C }
  - { offsetInCU: 0x6ED78, offset: 0x80963, size: 0x8, addend: 0x0, symName: __ZN5boost4asio6detail16std_fenced_blockC2ENS2_6full_tE, symObjAddr: 0x12808, symBinAddr: 0x10001633C, symSize: 0x38 }
  - { offsetInCU: 0x6EDAE, offset: 0x80999, size: 0x8, addend: 0x0, symName: __ZN5boost4asio6detail16std_fenced_blockD2Ev, symObjAddr: 0x128DC, symBinAddr: 0x100016410, symSize: 0x38 }
  - { offsetInCU: 0x6EDD8, offset: 0x809C3, size: 0x8, addend: 0x0, symName: __ZN5boost4asio6detail16thread_info_base25capture_current_exceptionEv, symObjAddr: 0x12914, symBinAddr: 0x100016448, symSize: 0xF0 }
  - { offsetInCU: 0x6EDFE, offset: 0x809E9, size: 0x8, addend: 0x0, symName: __ZN5boost4asio19multiple_exceptionsC1ESt13exception_ptr, symObjAddr: 0x12A8C, symBinAddr: 0x1000165C0, symSize: 0x34 }
  - { offsetInCU: 0x6EE39, offset: 0x80A24, size: 0x8, addend: 0x0, symName: __ZN5boost4asio19multiple_exceptionsD1Ev, symObjAddr: 0x12AC0, symBinAddr: 0x1000165F4, symSize: 0x2C }
  - { offsetInCU: 0x6EE6B, offset: 0x80A56, size: 0x8, addend: 0x0, symName: __ZN5boost4asio19multiple_exceptionsC1ERKS1_, symObjAddr: 0x12AEC, symBinAddr: 0x100016620, symSize: 0x34 }
  - { offsetInCU: 0x6EEA1, offset: 0x80A8C, size: 0x8, addend: 0x0, symName: __ZN5boost4asio19multiple_exceptionsC2ERKS1_, symObjAddr: 0x12B20, symBinAddr: 0x100016654, symSize: 0x60 }
  - { offsetInCU: 0x6EED7, offset: 0x80AC2, size: 0x8, addend: 0x0, symName: __ZNSt9exceptionC2B8ue170006ERKS_, symObjAddr: 0x12B80, symBinAddr: 0x1000166B4, symSize: 0x28 }
  - { offsetInCU: 0x6EF0D, offset: 0x80AF8, size: 0x8, addend: 0x0, symName: __ZN5boost4asio19multiple_exceptionsD0Ev, symObjAddr: 0x12BA8, symBinAddr: 0x1000166DC, symSize: 0x30 }
  - { offsetInCU: 0x6EF3A, offset: 0x80B25, size: 0x8, addend: 0x0, symName: __ZNK5boost4asio19multiple_exceptions4whatEv, symObjAddr: 0x12BD8, symBinAddr: 0x10001670C, symSize: 0x18 }
  - { offsetInCU: 0x6EF62, offset: 0x80B4D, size: 0x8, addend: 0x0, symName: __ZN5boost4asio19multiple_exceptionsC2ESt13exception_ptr, symObjAddr: 0x12BF0, symBinAddr: 0x100016724, symSize: 0x5C }
  - { offsetInCU: 0x6EF9D, offset: 0x80B88, size: 0x8, addend: 0x0, symName: __ZNSt9exceptionC2B8ue170006Ev, symObjAddr: 0x12C4C, symBinAddr: 0x100016780, symSize: 0x24 }
  - { offsetInCU: 0x6EFC7, offset: 0x80BB2, size: 0x8, addend: 0x0, symName: __ZN5boost4asio19multiple_exceptionsD2Ev, symObjAddr: 0x12C70, symBinAddr: 0x1000167A4, symSize: 0x48 }
  - { offsetInCU: 0x6EFF4, offset: 0x80BDF, size: 0x8, addend: 0x0, symName: __ZN5boost4asio6detail17executor_functionD2Ev, symObjAddr: 0x12CB8, symBinAddr: 0x1000167EC, symSize: 0x6C }
  - { offsetInCU: 0x6F023, offset: 0x80C0E, size: 0x8, addend: 0x0, symName: __ZN5boost4asio6detail23get_recycling_allocatorINSt3__19allocatorIvEENS1_16thread_info_base11default_tagEE3getERKS5_, symObjAddr: 0x12D24, symBinAddr: 0x100016858, symSize: 0x24 }
  - { offsetInCU: 0x6F053, offset: 0x80C3E, size: 0x8, addend: 0x0, symName: __ZN5boost4asio6detail19recycling_allocatorINS1_11executor_opINS1_17executor_functionENSt3__19allocatorIvEENS1_19scheduler_operationEEENS1_16thread_info_base11default_tagEEC1IvEERKNS2_IT_SB_EE, symObjAddr: 0x12D48, symBinAddr: 0x10001687C, symSize: 0x34 }
  - { offsetInCU: 0x6F08E, offset: 0x80C79, size: 0x8, addend: 0x0, symName: __ZN5boost4asio6detail19recycling_allocatorINS1_11executor_opINS1_17executor_functionENSt3__19allocatorIvEENS1_19scheduler_operationEEENS1_16thread_info_base11default_tagEE8allocateEm, symObjAddr: 0x12D7C, symBinAddr: 0x1000168B0, symSize: 0x40 }
  - { offsetInCU: 0x6F0D4, offset: 0x80CBF, size: 0x8, addend: 0x0, symName: __ZN5boost4asio6detail19recycling_allocatorIvNS1_16thread_info_base11default_tagEEC1Ev, symObjAddr: 0x12DBC, symBinAddr: 0x1000168F0, symSize: 0x2C }
  - { offsetInCU: 0x6F0FE, offset: 0x80CE9, size: 0x8, addend: 0x0, symName: __ZN5boost4asio6detail19recycling_allocatorIvNS1_16thread_info_base11default_tagEEC2Ev, symObjAddr: 0x12DE8, symBinAddr: 0x10001691C, symSize: 0x14 }
  - { offsetInCU: 0x6F128, offset: 0x80D13, size: 0x8, addend: 0x0, symName: __ZN5boost4asio6detail19recycling_allocatorINS1_11executor_opINS1_17executor_functionENSt3__19allocatorIvEENS1_19scheduler_operationEEENS1_16thread_info_base11default_tagEEC2IvEERKNS2_IT_SB_EE, symObjAddr: 0x12DFC, symBinAddr: 0x100016930, symSize: 0x18 }
  - { offsetInCU: 0x6F163, offset: 0x80D4E, size: 0x8, addend: 0x0, symName: __ZN5boost4asio6detail16thread_info_base8allocateINS2_11default_tagEEEPvT_PS2_mm, symObjAddr: 0x12E14, symBinAddr: 0x100016948, symSize: 0x218 }
  - { offsetInCU: 0x6F262, offset: 0x80E4D, size: 0x8, addend: 0x0, symName: __ZN5boost4asio6detail14thread_context24top_of_thread_call_stackEv, symObjAddr: 0x1302C, symBinAddr: 0x100016B60, symSize: 0x14 }
  - { offsetInCU: 0x6F279, offset: 0x80E64, size: 0x8, addend: 0x0, symName: __ZN5boost10wrapexceptISt9bad_allocEC1ERKS1_, symObjAddr: 0x132D0, symBinAddr: 0x100016E04, symSize: 0x34 }
  - { offsetInCU: 0x6F2B3, offset: 0x80E9E, size: 0x8, addend: 0x0, symName: __ZN5boost10wrapexceptISt9bad_allocED1Ev, symObjAddr: 0x13304, symBinAddr: 0x100016E38, symSize: 0x2C }
  - { offsetInCU: 0x6F2E0, offset: 0x80ECB, size: 0x8, addend: 0x0, symName: __ZN5boost10wrapexceptISt9bad_allocEC2ERKS1_, symObjAddr: 0x13330, symBinAddr: 0x100016E64, symSize: 0xE4 }
  - { offsetInCU: 0x6F31A, offset: 0x80F05, size: 0x8, addend: 0x0, symName: __ZNSt9bad_allocC2ERKS_, symObjAddr: 0x13414, symBinAddr: 0x100016F48, symSize: 0x4C }
  - { offsetInCU: 0x6F34F, offset: 0x80F3A, size: 0x8, addend: 0x0, symName: __ZN5boost10wrapexceptISt9bad_allocE9copy_fromEPKv, symObjAddr: 0x13460, symBinAddr: 0x100016F94, symSize: 0x14 }
  - { offsetInCU: 0x6F381, offset: 0x80F6C, size: 0x8, addend: 0x0, symName: __ZNK5boost10wrapexceptISt9bad_allocE5cloneEv, symObjAddr: 0x13474, symBinAddr: 0x100016FA8, symSize: 0xE4 }
  - { offsetInCU: 0x6F3C7, offset: 0x80FB2, size: 0x8, addend: 0x0, symName: __ZNK5boost10wrapexceptISt9bad_allocE7rethrowEv, symObjAddr: 0x13558, symBinAddr: 0x10001708C, symSize: 0x6C }
  - { offsetInCU: 0x6F3ED, offset: 0x80FD8, size: 0x8, addend: 0x0, symName: __ZN5boost10wrapexceptISt9bad_allocED0Ev, symObjAddr: 0x135C4, symBinAddr: 0x1000170F8, symSize: 0x30 }
  - { offsetInCU: 0x6F41A, offset: 0x81005, size: 0x8, addend: 0x0, symName: __ZThn8_N5boost10wrapexceptISt9bad_allocED1Ev, symObjAddr: 0x135F4, symBinAddr: 0x100017128, symSize: 0x1C }
  - { offsetInCU: 0x6F431, offset: 0x8101C, size: 0x8, addend: 0x0, symName: __ZThn8_N5boost10wrapexceptISt9bad_allocED0Ev, symObjAddr: 0x13610, symBinAddr: 0x100017144, symSize: 0x18 }
  - { offsetInCU: 0x6F448, offset: 0x81033, size: 0x8, addend: 0x0, symName: __ZThn16_N5boost10wrapexceptISt9bad_allocED1Ev, symObjAddr: 0x13628, symBinAddr: 0x10001715C, symSize: 0x1C }
  - { offsetInCU: 0x6F45F, offset: 0x8104A, size: 0x8, addend: 0x0, symName: __ZThn16_N5boost10wrapexceptISt9bad_allocED0Ev, symObjAddr: 0x13644, symBinAddr: 0x100017178, symSize: 0x18 }
  - { offsetInCU: 0x6F47B, offset: 0x81066, size: 0x8, addend: 0x0, symName: __ZN5boost10wrapexceptISt9bad_allocEC1ERKS2_, symObjAddr: 0x1365C, symBinAddr: 0x100017190, symSize: 0x34 }
  - { offsetInCU: 0x6F4BB, offset: 0x810A6, size: 0x8, addend: 0x0, symName: __ZN5boost10wrapexceptISt9bad_allocE7deleterD1Ev, symObjAddr: 0x13690, symBinAddr: 0x1000171C4, symSize: 0x2C }
  - { offsetInCU: 0x6F4E5, offset: 0x810D0, size: 0x8, addend: 0x0, symName: __ZN5boost10wrapexceptISt9bad_allocEC2ERKS2_, symObjAddr: 0x136BC, symBinAddr: 0x1000171F0, symSize: 0xC4 }
  - { offsetInCU: 0x6F51B, offset: 0x81106, size: 0x8, addend: 0x0, symName: __ZN5boost10wrapexceptISt9bad_allocE7deleterD2Ev, symObjAddr: 0x13780, symBinAddr: 0x1000172B4, symSize: 0x58 }
  - { offsetInCU: 0x6F545, offset: 0x81130, size: 0x8, addend: 0x0, symName: __ZN5boost10wrapexceptISt9bad_allocED2Ev, symObjAddr: 0x137D8, symBinAddr: 0x10001730C, symSize: 0x44 }
  - { offsetInCU: 0x6F572, offset: 0x8115D, size: 0x8, addend: 0x0, symName: __ZN5boost4asio6detail10call_stackINS1_14thread_contextENS1_16thread_info_baseEE3topEv, symObjAddr: 0x1381C, symBinAddr: 0x100017350, symSize: 0x5C }
  - { offsetInCU: 0x6F595, offset: 0x81180, size: 0x8, addend: 0x0, symName: __ZN5boost4asio6detail11executor_opINS1_17executor_functionENSt3__19allocatorIvEENS1_19scheduler_operationEEC2IS3_EEOT_RKS6_, symObjAddr: 0x13878, symBinAddr: 0x1000173AC, symSize: 0x4C }
  - { offsetInCU: 0x6F5E8, offset: 0x811D3, size: 0x8, addend: 0x0, symName: __ZN5boost4asio6detail11executor_opINS1_17executor_functionENSt3__19allocatorIvEENS1_19scheduler_operationEE11do_completeEPvPS7_RKNS_6system10error_codeEm, symObjAddr: 0x138C4, symBinAddr: 0x1000173F8, symSize: 0xFC }
  - { offsetInCU: 0x6F68C, offset: 0x81277, size: 0x8, addend: 0x0, symName: __ZN5boost4asio6detail11executor_opINS1_17executor_functionENSt3__19allocatorIvEENS1_19scheduler_operationEE3ptr5resetEv, symObjAddr: 0x139C0, symBinAddr: 0x1000174F4, symSize: 0xA4 }
  - { offsetInCU: 0x6F6D1, offset: 0x812BC, size: 0x8, addend: 0x0, symName: __ZN5boost4asio6detail16std_fenced_blockC1ENS2_6half_tE, symObjAddr: 0x13A64, symBinAddr: 0x100017598, symSize: 0x34 }
